
kernel/out/kernel.bin:     file format elf32-i386


Disassembly of section .text:

00100000 <_start>:
  100000:	eb 22                	jmp    100024 <entry2>
  100002:	66 90                	xchg   %ax,%ax
  100004:	02 b0 ad 1b 02 00    	add    0x21bad(%eax),%dh
  10000a:	01 00                	add    %eax,(%eax)
  10000c:	fc                   	cld    
  10000d:	4f                   	dec    %edi
  10000e:	51                   	push   %ecx
  10000f:	e4 04                	in     $0x4,%al
  100011:	00 10                	add    %dl,(%eax)
  100013:	00 00                	add    %al,(%eax)
  100015:	00 10                	add    %dl,(%eax)
  100017:	00 59 92             	add    %bl,-0x6e(%ecx)
  10001a:	12 00                	adc    (%eax),%al
  10001c:	80 56 13 00          	adcb   $0x0,0x13(%esi)
  100020:	00 00                	add    %al,(%eax)
  100022:	10 00                	adc    %al,(%eax)

00100024 <entry2>:
  100024:	a3 60 16 13 00       	mov    %eax,0x131660
  100029:	89 1d 64 16 13 00    	mov    %ebx,0x131664
  10002f:	8d 25 80 16 13 00    	lea    0x131680,%esp
  100035:	81 c4 00 40 00 00    	add    $0x4000,%esp
  10003b:	31 ed                	xor    %ebp,%ebp
  10003d:	6a 00                	push   $0x0
  10003f:	9d                   	popf   
  100040:	bf 59 92 12 00       	mov    $0x129259,%edi
  100045:	31 c0                	xor    %eax,%eax
  100047:	89 07                	mov    %eax,(%edi)
  100049:	83 c7 04             	add    $0x4,%edi
  10004c:	81 ff 00 00 00 03    	cmp    $0x3000000,%edi
  100052:	72 f3                	jb     100047 <entry2+0x23>
  100054:	be 58 a1 11 00       	mov    $0x11a158,%esi
  100059:	b9 70 8a 12 00       	mov    $0x128a70,%ecx
  10005e:	29 f1                	sub    %esi,%ecx
  100060:	83 c1 03             	add    $0x3,%ecx
  100063:	c1 e9 02             	shr    $0x2,%ecx
  100066:	bf 00 00 00 01       	mov    $0x1000000,%edi
  10006b:	f3 a5                	rep movsl %ds:(%esi),%es:(%edi)
  10006d:	e8 3a e7 00 00       	call   10e7ac <cpu_init>
  100072:	e8 9e e1 00 00       	call   10e215 <kernel_start>
  100077:	e8 13 e6 00 00       	call   10e68f <reboot>

0010007c <setup_pgtab>:
  10007c:	8d 05 00 20 10 00    	lea    0x102000,%eax
  100082:	31 ff                	xor    %edi,%edi
  100084:	89 38                	mov    %edi,(%eax)
  100086:	83 c0 04             	add    $0x4,%eax
  100089:	ba ff 2f 00 00       	mov    $0x2fff,%edx
  10008e:	bf 07 10 00 00       	mov    $0x1007,%edi
  100093:	89 38                	mov    %edi,(%eax)
  100095:	83 c0 04             	add    $0x4,%eax
  100098:	81 c7 00 10 00 00    	add    $0x1000,%edi
  10009e:	4a                   	dec    %edx
  10009f:	75 f2                	jne    100093 <setup_pgtab+0x17>
  1000a1:	e8 c4 e6 00 00       	call   10e76a <setup_rodata>
  1000a6:	8d 05 00 10 10 00    	lea    0x101000,%eax
  1000ac:	0f 22 d8             	mov    %eax,%cr3
  1000af:	a3 1c 00 02 00       	mov    %eax,0x2001c
  1000b4:	0f 20 c0             	mov    %cr0,%eax
  1000b7:	0d 00 00 01 80       	or     $0x80010000,%eax
  1000bc:	0f 22 c0             	mov    %eax,%cr0
  1000bf:	eb 00                	jmp    1000c1 <setup_pgtab+0x45>
  1000c1:	b8 c8 00 10 00       	mov    $0x1000c8,%eax
  1000c6:	ff e0                	jmp    *%eax
  1000c8:	c3                   	ret    
  1000c9:	c3                   	ret    

001000ca <keyboard_data>:
  1000ca:	c3                   	ret    

001000cb <kbd_leds>:
  1000cb:	c3                   	ret    
	...

00101000 <pgdir>:
  101000:	03 20                	add    (%eax),%esp
  101002:	10 00                	adc    %al,(%eax)
  101004:	03 30                	add    (%eax),%esi
  101006:	10 00                	adc    %al,(%eax)
  101008:	03 40 10             	add    0x10(%eax),%eax
  10100b:	00 03                	add    %al,(%ebx)
  10100d:	50                   	push   %eax
  10100e:	10 00                	adc    %al,(%eax)
  101010:	07                   	pop    %es
  101011:	60                   	pusha  
  101012:	10 00                	adc    %al,(%eax)
  101014:	07                   	pop    %es
  101015:	70 10                	jo     101027 <pgdir+0x27>
  101017:	00 07                	add    %al,(%edi)
  101019:	80 10 00             	adcb   $0x0,(%eax)
  10101c:	07                   	pop    %es
  10101d:	90                   	nop
  10101e:	10 00                	adc    %al,(%eax)
  101020:	07                   	pop    %es
  101021:	a0 10 00 07 b0       	mov    0xb0070010,%al
  101026:	10 00                	adc    %al,(%eax)
  101028:	07                   	pop    %es
  101029:	c0 10 00             	rclb   $0x0,(%eax)
  10102c:	07                   	pop    %es
  10102d:	d0 10                	rclb   (%eax)
	...

00102000 <pgtab>:
	...

0010e000 <cons_write>:
  10e000:	c3                   	ret    

0010e001 <cons_read>:
  10e001:	c3                   	ret    

0010e002 <exit>:
  10e002:	c3                   	ret    

0010e003 <start>:
  10e003:	c3                   	ret    

0010e004 <waitpid>:
  10e004:	c3                   	ret    

0010e005 <kill>:
  10e005:	c3                   	ret    

0010e006 <getpid>:
  10e006:	c3                   	ret    

0010e007 <getprio>:
  10e007:	c3                   	ret    

0010e008 <chprio>:
  10e008:	c3                   	ret    

0010e009 <screate>:
  10e009:	c3                   	ret    

0010e00a <scount>:
  10e00a:	c3                   	ret    

0010e00b <signal>:
  10e00b:	c3                   	ret    

0010e00c <signaln>:
  10e00c:	c3                   	ret    

0010e00d <wait>:
  10e00d:	c3                   	ret    

0010e00e <sreset>:
  10e00e:	c3                   	ret    

0010e00f <sdelete>:
  10e00f:	c3                   	ret    

0010e010 <try_wait>:
  10e010:	c3                   	ret    

0010e011 <sys_info>:
  10e011:	c3                   	ret    

0010e012 <pcreate>:
  10e012:	c3                   	ret    

0010e013 <psend>:
  10e013:	c3                   	ret    

0010e014 <pdelete>:
  10e014:	c3                   	ret    

0010e015 <pcount>:
  10e015:	c3                   	ret    

0010e016 <preceive>:
  10e016:	c3                   	ret    

0010e017 <preset>:
  10e017:	c3                   	ret    

0010e018 <clock_settings>:
  10e018:	c3                   	ret    

0010e019 <wait_clock>:
  10e019:	c3                   	ret    

0010e01a <current_clock>:
  10e01a:	c3                   	ret    

0010e01b <cons_echo>:
  10e01b:	c3                   	ret    

0010e01c <trap0>:
  10e01c:	6a 00                	push   $0x0
  10e01e:	6a 00                	push   $0x0
  10e020:	fc                   	cld    
  10e021:	e8 92 51 00 00       	call   1131b8 <trap_handler>
  10e026:	83 c4 08             	add    $0x8,%esp
  10e029:	cf                   	iret   
  10e02a:	eb f0                	jmp    10e01c <trap0>

0010e02c <trap1>:
  10e02c:	6a 00                	push   $0x0
  10e02e:	6a 01                	push   $0x1
  10e030:	fc                   	cld    
  10e031:	e8 82 51 00 00       	call   1131b8 <trap_handler>
  10e036:	83 c4 08             	add    $0x8,%esp
  10e039:	cf                   	iret   
  10e03a:	eb f0                	jmp    10e02c <trap1>

0010e03c <trap2>:
  10e03c:	6a 00                	push   $0x0
  10e03e:	6a 02                	push   $0x2
  10e040:	fc                   	cld    
  10e041:	e8 72 51 00 00       	call   1131b8 <trap_handler>
  10e046:	83 c4 08             	add    $0x8,%esp
  10e049:	cf                   	iret   
  10e04a:	eb f0                	jmp    10e03c <trap2>

0010e04c <trap3>:
  10e04c:	6a 00                	push   $0x0
  10e04e:	6a 03                	push   $0x3
  10e050:	fc                   	cld    
  10e051:	e8 62 51 00 00       	call   1131b8 <trap_handler>
  10e056:	83 c4 08             	add    $0x8,%esp
  10e059:	cf                   	iret   
  10e05a:	eb f0                	jmp    10e04c <trap3>

0010e05c <trap4>:
  10e05c:	6a 00                	push   $0x0
  10e05e:	6a 04                	push   $0x4
  10e060:	fc                   	cld    
  10e061:	e8 52 51 00 00       	call   1131b8 <trap_handler>
  10e066:	83 c4 08             	add    $0x8,%esp
  10e069:	cf                   	iret   
  10e06a:	eb f0                	jmp    10e05c <trap4>

0010e06c <trap5>:
  10e06c:	6a 00                	push   $0x0
  10e06e:	6a 05                	push   $0x5
  10e070:	fc                   	cld    
  10e071:	e8 42 51 00 00       	call   1131b8 <trap_handler>
  10e076:	83 c4 08             	add    $0x8,%esp
  10e079:	cf                   	iret   
  10e07a:	eb f0                	jmp    10e06c <trap5>

0010e07c <trap6>:
  10e07c:	6a 00                	push   $0x0
  10e07e:	6a 06                	push   $0x6
  10e080:	fc                   	cld    
  10e081:	e8 32 51 00 00       	call   1131b8 <trap_handler>
  10e086:	83 c4 08             	add    $0x8,%esp
  10e089:	cf                   	iret   
  10e08a:	eb f0                	jmp    10e07c <trap6>

0010e08c <trap7>:
  10e08c:	6a 00                	push   $0x0
  10e08e:	6a 07                	push   $0x7
  10e090:	fc                   	cld    
  10e091:	e8 22 51 00 00       	call   1131b8 <trap_handler>
  10e096:	83 c4 08             	add    $0x8,%esp
  10e099:	cf                   	iret   
  10e09a:	eb f0                	jmp    10e08c <trap7>

0010e09c <trap8>:
  10e09c:	6a 08                	push   $0x8
  10e09e:	fc                   	cld    
  10e09f:	e8 14 51 00 00       	call   1131b8 <trap_handler>
  10e0a4:	83 c4 08             	add    $0x8,%esp
  10e0a7:	cf                   	iret   
  10e0a8:	eb f2                	jmp    10e09c <trap8>

0010e0aa <trap9>:
  10e0aa:	6a 00                	push   $0x0
  10e0ac:	6a 09                	push   $0x9
  10e0ae:	fc                   	cld    
  10e0af:	e8 04 51 00 00       	call   1131b8 <trap_handler>
  10e0b4:	83 c4 08             	add    $0x8,%esp
  10e0b7:	cf                   	iret   
  10e0b8:	eb f0                	jmp    10e0aa <trap9>

0010e0ba <trap10>:
  10e0ba:	6a 0a                	push   $0xa
  10e0bc:	fc                   	cld    
  10e0bd:	e8 f6 50 00 00       	call   1131b8 <trap_handler>
  10e0c2:	83 c4 08             	add    $0x8,%esp
  10e0c5:	cf                   	iret   
  10e0c6:	eb f2                	jmp    10e0ba <trap10>

0010e0c8 <trap11>:
  10e0c8:	6a 0b                	push   $0xb
  10e0ca:	fc                   	cld    
  10e0cb:	e8 e8 50 00 00       	call   1131b8 <trap_handler>
  10e0d0:	83 c4 08             	add    $0x8,%esp
  10e0d3:	cf                   	iret   
  10e0d4:	eb f2                	jmp    10e0c8 <trap11>

0010e0d6 <trap12>:
  10e0d6:	6a 0c                	push   $0xc
  10e0d8:	fc                   	cld    
  10e0d9:	e8 da 50 00 00       	call   1131b8 <trap_handler>
  10e0de:	83 c4 08             	add    $0x8,%esp
  10e0e1:	cf                   	iret   
  10e0e2:	eb f2                	jmp    10e0d6 <trap12>

0010e0e4 <trap13>:
  10e0e4:	6a 0d                	push   $0xd
  10e0e6:	fc                   	cld    
  10e0e7:	e8 cc 50 00 00       	call   1131b8 <trap_handler>
  10e0ec:	83 c4 08             	add    $0x8,%esp
  10e0ef:	cf                   	iret   
  10e0f0:	eb f2                	jmp    10e0e4 <trap13>

0010e0f2 <trap14>:
  10e0f2:	6a 0e                	push   $0xe
  10e0f4:	fc                   	cld    
  10e0f5:	e8 be 50 00 00       	call   1131b8 <trap_handler>
  10e0fa:	83 c4 08             	add    $0x8,%esp
  10e0fd:	cf                   	iret   
  10e0fe:	eb f2                	jmp    10e0f2 <trap14>

0010e100 <trap15>:
  10e100:	6a 00                	push   $0x0
  10e102:	6a 0f                	push   $0xf
  10e104:	fc                   	cld    
  10e105:	e8 ae 50 00 00       	call   1131b8 <trap_handler>
  10e10a:	83 c4 08             	add    $0x8,%esp
  10e10d:	cf                   	iret   
  10e10e:	eb f0                	jmp    10e100 <trap15>

0010e110 <trap16>:
  10e110:	6a 00                	push   $0x0
  10e112:	6a 10                	push   $0x10
  10e114:	fc                   	cld    
  10e115:	e8 9e 50 00 00       	call   1131b8 <trap_handler>
  10e11a:	83 c4 08             	add    $0x8,%esp
  10e11d:	cf                   	iret   
  10e11e:	eb f0                	jmp    10e110 <trap16>

0010e120 <trap17>:
  10e120:	6a 11                	push   $0x11
  10e122:	fc                   	cld    
  10e123:	e8 90 50 00 00       	call   1131b8 <trap_handler>
  10e128:	83 c4 08             	add    $0x8,%esp
  10e12b:	cf                   	iret   
  10e12c:	eb f2                	jmp    10e120 <trap17>

0010e12e <trap18>:
  10e12e:	6a 00                	push   $0x0
  10e130:	6a 12                	push   $0x12
  10e132:	fc                   	cld    
  10e133:	e8 80 50 00 00       	call   1131b8 <trap_handler>
  10e138:	83 c4 08             	add    $0x8,%esp
  10e13b:	cf                   	iret   
  10e13c:	eb f0                	jmp    10e12e <trap18>

0010e13e <trap19>:
  10e13e:	6a 00                	push   $0x0
  10e140:	6a 13                	push   $0x13
  10e142:	fc                   	cld    
  10e143:	e8 70 50 00 00       	call   1131b8 <trap_handler>
  10e148:	83 c4 08             	add    $0x8,%esp
  10e14b:	cf                   	iret   
  10e14c:	eb f0                	jmp    10e13e <trap19>

0010e14e <trap20>:
  10e14e:	6a 00                	push   $0x0
  10e150:	6a 14                	push   $0x14
  10e152:	fc                   	cld    
  10e153:	e8 60 50 00 00       	call   1131b8 <trap_handler>
  10e158:	83 c4 08             	add    $0x8,%esp
  10e15b:	cf                   	iret   
  10e15c:	eb f0                	jmp    10e14e <trap20>

0010e15e <trap21>:
  10e15e:	6a 00                	push   $0x0
  10e160:	6a 15                	push   $0x15
  10e162:	fc                   	cld    
  10e163:	e8 50 50 00 00       	call   1131b8 <trap_handler>
  10e168:	83 c4 08             	add    $0x8,%esp
  10e16b:	cf                   	iret   
  10e16c:	eb f0                	jmp    10e15e <trap21>

0010e16e <trap22>:
  10e16e:	6a 00                	push   $0x0
  10e170:	6a 16                	push   $0x16
  10e172:	fc                   	cld    
  10e173:	e8 40 50 00 00       	call   1131b8 <trap_handler>
  10e178:	83 c4 08             	add    $0x8,%esp
  10e17b:	cf                   	iret   
  10e17c:	eb f0                	jmp    10e16e <trap22>

0010e17e <trap23>:
  10e17e:	6a 00                	push   $0x0
  10e180:	6a 17                	push   $0x17
  10e182:	fc                   	cld    
  10e183:	e8 30 50 00 00       	call   1131b8 <trap_handler>
  10e188:	83 c4 08             	add    $0x8,%esp
  10e18b:	cf                   	iret   
  10e18c:	eb f0                	jmp    10e17e <trap23>

0010e18e <trap24>:
  10e18e:	6a 00                	push   $0x0
  10e190:	6a 18                	push   $0x18
  10e192:	fc                   	cld    
  10e193:	e8 20 50 00 00       	call   1131b8 <trap_handler>
  10e198:	83 c4 08             	add    $0x8,%esp
  10e19b:	cf                   	iret   
  10e19c:	eb f0                	jmp    10e18e <trap24>

0010e19e <trap25>:
  10e19e:	6a 00                	push   $0x0
  10e1a0:	6a 19                	push   $0x19
  10e1a2:	fc                   	cld    
  10e1a3:	e8 10 50 00 00       	call   1131b8 <trap_handler>
  10e1a8:	83 c4 08             	add    $0x8,%esp
  10e1ab:	cf                   	iret   
  10e1ac:	eb f0                	jmp    10e19e <trap25>

0010e1ae <trap26>:
  10e1ae:	6a 00                	push   $0x0
  10e1b0:	6a 1a                	push   $0x1a
  10e1b2:	fc                   	cld    
  10e1b3:	e8 00 50 00 00       	call   1131b8 <trap_handler>
  10e1b8:	83 c4 08             	add    $0x8,%esp
  10e1bb:	cf                   	iret   
  10e1bc:	eb f0                	jmp    10e1ae <trap26>

0010e1be <trap27>:
  10e1be:	6a 00                	push   $0x0
  10e1c0:	6a 1b                	push   $0x1b
  10e1c2:	fc                   	cld    
  10e1c3:	e8 f0 4f 00 00       	call   1131b8 <trap_handler>
  10e1c8:	83 c4 08             	add    $0x8,%esp
  10e1cb:	cf                   	iret   
  10e1cc:	eb f0                	jmp    10e1be <trap27>

0010e1ce <trap28>:
  10e1ce:	6a 00                	push   $0x0
  10e1d0:	6a 1c                	push   $0x1c
  10e1d2:	fc                   	cld    
  10e1d3:	e8 e0 4f 00 00       	call   1131b8 <trap_handler>
  10e1d8:	83 c4 08             	add    $0x8,%esp
  10e1db:	cf                   	iret   
  10e1dc:	eb f0                	jmp    10e1ce <trap28>

0010e1de <trap29>:
  10e1de:	6a 00                	push   $0x0
  10e1e0:	6a 1d                	push   $0x1d
  10e1e2:	fc                   	cld    
  10e1e3:	e8 d0 4f 00 00       	call   1131b8 <trap_handler>
  10e1e8:	83 c4 08             	add    $0x8,%esp
  10e1eb:	cf                   	iret   
  10e1ec:	eb f0                	jmp    10e1de <trap29>

0010e1ee <trap30>:
  10e1ee:	6a 00                	push   $0x0
  10e1f0:	6a 1e                	push   $0x1e
  10e1f2:	fc                   	cld    
  10e1f3:	e8 c0 4f 00 00       	call   1131b8 <trap_handler>
  10e1f8:	83 c4 08             	add    $0x8,%esp
  10e1fb:	cf                   	iret   
  10e1fc:	eb f0                	jmp    10e1ee <trap30>

0010e1fe <trap31>:
  10e1fe:	6a 00                	push   $0x0
  10e200:	6a 1f                	push   $0x1f
  10e202:	fc                   	cld    
  10e203:	e8 b0 4f 00 00       	call   1131b8 <trap_handler>
  10e208:	83 c4 08             	add    $0x8,%esp
  10e20b:	cf                   	iret   
  10e20c:	eb f0                	jmp    10e1fe <trap31>

0010e20e <hlt>:
  10e20e:	55                   	push   %ebp
  10e20f:	89 e5                	mov    %esp,%ebp
  10e211:	f4                   	hlt    
  10e212:	90                   	nop
  10e213:	5d                   	pop    %ebp
  10e214:	c3                   	ret    

0010e215 <kernel_start>:
  10e215:	55                   	push   %ebp
  10e216:	89 e5                	mov    %esp,%ebp
  10e218:	83 ec 08             	sub    $0x8,%esp
  10e21b:	83 ec 0c             	sub    $0xc,%esp
  10e21e:	68 00 70 11 00       	push   $0x117000
  10e223:	e8 a8 10 00 00       	call   10f2d0 <puts>
  10e228:	83 c4 10             	add    $0x10,%esp
  10e22b:	e8 63 46 00 00       	call   112893 <page_init>
  10e230:	e8 cc 25 00 00       	call   110801 <pit_init>
  10e235:	e8 d6 28 00 00       	call   110b10 <syscall_init>
  10e23a:	83 ec 0c             	sub    $0xc,%esp
  10e23d:	6a 00                	push   $0x0
  10e23f:	e8 bc 1d ef 00       	call   1000000 <mem_heap_end>
  10e244:	83 c4 10             	add    $0x10,%esp
  10e247:	e8 c2 ff ff ff       	call   10e20e <hlt>
  10e24c:	eb f9                	jmp    10e247 <kernel_start+0x32>

0010e24e <outb>:
  10e24e:	55                   	push   %ebp
  10e24f:	89 e5                	mov    %esp,%ebp
  10e251:	83 ec 08             	sub    $0x8,%esp
  10e254:	8b 55 08             	mov    0x8(%ebp),%edx
  10e257:	8b 45 0c             	mov    0xc(%ebp),%eax
  10e25a:	88 55 fc             	mov    %dl,-0x4(%ebp)
  10e25d:	66 89 45 f8          	mov    %ax,-0x8(%ebp)
  10e261:	8a 45 fc             	mov    -0x4(%ebp),%al
  10e264:	8b 55 f8             	mov    -0x8(%ebp),%edx
  10e267:	ee                   	out    %al,(%dx)
  10e268:	90                   	nop
  10e269:	89 ec                	mov    %ebp,%esp
  10e26b:	5d                   	pop    %ebp
  10e26c:	c3                   	ret    

0010e26d <fill_descriptor>:
  10e26d:	55                   	push   %ebp
  10e26e:	89 e5                	mov    %esp,%ebp
  10e270:	57                   	push   %edi
  10e271:	56                   	push   %esi
  10e272:	53                   	push   %ebx
  10e273:	83 ec 1c             	sub    $0x1c,%esp
  10e276:	8b 45 0c             	mov    0xc(%ebp),%eax
  10e279:	89 45 ec             	mov    %eax,-0x14(%ebp)
  10e27c:	81 7d 10 ff ff 0f 00 	cmpl   $0xfffff,0x10(%ebp)
  10e283:	76 08                	jbe    10e28d <fill_descriptor+0x20>
  10e285:	c1 6d 10 0c          	shrl   $0xc,0x10(%ebp)
  10e289:	83 4d 18 08          	orl    $0x8,0x18(%ebp)
  10e28d:	8b 45 10             	mov    0x10(%ebp),%eax
  10e290:	25 ff ff 00 00       	and    $0xffff,%eax
  10e295:	89 c2                	mov    %eax,%edx
  10e297:	8b 45 ec             	mov    -0x14(%ebp),%eax
  10e29a:	c1 e0 10             	shl    $0x10,%eax
  10e29d:	01 d0                	add    %edx,%eax
  10e29f:	89 45 e8             	mov    %eax,-0x18(%ebp)
  10e2a2:	8b 45 ec             	mov    -0x14(%ebp),%eax
  10e2a5:	c1 e8 10             	shr    $0x10,%eax
  10e2a8:	25 ff 00 00 00       	and    $0xff,%eax
  10e2ad:	89 45 e4             	mov    %eax,-0x1c(%ebp)
  10e2b0:	8b 45 14             	mov    0x14(%ebp),%eax
  10e2b3:	c1 e0 08             	shl    $0x8,%eax
  10e2b6:	25 ff ff 00 00       	and    $0xffff,%eax
  10e2bb:	0b 45 e4             	or     -0x1c(%ebp),%eax
  10e2be:	80 cc 80             	or     $0x80,%ah
  10e2c1:	89 45 e4             	mov    %eax,-0x1c(%ebp)
  10e2c4:	8b 45 10             	mov    0x10(%ebp),%eax
  10e2c7:	25 00 00 0f 00       	and    $0xf0000,%eax
  10e2cc:	09 45 e4             	or     %eax,-0x1c(%ebp)
  10e2cf:	8b 45 18             	mov    0x18(%ebp),%eax
  10e2d2:	c1 e0 14             	shl    $0x14,%eax
  10e2d5:	25 00 00 f0 00       	and    $0xf00000,%eax
  10e2da:	09 45 e4             	or     %eax,-0x1c(%ebp)
  10e2dd:	8b 45 ec             	mov    -0x14(%ebp),%eax
  10e2e0:	25 00 00 00 ff       	and    $0xff000000,%eax
  10e2e5:	09 45 e4             	or     %eax,-0x1c(%ebp)
  10e2e8:	8b 45 e4             	mov    -0x1c(%ebp),%eax
  10e2eb:	ba 00 00 00 00       	mov    $0x0,%edx
  10e2f0:	89 c2                	mov    %eax,%edx
  10e2f2:	b8 00 00 00 00       	mov    $0x0,%eax
  10e2f7:	89 45 d8             	mov    %eax,-0x28(%ebp)
  10e2fa:	89 55 dc             	mov    %edx,-0x24(%ebp)
  10e2fd:	8b 75 e8             	mov    -0x18(%ebp),%esi
  10e300:	bf 00 00 00 00       	mov    $0x0,%edi
  10e305:	8b 45 d8             	mov    -0x28(%ebp),%eax
  10e308:	09 f0                	or     %esi,%eax
  10e30a:	89 c1                	mov    %eax,%ecx
  10e30c:	8b 45 dc             	mov    -0x24(%ebp),%eax
  10e30f:	09 f8                	or     %edi,%eax
  10e311:	89 c3                	mov    %eax,%ebx
  10e313:	8b 45 08             	mov    0x8(%ebp),%eax
  10e316:	89 08                	mov    %ecx,(%eax)
  10e318:	89 58 04             	mov    %ebx,0x4(%eax)
  10e31b:	90                   	nop
  10e31c:	83 c4 1c             	add    $0x1c,%esp
  10e31f:	5b                   	pop    %ebx
  10e320:	5e                   	pop    %esi
  10e321:	5f                   	pop    %edi
  10e322:	5d                   	pop    %ebp
  10e323:	c3                   	ret    

0010e324 <fill_gate>:
  10e324:	55                   	push   %ebp
  10e325:	89 e5                	mov    %esp,%ebp
  10e327:	57                   	push   %edi
  10e328:	56                   	push   %esi
  10e329:	53                   	push   %ebx
  10e32a:	83 ec 2c             	sub    $0x2c,%esp
  10e32d:	8b 45 10             	mov    0x10(%ebp),%eax
  10e330:	8b 75 14             	mov    0x14(%ebp),%esi
  10e333:	8b 55 18             	mov    0x18(%ebp),%edx
  10e336:	66 89 45 dc          	mov    %ax,-0x24(%ebp)
  10e33a:	89 f0                	mov    %esi,%eax
  10e33c:	88 45 d8             	mov    %al,-0x28(%ebp)
  10e33f:	88 d0                	mov    %dl,%al
  10e341:	88 45 d4             	mov    %al,-0x2c(%ebp)
  10e344:	8b 45 0c             	mov    0xc(%ebp),%eax
  10e347:	25 ff ff 00 00       	and    $0xffff,%eax
  10e34c:	89 45 ec             	mov    %eax,-0x14(%ebp)
  10e34f:	8b 45 dc             	mov    -0x24(%ebp),%eax
  10e352:	25 ff ff 00 00       	and    $0xffff,%eax
  10e357:	c1 e0 10             	shl    $0x10,%eax
  10e35a:	09 45 ec             	or     %eax,-0x14(%ebp)
  10e35d:	8a 45 d4             	mov    -0x2c(%ebp),%al
  10e360:	25 ff 00 00 00       	and    $0xff,%eax
  10e365:	83 e0 0f             	and    $0xf,%eax
  10e368:	89 45 e8             	mov    %eax,-0x18(%ebp)
  10e36b:	8a 45 d8             	mov    -0x28(%ebp),%al
  10e36e:	83 c8 80             	or     $0xffffff80,%eax
  10e371:	25 ff 00 00 00       	and    $0xff,%eax
  10e376:	c1 e0 08             	shl    $0x8,%eax
  10e379:	09 45 e8             	or     %eax,-0x18(%ebp)
  10e37c:	8b 45 0c             	mov    0xc(%ebp),%eax
  10e37f:	25 00 00 ff ff       	and    $0xffff0000,%eax
  10e384:	09 45 e8             	or     %eax,-0x18(%ebp)
  10e387:	8b 45 e8             	mov    -0x18(%ebp),%eax
  10e38a:	ba 00 00 00 00       	mov    $0x0,%edx
  10e38f:	89 c2                	mov    %eax,%edx
  10e391:	b8 00 00 00 00       	mov    $0x0,%eax
  10e396:	89 45 c8             	mov    %eax,-0x38(%ebp)
  10e399:	89 55 cc             	mov    %edx,-0x34(%ebp)
  10e39c:	8b 75 ec             	mov    -0x14(%ebp),%esi
  10e39f:	bf 00 00 00 00       	mov    $0x0,%edi
  10e3a4:	8b 45 c8             	mov    -0x38(%ebp),%eax
  10e3a7:	09 f0                	or     %esi,%eax
  10e3a9:	89 c1                	mov    %eax,%ecx
  10e3ab:	8b 45 cc             	mov    -0x34(%ebp),%eax
  10e3ae:	09 f8                	or     %edi,%eax
  10e3b0:	89 c3                	mov    %eax,%ebx
  10e3b2:	8b 45 08             	mov    0x8(%ebp),%eax
  10e3b5:	89 08                	mov    %ecx,(%eax)
  10e3b7:	89 58 04             	mov    %ebx,0x4(%eax)
  10e3ba:	90                   	nop
  10e3bb:	83 c4 2c             	add    $0x2c,%esp
  10e3be:	5b                   	pop    %ebx
  10e3bf:	5e                   	pop    %esi
  10e3c0:	5f                   	pop    %edi
  10e3c1:	5d                   	pop    %ebp
  10e3c2:	c3                   	ret    

0010e3c3 <setup_gdt>:
  10e3c3:	55                   	push   %ebp
  10e3c4:	89 e5                	mov    %esp,%ebp
  10e3c6:	83 ec 18             	sub    $0x18,%esp
  10e3c9:	83 ec 04             	sub    $0x4,%esp
  10e3cc:	68 00 00 01 00       	push   $0x10000
  10e3d1:	6a 00                	push   $0x0
  10e3d3:	68 00 00 01 00       	push   $0x10000
  10e3d8:	e8 4f 12 00 00       	call   10f62c <memset>
  10e3dd:	83 c4 10             	add    $0x10,%esp
  10e3e0:	83 ec 0c             	sub    $0xc,%esp
  10e3e3:	6a 00                	push   $0x0
  10e3e5:	68 89 00 00 00       	push   $0x89
  10e3ea:	6a 67                	push   $0x67
  10e3ec:	68 00 00 02 00       	push   $0x20000
  10e3f1:	68 08 00 01 00       	push   $0x10008
  10e3f6:	e8 72 fe ff ff       	call   10e26d <fill_descriptor>
  10e3fb:	83 c4 20             	add    $0x20,%esp
  10e3fe:	83 ec 0c             	sub    $0xc,%esp
  10e401:	6a 04                	push   $0x4
  10e403:	6a 1a                	push   $0x1a
  10e405:	6a ff                	push   $0xffffffff
  10e407:	6a 00                	push   $0x0
  10e409:	68 10 00 01 00       	push   $0x10010
  10e40e:	e8 5a fe ff ff       	call   10e26d <fill_descriptor>
  10e413:	83 c4 20             	add    $0x20,%esp
  10e416:	83 ec 0c             	sub    $0xc,%esp
  10e419:	6a 04                	push   $0x4
  10e41b:	6a 12                	push   $0x12
  10e41d:	6a ff                	push   $0xffffffff
  10e41f:	6a 00                	push   $0x0
  10e421:	68 18 00 01 00       	push   $0x10018
  10e426:	e8 42 fe ff ff       	call   10e26d <fill_descriptor>
  10e42b:	83 c4 20             	add    $0x20,%esp
  10e42e:	83 ec 0c             	sub    $0xc,%esp
  10e431:	6a 04                	push   $0x4
  10e433:	6a 7a                	push   $0x7a
  10e435:	6a ff                	push   $0xffffffff
  10e437:	6a 00                	push   $0x0
  10e439:	68 40 00 01 00       	push   $0x10040
  10e43e:	e8 2a fe ff ff       	call   10e26d <fill_descriptor>
  10e443:	83 c4 20             	add    $0x20,%esp
  10e446:	83 ec 0c             	sub    $0xc,%esp
  10e449:	6a 04                	push   $0x4
  10e44b:	6a 72                	push   $0x72
  10e44d:	6a ff                	push   $0xffffffff
  10e44f:	6a 00                	push   $0x0
  10e451:	68 48 00 01 00       	push   $0x10048
  10e456:	e8 12 fe ff ff       	call   10e26d <fill_descriptor>
  10e45b:	83 c4 20             	add    $0x20,%esp
  10e45e:	c7 45 f4 00 00 00 00 	movl   $0x0,-0xc(%ebp)
  10e465:	eb 3e                	jmp    10e4a5 <setup_gdt+0xe2>
  10e467:	8b 55 f4             	mov    -0xc(%ebp),%edx
  10e46a:	89 d0                	mov    %edx,%eax
  10e46c:	01 c0                	add    %eax,%eax
  10e46e:	01 d0                	add    %edx,%eax
  10e470:	c1 e0 02             	shl    $0x2,%eax
  10e473:	01 d0                	add    %edx,%eax
  10e475:	c1 e0 03             	shl    $0x3,%eax
  10e478:	8d 90 00 a0 12 00    	lea    0x12a000(%eax),%edx
  10e47e:	8b 45 f4             	mov    -0xc(%ebp),%eax
  10e481:	83 c0 0a             	add    $0xa,%eax
  10e484:	c1 e0 03             	shl    $0x3,%eax
  10e487:	05 00 00 01 00       	add    $0x10000,%eax
  10e48c:	83 ec 0c             	sub    $0xc,%esp
  10e48f:	6a 00                	push   $0x0
  10e491:	68 89 00 00 00       	push   $0x89
  10e496:	6a 67                	push   $0x67
  10e498:	52                   	push   %edx
  10e499:	50                   	push   %eax
  10e49a:	e8 ce fd ff ff       	call   10e26d <fill_descriptor>
  10e49f:	83 c4 20             	add    $0x20,%esp
  10e4a2:	ff 45 f4             	incl   -0xc(%ebp)
  10e4a5:	83 7d f4 1f          	cmpl   $0x1f,-0xc(%ebp)
  10e4a9:	7e bc                	jle    10e467 <setup_gdt+0xa4>
  10e4ab:	66 c7 45 ee ff ff    	movw   $0xffff,-0x12(%ebp)
  10e4b1:	b8 00 00 01 00       	mov    $0x10000,%eax
  10e4b6:	89 45 f0             	mov    %eax,-0x10(%ebp)
  10e4b9:	0f 01 55 ee          	lgdtl  -0x12(%ebp)
  10e4bd:	b8 00 00 00 00       	mov    $0x0,%eax
  10e4c2:	0f 00 d0             	lldt   %ax
  10e4c5:	ea cc e4 10 00 10 00 	ljmp   $0x10,$0x10e4cc
  10e4cc:	b8 18 00 00 00       	mov    $0x18,%eax
  10e4d1:	8e d8                	mov    %eax,%ds
  10e4d3:	b8 18 00 00 00       	mov    $0x18,%eax
  10e4d8:	8e c0                	mov    %eax,%es
  10e4da:	b8 00 00 00 00       	mov    $0x0,%eax
  10e4df:	8e e0                	mov    %eax,%fs
  10e4e1:	b8 00 00 00 00       	mov    $0x0,%eax
  10e4e6:	8e e8                	mov    %eax,%gs
  10e4e8:	b8 18 00 00 00       	mov    $0x18,%eax
  10e4ed:	8e d0                	mov    %eax,%ss
  10e4ef:	90                   	nop
  10e4f0:	89 ec                	mov    %ebp,%esp
  10e4f2:	5d                   	pop    %ebp
  10e4f3:	c3                   	ret    

0010e4f4 <setup_idt>:
  10e4f4:	55                   	push   %ebp
  10e4f5:	89 e5                	mov    %esp,%ebp
  10e4f7:	83 ec 28             	sub    $0x28,%esp
  10e4fa:	83 ec 04             	sub    $0x4,%esp
  10e4fd:	68 00 08 00 00       	push   $0x800
  10e502:	6a 00                	push   $0x0
  10e504:	68 00 10 00 00       	push   $0x1000
  10e509:	e8 1e 11 00 00       	call   10f62c <memset>
  10e50e:	83 c4 10             	add    $0x10,%esp
  10e511:	c7 45 f4 00 00 00 00 	movl   $0x0,-0xc(%ebp)
  10e518:	e9 03 01 00 00       	jmp    10e620 <setup_idt+0x12c>
  10e51d:	8b 55 f4             	mov    -0xc(%ebp),%edx
  10e520:	89 d0                	mov    %edx,%eax
  10e522:	01 c0                	add    %eax,%eax
  10e524:	01 d0                	add    %edx,%eax
  10e526:	c1 e0 02             	shl    $0x2,%eax
  10e529:	01 d0                	add    %edx,%eax
  10e52b:	c1 e0 03             	shl    $0x3,%eax
  10e52e:	05 00 a0 12 00       	add    $0x12a000,%eax
  10e533:	89 45 f0             	mov    %eax,-0x10(%ebp)
  10e536:	8b 45 f0             	mov    -0x10(%ebp),%eax
  10e539:	c7 40 08 18 00 00 00 	movl   $0x18,0x8(%eax)
  10e540:	b8 00 ed 12 00       	mov    $0x12ed00,%eax
  10e545:	89 c2                	mov    %eax,%edx
  10e547:	8b 45 f0             	mov    -0x10(%ebp),%eax
  10e54a:	89 50 04             	mov    %edx,0x4(%eax)
  10e54d:	8b 45 f0             	mov    -0x10(%ebp),%eax
  10e550:	c7 40 50 18 00 00 00 	movl   $0x18,0x50(%eax)
  10e557:	8b 45 f0             	mov    -0x10(%ebp),%eax
  10e55a:	8b 50 04             	mov    0x4(%eax),%edx
  10e55d:	8b 45 f0             	mov    -0x10(%ebp),%eax
  10e560:	89 50 38             	mov    %edx,0x38(%eax)
  10e563:	8b 45 f0             	mov    -0x10(%ebp),%eax
  10e566:	66 c7 40 66 68 00    	movw   $0x68,0x66(%eax)
  10e56c:	8b 45 f0             	mov    -0x10(%ebp),%eax
  10e56f:	c7 40 4c 10 00 00 00 	movl   $0x10,0x4c(%eax)
  10e576:	8b 45 f4             	mov    -0xc(%ebp),%eax
  10e579:	8b 04 85 10 a0 11 00 	mov    0x11a010(,%eax,4),%eax
  10e580:	89 c2                	mov    %eax,%edx
  10e582:	8b 45 f0             	mov    -0x10(%ebp),%eax
  10e585:	89 50 20             	mov    %edx,0x20(%eax)
  10e588:	8b 45 f0             	mov    -0x10(%ebp),%eax
  10e58b:	c7 40 54 18 00 00 00 	movl   $0x18,0x54(%eax)
  10e592:	8b 45 f0             	mov    -0x10(%ebp),%eax
  10e595:	c7 40 48 18 00 00 00 	movl   $0x18,0x48(%eax)
  10e59c:	8b 45 f0             	mov    -0x10(%ebp),%eax
  10e59f:	c7 40 58 00 00 00 00 	movl   $0x0,0x58(%eax)
  10e5a6:	8b 45 f0             	mov    -0x10(%ebp),%eax
  10e5a9:	c7 40 5c 00 00 00 00 	movl   $0x0,0x5c(%eax)
  10e5b0:	8b 45 f0             	mov    -0x10(%ebp),%eax
  10e5b3:	c7 40 24 02 00 00 00 	movl   $0x2,0x24(%eax)
  10e5ba:	8b 45 f0             	mov    -0x10(%ebp),%eax
  10e5bd:	66 c7 40 64 00 00    	movw   $0x0,0x64(%eax)
  10e5c3:	ba 00 10 10 00       	mov    $0x101000,%edx
  10e5c8:	8b 45 f0             	mov    -0x10(%ebp),%eax
  10e5cb:	89 50 1c             	mov    %edx,0x1c(%eax)
  10e5ce:	c7 45 ec 05 00 00 00 	movl   $0x5,-0x14(%ebp)
  10e5d5:	83 7d f4 03          	cmpl   $0x3,-0xc(%ebp)
  10e5d9:	75 07                	jne    10e5e2 <setup_idt+0xee>
  10e5db:	b8 60 00 00 00       	mov    $0x60,%eax
  10e5e0:	eb 05                	jmp    10e5e7 <setup_idt+0xf3>
  10e5e2:	b8 00 00 00 00       	mov    $0x0,%eax
  10e5e7:	01 45 ec             	add    %eax,-0x14(%ebp)
  10e5ea:	8b 45 ec             	mov    -0x14(%ebp),%eax
  10e5ed:	31 d2                	xor    %edx,%edx
  10e5ef:	88 c2                	mov    %al,%dl
  10e5f1:	8b 45 f4             	mov    -0xc(%ebp),%eax
  10e5f4:	83 c0 0a             	add    $0xa,%eax
  10e5f7:	c1 e0 03             	shl    $0x3,%eax
  10e5fa:	25 ff ff 00 00       	and    $0xffff,%eax
  10e5ff:	8b 4d f4             	mov    -0xc(%ebp),%ecx
  10e602:	c1 e1 03             	shl    $0x3,%ecx
  10e605:	81 c1 00 10 00 00    	add    $0x1000,%ecx
  10e60b:	83 ec 0c             	sub    $0xc,%esp
  10e60e:	6a 00                	push   $0x0
  10e610:	52                   	push   %edx
  10e611:	50                   	push   %eax
  10e612:	6a 00                	push   $0x0
  10e614:	51                   	push   %ecx
  10e615:	e8 0a fd ff ff       	call   10e324 <fill_gate>
  10e61a:	83 c4 20             	add    $0x20,%esp
  10e61d:	ff 45 f4             	incl   -0xc(%ebp)
  10e620:	83 7d f4 1f          	cmpl   $0x1f,-0xc(%ebp)
  10e624:	0f 86 f3 fe ff ff    	jbe    10e51d <setup_idt+0x29>
  10e62a:	66 c7 45 e6 ff 07    	movw   $0x7ff,-0x1a(%ebp)
  10e630:	b8 00 10 00 00       	mov    $0x1000,%eax
  10e635:	89 45 e8             	mov    %eax,-0x18(%ebp)
  10e638:	0f 01 5d e6          	lidtl  -0x1a(%ebp)
  10e63c:	90                   	nop
  10e63d:	89 ec                	mov    %ebp,%esp
  10e63f:	5d                   	pop    %ebp
  10e640:	c3                   	ret    

0010e641 <setup_tss>:
  10e641:	55                   	push   %ebp
  10e642:	89 e5                	mov    %esp,%ebp
  10e644:	83 ec 08             	sub    $0x8,%esp
  10e647:	83 ec 04             	sub    $0x4,%esp
  10e64a:	6a 68                	push   $0x68
  10e64c:	6a 00                	push   $0x0
  10e64e:	68 00 00 02 00       	push   $0x20000
  10e653:	e8 d4 0f 00 00       	call   10f62c <memset>
  10e658:	83 c4 10             	add    $0x10,%esp
  10e65b:	c7 05 08 00 02 00 18 	movl   $0x18,0x20008
  10e662:	00 00 00 
  10e665:	b8 80 56 13 00       	mov    $0x135680,%eax
  10e66a:	a3 04 00 02 00       	mov    %eax,0x20004
  10e66f:	66 c7 05 66 00 02 00 	movw   $0x68,0x20066
  10e676:	68 00 
  10e678:	b8 00 10 10 00       	mov    $0x101000,%eax
  10e67d:	a3 1c 00 02 00       	mov    %eax,0x2001c
  10e682:	b8 08 00 00 00       	mov    $0x8,%eax
  10e687:	0f 00 d8             	ltr    %ax
  10e68a:	90                   	nop
  10e68b:	89 ec                	mov    %ebp,%esp
  10e68d:	5d                   	pop    %ebp
  10e68e:	c3                   	ret    

0010e68f <reboot>:
  10e68f:	55                   	push   %ebp
  10e690:	89 e5                	mov    %esp,%ebp
  10e692:	83 ec 18             	sub    $0x18,%esp
  10e695:	83 ec 0c             	sub    $0xc,%esp
  10e698:	6a 00                	push   $0x0
  10e69a:	e8 69 5d 00 00       	call   114408 <gdb_serial_exit>
  10e69f:	83 c4 10             	add    $0x10,%esp
  10e6a2:	66 c7 45 f2 01 00    	movw   $0x1,-0xe(%ebp)
  10e6a8:	b8 00 10 00 00       	mov    $0x1000,%eax
  10e6ad:	89 45 f4             	mov    %eax,-0xc(%ebp)
  10e6b0:	0f 01 5d f2          	lidtl  -0xe(%ebp)
  10e6b4:	cc                   	int3   
  10e6b5:	90                   	nop
  10e6b6:	89 ec                	mov    %ebp,%esp
  10e6b8:	5d                   	pop    %ebp
  10e6b9:	c3                   	ret    

0010e6ba <setup_pic>:
  10e6ba:	55                   	push   %ebp
  10e6bb:	89 e5                	mov    %esp,%ebp
  10e6bd:	6a 20                	push   $0x20
  10e6bf:	6a 11                	push   $0x11
  10e6c1:	e8 88 fb ff ff       	call   10e24e <outb>
  10e6c6:	83 c4 08             	add    $0x8,%esp
  10e6c9:	6a 21                	push   $0x21
  10e6cb:	6a 20                	push   $0x20
  10e6cd:	e8 7c fb ff ff       	call   10e24e <outb>
  10e6d2:	83 c4 08             	add    $0x8,%esp
  10e6d5:	6a 21                	push   $0x21
  10e6d7:	6a 04                	push   $0x4
  10e6d9:	e8 70 fb ff ff       	call   10e24e <outb>
  10e6de:	83 c4 08             	add    $0x8,%esp
  10e6e1:	6a 21                	push   $0x21
  10e6e3:	6a 01                	push   $0x1
  10e6e5:	e8 64 fb ff ff       	call   10e24e <outb>
  10e6ea:	83 c4 08             	add    $0x8,%esp
  10e6ed:	68 a0 00 00 00       	push   $0xa0
  10e6f2:	6a 11                	push   $0x11
  10e6f4:	e8 55 fb ff ff       	call   10e24e <outb>
  10e6f9:	83 c4 08             	add    $0x8,%esp
  10e6fc:	68 a1 00 00 00       	push   $0xa1
  10e701:	6a 28                	push   $0x28
  10e703:	e8 46 fb ff ff       	call   10e24e <outb>
  10e708:	83 c4 08             	add    $0x8,%esp
  10e70b:	68 a1 00 00 00       	push   $0xa1
  10e710:	6a 02                	push   $0x2
  10e712:	e8 37 fb ff ff       	call   10e24e <outb>
  10e717:	83 c4 08             	add    $0x8,%esp
  10e71a:	68 a1 00 00 00       	push   $0xa1
  10e71f:	6a 01                	push   $0x1
  10e721:	e8 28 fb ff ff       	call   10e24e <outb>
  10e726:	83 c4 08             	add    $0x8,%esp
  10e729:	6a 20                	push   $0x20
  10e72b:	6a 20                	push   $0x20
  10e72d:	e8 1c fb ff ff       	call   10e24e <outb>
  10e732:	83 c4 08             	add    $0x8,%esp
  10e735:	68 a0 00 00 00       	push   $0xa0
  10e73a:	6a 20                	push   $0x20
  10e73c:	e8 0d fb ff ff       	call   10e24e <outb>
  10e741:	83 c4 08             	add    $0x8,%esp
  10e744:	6a 21                	push   $0x21
  10e746:	68 ff 00 00 00       	push   $0xff
  10e74b:	e8 fe fa ff ff       	call   10e24e <outb>
  10e750:	83 c4 08             	add    $0x8,%esp
  10e753:	68 a1 00 00 00       	push   $0xa1
  10e758:	68 ff 00 00 00       	push   $0xff
  10e75d:	e8 ec fa ff ff       	call   10e24e <outb>
  10e762:	83 c4 08             	add    $0x8,%esp
  10e765:	90                   	nop
  10e766:	89 ec                	mov    %ebp,%esp
  10e768:	5d                   	pop    %ebp
  10e769:	c3                   	ret    

0010e76a <setup_rodata>:
  10e76a:	55                   	push   %ebp
  10e76b:	89 e5                	mov    %esp,%ebp
  10e76d:	83 ec 10             	sub    $0x10,%esp
  10e770:	b8 00 70 11 00       	mov    $0x117000,%eax
  10e775:	c1 e8 0c             	shr    $0xc,%eax
  10e778:	89 45 fc             	mov    %eax,-0x4(%ebp)
  10e77b:	eb 1c                	jmp    10e799 <setup_rodata+0x2f>
  10e77d:	8b 45 fc             	mov    -0x4(%ebp),%eax
  10e780:	8b 04 85 00 20 10 00 	mov    0x102000(,%eax,4),%eax
  10e787:	83 e0 fd             	and    $0xfffffffd,%eax
  10e78a:	89 c2                	mov    %eax,%edx
  10e78c:	8b 45 fc             	mov    -0x4(%ebp),%eax
  10e78f:	89 14 85 00 20 10 00 	mov    %edx,0x102000(,%eax,4)
  10e796:	ff 45 fc             	incl   -0x4(%ebp)
  10e799:	b8 00 80 11 00       	mov    $0x118000,%eax
  10e79e:	c1 e8 0c             	shr    $0xc,%eax
  10e7a1:	39 45 fc             	cmp    %eax,-0x4(%ebp)
  10e7a4:	72 d7                	jb     10e77d <setup_rodata+0x13>
  10e7a6:	90                   	nop
  10e7a7:	90                   	nop
  10e7a8:	89 ec                	mov    %ebp,%esp
  10e7aa:	5d                   	pop    %ebp
  10e7ab:	c3                   	ret    

0010e7ac <cpu_init>:
  10e7ac:	55                   	push   %ebp
  10e7ad:	89 e5                	mov    %esp,%ebp
  10e7af:	83 ec 08             	sub    $0x8,%esp
  10e7b2:	e8 0c fc ff ff       	call   10e3c3 <setup_gdt>
  10e7b7:	e8 38 fd ff ff       	call   10e4f4 <setup_idt>
  10e7bc:	e8 80 fe ff ff       	call   10e641 <setup_tss>
  10e7c1:	e8 f4 fe ff ff       	call   10e6ba <setup_pic>
  10e7c6:	e8 b1 18 ff ff       	call   10007c <setup_pgtab>
  10e7cb:	90                   	nop
  10e7cc:	89 ec                	mov    %ebp,%esp
  10e7ce:	5d                   	pop    %ebp
  10e7cf:	c3                   	ret    

0010e7d0 <hard_bsr>:
  10e7d0:	55                   	push   %ebp
  10e7d1:	89 e5                	mov    %esp,%ebp
  10e7d3:	83 ec 10             	sub    $0x10,%esp
  10e7d6:	0f bd 45 08          	bsr    0x8(%ebp),%eax
  10e7da:	89 45 fc             	mov    %eax,-0x4(%ebp)
  10e7dd:	8b 45 fc             	mov    -0x4(%ebp),%eax
  10e7e0:	89 ec                	mov    %ebp,%esp
  10e7e2:	5d                   	pop    %ebp
  10e7e3:	c3                   	ret    

0010e7e4 <do_div64>:
  10e7e4:	55                   	push   %ebp
  10e7e5:	89 e5                	mov    %esp,%ebp
  10e7e7:	53                   	push   %ebx
  10e7e8:	83 ec 44             	sub    $0x44,%esp
  10e7eb:	8b 45 08             	mov    0x8(%ebp),%eax
  10e7ee:	89 45 c0             	mov    %eax,-0x40(%ebp)
  10e7f1:	8b 45 0c             	mov    0xc(%ebp),%eax
  10e7f4:	89 45 c4             	mov    %eax,-0x3c(%ebp)
  10e7f7:	8b 45 10             	mov    0x10(%ebp),%eax
  10e7fa:	89 45 b8             	mov    %eax,-0x48(%ebp)
  10e7fd:	8b 45 14             	mov    0x14(%ebp),%eax
  10e800:	89 45 bc             	mov    %eax,-0x44(%ebp)
  10e803:	8b 45 b8             	mov    -0x48(%ebp),%eax
  10e806:	8b 55 bc             	mov    -0x44(%ebp),%edx
  10e809:	89 d0                	mov    %edx,%eax
  10e80b:	31 d2                	xor    %edx,%edx
  10e80d:	89 45 e4             	mov    %eax,-0x1c(%ebp)
  10e810:	8b 45 b8             	mov    -0x48(%ebp),%eax
  10e813:	89 45 e0             	mov    %eax,-0x20(%ebp)
  10e816:	8b 45 c0             	mov    -0x40(%ebp),%eax
  10e819:	8b 55 c4             	mov    -0x3c(%ebp),%edx
  10e81c:	89 d0                	mov    %edx,%eax
  10e81e:	31 d2                	xor    %edx,%edx
  10e820:	89 45 dc             	mov    %eax,-0x24(%ebp)
  10e823:	8b 45 c0             	mov    -0x40(%ebp),%eax
  10e826:	89 45 f4             	mov    %eax,-0xc(%ebp)
  10e829:	83 7d e4 00          	cmpl   $0x0,-0x1c(%ebp)
  10e82d:	0f 84 c7 00 00 00    	je     10e8fa <do_div64+0x116>
  10e833:	ff 75 e4             	push   -0x1c(%ebp)
  10e836:	e8 95 ff ff ff       	call   10e7d0 <hard_bsr>
  10e83b:	83 c4 04             	add    $0x4,%esp
  10e83e:	40                   	inc    %eax
  10e83f:	89 45 d4             	mov    %eax,-0x2c(%ebp)
  10e842:	8b 55 e4             	mov    -0x1c(%ebp),%edx
  10e845:	8b 45 e0             	mov    -0x20(%ebp),%eax
  10e848:	8b 4d d4             	mov    -0x2c(%ebp),%ecx
  10e84b:	0f ad d0             	shrd   %cl,%edx,%eax
  10e84e:	f6 c1 20             	test   $0x20,%cl
  10e851:	74 02                	je     10e855 <do_div64+0x71>
  10e853:	89 d0                	mov    %edx,%eax
  10e855:	89 45 e0             	mov    %eax,-0x20(%ebp)
  10e858:	8b 55 dc             	mov    -0x24(%ebp),%edx
  10e85b:	8b 45 f4             	mov    -0xc(%ebp),%eax
  10e85e:	8b 4d d4             	mov    -0x2c(%ebp),%ecx
  10e861:	0f ad d0             	shrd   %cl,%edx,%eax
  10e864:	d3 ea                	shr    %cl,%edx
  10e866:	f6 c1 20             	test   $0x20,%cl
  10e869:	74 04                	je     10e86f <do_div64+0x8b>
  10e86b:	89 d0                	mov    %edx,%eax
  10e86d:	31 d2                	xor    %edx,%edx
  10e86f:	89 55 dc             	mov    %edx,-0x24(%ebp)
  10e872:	89 45 f4             	mov    %eax,-0xc(%ebp)
  10e875:	8b 45 e0             	mov    -0x20(%ebp),%eax
  10e878:	8d 48 01             	lea    0x1(%eax),%ecx
  10e87b:	8b 55 dc             	mov    -0x24(%ebp),%edx
  10e87e:	8b 45 f4             	mov    -0xc(%ebp),%eax
  10e881:	f7 f1                	div    %ecx
  10e883:	89 55 dc             	mov    %edx,-0x24(%ebp)
  10e886:	89 45 f4             	mov    %eax,-0xc(%ebp)
  10e889:	8b 45 f4             	mov    -0xc(%ebp),%eax
  10e88c:	ba 00 00 00 00       	mov    $0x0,%edx
  10e891:	8b 4d b8             	mov    -0x48(%ebp),%ecx
  10e894:	89 cb                	mov    %ecx,%ebx
  10e896:	0f af da             	imul   %edx,%ebx
  10e899:	8b 4d bc             	mov    -0x44(%ebp),%ecx
  10e89c:	0f af c8             	imul   %eax,%ecx
  10e89f:	01 d9                	add    %ebx,%ecx
  10e8a1:	f7 65 b8             	mull   -0x48(%ebp)
  10e8a4:	01 d1                	add    %edx,%ecx
  10e8a6:	89 ca                	mov    %ecx,%edx
  10e8a8:	8b 4d c0             	mov    -0x40(%ebp),%ecx
  10e8ab:	8b 5d c4             	mov    -0x3c(%ebp),%ebx
  10e8ae:	29 c1                	sub    %eax,%ecx
  10e8b0:	19 d3                	sbb    %edx,%ebx
  10e8b2:	89 4d e8             	mov    %ecx,-0x18(%ebp)
  10e8b5:	89 5d ec             	mov    %ebx,-0x14(%ebp)
  10e8b8:	eb 0f                	jmp    10e8c9 <do_div64+0xe5>
  10e8ba:	ff 45 f4             	incl   -0xc(%ebp)
  10e8bd:	8b 45 b8             	mov    -0x48(%ebp),%eax
  10e8c0:	8b 55 bc             	mov    -0x44(%ebp),%edx
  10e8c3:	29 45 e8             	sub    %eax,-0x18(%ebp)
  10e8c6:	19 55 ec             	sbb    %edx,-0x14(%ebp)
  10e8c9:	8b 45 e8             	mov    -0x18(%ebp),%eax
  10e8cc:	8b 55 ec             	mov    -0x14(%ebp),%edx
  10e8cf:	3b 45 b8             	cmp    -0x48(%ebp),%eax
  10e8d2:	89 d0                	mov    %edx,%eax
  10e8d4:	1b 45 bc             	sbb    -0x44(%ebp),%eax
  10e8d7:	73 e1                	jae    10e8ba <do_div64+0xd6>
  10e8d9:	83 7d 18 00          	cmpl   $0x0,0x18(%ebp)
  10e8dd:	74 0e                	je     10e8ed <do_div64+0x109>
  10e8df:	8b 4d 18             	mov    0x18(%ebp),%ecx
  10e8e2:	8b 45 e8             	mov    -0x18(%ebp),%eax
  10e8e5:	8b 55 ec             	mov    -0x14(%ebp),%edx
  10e8e8:	89 01                	mov    %eax,(%ecx)
  10e8ea:	89 51 04             	mov    %edx,0x4(%ecx)
  10e8ed:	8b 45 f4             	mov    -0xc(%ebp),%eax
  10e8f0:	ba 00 00 00 00       	mov    $0x0,%edx
  10e8f5:	e9 b3 00 00 00       	jmp    10e9ad <do_div64+0x1c9>
  10e8fa:	8b 45 dc             	mov    -0x24(%ebp),%eax
  10e8fd:	3b 45 e0             	cmp    -0x20(%ebp),%eax
  10e900:	73 2f                	jae    10e931 <do_div64+0x14d>
  10e902:	8b 55 dc             	mov    -0x24(%ebp),%edx
  10e905:	8b 45 f4             	mov    -0xc(%ebp),%eax
  10e908:	f7 75 e0             	divl   -0x20(%ebp)
  10e90b:	89 55 dc             	mov    %edx,-0x24(%ebp)
  10e90e:	89 45 f4             	mov    %eax,-0xc(%ebp)
  10e911:	83 7d 18 00          	cmpl   $0x0,0x18(%ebp)
  10e915:	74 10                	je     10e927 <do_div64+0x143>
  10e917:	8b 45 dc             	mov    -0x24(%ebp),%eax
  10e91a:	ba 00 00 00 00       	mov    $0x0,%edx
  10e91f:	8b 4d 18             	mov    0x18(%ebp),%ecx
  10e922:	89 01                	mov    %eax,(%ecx)
  10e924:	89 51 04             	mov    %edx,0x4(%ecx)
  10e927:	8b 45 f4             	mov    -0xc(%ebp),%eax
  10e92a:	ba 00 00 00 00       	mov    $0x0,%edx
  10e92f:	eb 7c                	jmp    10e9ad <do_div64+0x1c9>
  10e931:	83 7d e0 00          	cmpl   $0x0,-0x20(%ebp)
  10e935:	74 58                	je     10e98f <do_div64+0x1ab>
  10e937:	c7 45 d8 00 00 00 00 	movl   $0x0,-0x28(%ebp)
  10e93e:	8b 55 d8             	mov    -0x28(%ebp),%edx
  10e941:	8b 45 dc             	mov    -0x24(%ebp),%eax
  10e944:	f7 75 e0             	divl   -0x20(%ebp)
  10e947:	89 55 d8             	mov    %edx,-0x28(%ebp)
  10e94a:	89 45 dc             	mov    %eax,-0x24(%ebp)
  10e94d:	8b 55 d8             	mov    -0x28(%ebp),%edx
  10e950:	8b 45 f4             	mov    -0xc(%ebp),%eax
  10e953:	f7 75 e0             	divl   -0x20(%ebp)
  10e956:	89 55 d8             	mov    %edx,-0x28(%ebp)
  10e959:	89 45 f4             	mov    %eax,-0xc(%ebp)
  10e95c:	83 7d 18 00          	cmpl   $0x0,0x18(%ebp)
  10e960:	74 10                	je     10e972 <do_div64+0x18e>
  10e962:	8b 45 d8             	mov    -0x28(%ebp),%eax
  10e965:	ba 00 00 00 00       	mov    $0x0,%edx
  10e96a:	8b 4d 18             	mov    0x18(%ebp),%ecx
  10e96d:	89 01                	mov    %eax,(%ecx)
  10e96f:	89 51 04             	mov    %edx,0x4(%ecx)
  10e972:	8b 45 dc             	mov    -0x24(%ebp),%eax
  10e975:	ba 00 00 00 00       	mov    $0x0,%edx
  10e97a:	89 c2                	mov    %eax,%edx
  10e97c:	b8 00 00 00 00       	mov    $0x0,%eax
  10e981:	8b 4d f4             	mov    -0xc(%ebp),%ecx
  10e984:	bb 00 00 00 00       	mov    $0x0,%ebx
  10e989:	01 c8                	add    %ecx,%eax
  10e98b:	11 da                	adc    %ebx,%edx
  10e98d:	eb 1e                	jmp    10e9ad <do_div64+0x1c9>
  10e98f:	83 7d 18 00          	cmpl   $0x0,0x18(%ebp)
  10e993:	74 0e                	je     10e9a3 <do_div64+0x1bf>
  10e995:	8b 4d 18             	mov    0x18(%ebp),%ecx
  10e998:	8b 45 c0             	mov    -0x40(%ebp),%eax
  10e99b:	8b 55 c4             	mov    -0x3c(%ebp),%edx
  10e99e:	89 01                	mov    %eax,(%ecx)
  10e9a0:	89 51 04             	mov    %edx,0x4(%ecx)
  10e9a3:	b8 00 00 00 00       	mov    $0x0,%eax
  10e9a8:	ba 00 00 00 00       	mov    $0x0,%edx
  10e9ad:	8b 5d fc             	mov    -0x4(%ebp),%ebx
  10e9b0:	89 ec                	mov    %ebp,%esp
  10e9b2:	5d                   	pop    %ebp
  10e9b3:	c3                   	ret    

0010e9b4 <printnum>:
  10e9b4:	55                   	push   %ebp
  10e9b5:	89 e5                	mov    %esp,%ebp
  10e9b7:	57                   	push   %edi
  10e9b8:	56                   	push   %esi
  10e9b9:	53                   	push   %ebx
  10e9ba:	83 ec 2c             	sub    $0x2c,%esp
  10e9bd:	8b 4d 08             	mov    0x8(%ebp),%ecx
  10e9c0:	8b 7d 0c             	mov    0xc(%ebp),%edi
  10e9c3:	8d 45 c8             	lea    -0x38(%ebp),%eax
  10e9c6:	8d 58 1f             	lea    0x1f(%eax),%ebx
  10e9c9:	89 fe                	mov    %edi,%esi
  10e9cb:	89 c8                	mov    %ecx,%eax
  10e9cd:	ba 00 00 00 00       	mov    $0x0,%edx
  10e9d2:	f7 f6                	div    %esi
  10e9d4:	89 d8                	mov    %ebx,%eax
  10e9d6:	8d 58 ff             	lea    -0x1(%eax),%ebx
  10e9d9:	8a 92 90 a0 11 00    	mov    0x11a090(%edx),%dl
  10e9df:	88 10                	mov    %dl,(%eax)
  10e9e1:	89 fe                	mov    %edi,%esi
  10e9e3:	89 c8                	mov    %ecx,%eax
  10e9e5:	ba 00 00 00 00       	mov    $0x0,%edx
  10e9ea:	f7 f6                	div    %esi
  10e9ec:	89 c1                	mov    %eax,%ecx
  10e9ee:	85 c9                	test   %ecx,%ecx
  10e9f0:	75 d7                	jne    10e9c9 <printnum+0x15>
  10e9f2:	eb 14                	jmp    10ea08 <printnum+0x54>
  10e9f4:	8a 03                	mov    (%ebx),%al
  10e9f6:	0f be c0             	movsbl %al,%eax
  10e9f9:	83 ec 08             	sub    $0x8,%esp
  10e9fc:	50                   	push   %eax
  10e9fd:	ff 75 14             	push   0x14(%ebp)
  10ea00:	8b 45 10             	mov    0x10(%ebp),%eax
  10ea03:	ff d0                	call   *%eax
  10ea05:	83 c4 10             	add    $0x10,%esp
  10ea08:	43                   	inc    %ebx
  10ea09:	8d 45 c8             	lea    -0x38(%ebp),%eax
  10ea0c:	83 c0 20             	add    $0x20,%eax
  10ea0f:	39 c3                	cmp    %eax,%ebx
  10ea11:	75 e1                	jne    10e9f4 <printnum+0x40>
  10ea13:	90                   	nop
  10ea14:	90                   	nop
  10ea15:	8d 65 f4             	lea    -0xc(%ebp),%esp
  10ea18:	5b                   	pop    %ebx
  10ea19:	5e                   	pop    %esi
  10ea1a:	5f                   	pop    %edi
  10ea1b:	5d                   	pop    %ebp
  10ea1c:	c3                   	ret    

0010ea1d <_doprnt>:
  10ea1d:	55                   	push   %ebp
  10ea1e:	89 e5                	mov    %esp,%ebp
  10ea20:	57                   	push   %edi
  10ea21:	56                   	push   %esi
  10ea22:	53                   	push   %ebx
  10ea23:	83 ec 5c             	sub    $0x5c,%esp
  10ea26:	e9 01 07 00 00       	jmp    10f12c <_doprnt+0x70f>
  10ea2b:	8b 45 08             	mov    0x8(%ebp),%eax
  10ea2e:	8a 00                	mov    (%eax),%al
  10ea30:	3c 25                	cmp    $0x25,%al
  10ea32:	74 22                	je     10ea56 <_doprnt+0x39>
  10ea34:	8b 45 08             	mov    0x8(%ebp),%eax
  10ea37:	8d 50 01             	lea    0x1(%eax),%edx
  10ea3a:	89 55 08             	mov    %edx,0x8(%ebp)
  10ea3d:	8a 00                	mov    (%eax),%al
  10ea3f:	0f be c0             	movsbl %al,%eax
  10ea42:	83 ec 08             	sub    $0x8,%esp
  10ea45:	50                   	push   %eax
  10ea46:	ff 75 18             	push   0x18(%ebp)
  10ea49:	8b 45 14             	mov    0x14(%ebp),%eax
  10ea4c:	ff d0                	call   *%eax
  10ea4e:	83 c4 10             	add    $0x10,%esp
  10ea51:	e9 d6 06 00 00       	jmp    10f12c <_doprnt+0x70f>
  10ea56:	ff 45 08             	incl   0x8(%ebp)
  10ea59:	c7 45 e4 00 00 00 00 	movl   $0x0,-0x1c(%ebp)
  10ea60:	c7 45 e0 ff ff ff ff 	movl   $0xffffffff,-0x20(%ebp)
  10ea67:	c6 45 df 00          	movb   $0x0,-0x21(%ebp)
  10ea6b:	c6 45 de 20          	movb   $0x20,-0x22(%ebp)
  10ea6f:	c7 45 d0 00 00 00 00 	movl   $0x0,-0x30(%ebp)
  10ea76:	c7 45 cc 00 00 00 00 	movl   $0x0,-0x34(%ebp)
  10ea7d:	c6 45 cb 00          	movb   $0x0,-0x35(%ebp)
  10ea81:	8b 45 08             	mov    0x8(%ebp),%eax
  10ea84:	8a 00                	mov    (%eax),%al
  10ea86:	3c 23                	cmp    $0x23,%al
  10ea88:	75 09                	jne    10ea93 <_doprnt+0x76>
  10ea8a:	c6 45 cb 01          	movb   $0x1,-0x35(%ebp)
  10ea8e:	ff 45 08             	incl   0x8(%ebp)
  10ea91:	eb ee                	jmp    10ea81 <_doprnt+0x64>
  10ea93:	8b 45 08             	mov    0x8(%ebp),%eax
  10ea96:	8a 00                	mov    (%eax),%al
  10ea98:	3c 2d                	cmp    $0x2d,%al
  10ea9a:	75 09                	jne    10eaa5 <_doprnt+0x88>
  10ea9c:	c6 45 df 01          	movb   $0x1,-0x21(%ebp)
  10eaa0:	ff 45 08             	incl   0x8(%ebp)
  10eaa3:	eb dc                	jmp    10ea81 <_doprnt+0x64>
  10eaa5:	8b 45 08             	mov    0x8(%ebp),%eax
  10eaa8:	8a 00                	mov    (%eax),%al
  10eaaa:	3c 2b                	cmp    $0x2b,%al
  10eaac:	75 0c                	jne    10eaba <_doprnt+0x9d>
  10eaae:	c7 45 d0 2b 00 00 00 	movl   $0x2b,-0x30(%ebp)
  10eab5:	ff 45 08             	incl   0x8(%ebp)
  10eab8:	eb c7                	jmp    10ea81 <_doprnt+0x64>
  10eaba:	8b 45 08             	mov    0x8(%ebp),%eax
  10eabd:	8a 00                	mov    (%eax),%al
  10eabf:	3c 20                	cmp    $0x20,%al
  10eac1:	75 12                	jne    10ead5 <_doprnt+0xb8>
  10eac3:	83 7d d0 00          	cmpl   $0x0,-0x30(%ebp)
  10eac7:	75 07                	jne    10ead0 <_doprnt+0xb3>
  10eac9:	c7 45 d0 20 00 00 00 	movl   $0x20,-0x30(%ebp)
  10ead0:	ff 45 08             	incl   0x8(%ebp)
  10ead3:	eb ac                	jmp    10ea81 <_doprnt+0x64>
  10ead5:	90                   	nop
  10ead6:	8b 45 08             	mov    0x8(%ebp),%eax
  10ead9:	8a 00                	mov    (%eax),%al
  10eadb:	3c 30                	cmp    $0x30,%al
  10eadd:	75 07                	jne    10eae6 <_doprnt+0xc9>
  10eadf:	c6 45 de 30          	movb   $0x30,-0x22(%ebp)
  10eae3:	ff 45 08             	incl   0x8(%ebp)
  10eae6:	8b 45 08             	mov    0x8(%ebp),%eax
  10eae9:	8a 00                	mov    (%eax),%al
  10eaeb:	3c 2f                	cmp    $0x2f,%al
  10eaed:	7e 43                	jle    10eb32 <_doprnt+0x115>
  10eaef:	8b 45 08             	mov    0x8(%ebp),%eax
  10eaf2:	8a 00                	mov    (%eax),%al
  10eaf4:	3c 39                	cmp    $0x39,%al
  10eaf6:	7f 3a                	jg     10eb32 <_doprnt+0x115>
  10eaf8:	eb 24                	jmp    10eb1e <_doprnt+0x101>
  10eafa:	8b 55 e4             	mov    -0x1c(%ebp),%edx
  10eafd:	89 d0                	mov    %edx,%eax
  10eaff:	c1 e0 02             	shl    $0x2,%eax
  10eb02:	01 d0                	add    %edx,%eax
  10eb04:	01 c0                	add    %eax,%eax
  10eb06:	89 c1                	mov    %eax,%ecx
  10eb08:	8b 45 08             	mov    0x8(%ebp),%eax
  10eb0b:	8d 50 01             	lea    0x1(%eax),%edx
  10eb0e:	89 55 08             	mov    %edx,0x8(%ebp)
  10eb11:	8a 00                	mov    (%eax),%al
  10eb13:	0f be c0             	movsbl %al,%eax
  10eb16:	83 e8 30             	sub    $0x30,%eax
  10eb19:	01 c8                	add    %ecx,%eax
  10eb1b:	89 45 e4             	mov    %eax,-0x1c(%ebp)
  10eb1e:	8b 45 08             	mov    0x8(%ebp),%eax
  10eb21:	8a 00                	mov    (%eax),%al
  10eb23:	3c 2f                	cmp    $0x2f,%al
  10eb25:	7e 3a                	jle    10eb61 <_doprnt+0x144>
  10eb27:	8b 45 08             	mov    0x8(%ebp),%eax
  10eb2a:	8a 00                	mov    (%eax),%al
  10eb2c:	3c 39                	cmp    $0x39,%al
  10eb2e:	7e ca                	jle    10eafa <_doprnt+0xdd>
  10eb30:	eb 2f                	jmp    10eb61 <_doprnt+0x144>
  10eb32:	8b 45 08             	mov    0x8(%ebp),%eax
  10eb35:	8a 00                	mov    (%eax),%al
  10eb37:	3c 2a                	cmp    $0x2a,%al
  10eb39:	75 27                	jne    10eb62 <_doprnt+0x145>
  10eb3b:	8b 45 0c             	mov    0xc(%ebp),%eax
  10eb3e:	8d 50 04             	lea    0x4(%eax),%edx
  10eb41:	89 55 0c             	mov    %edx,0xc(%ebp)
  10eb44:	8b 00                	mov    (%eax),%eax
  10eb46:	89 45 e4             	mov    %eax,-0x1c(%ebp)
  10eb49:	ff 45 08             	incl   0x8(%ebp)
  10eb4c:	83 7d e4 00          	cmpl   $0x0,-0x1c(%ebp)
  10eb50:	79 10                	jns    10eb62 <_doprnt+0x145>
  10eb52:	80 7d df 00          	cmpb   $0x0,-0x21(%ebp)
  10eb56:	0f 94 c0             	sete   %al
  10eb59:	88 45 df             	mov    %al,-0x21(%ebp)
  10eb5c:	f7 5d e4             	negl   -0x1c(%ebp)
  10eb5f:	eb 01                	jmp    10eb62 <_doprnt+0x145>
  10eb61:	90                   	nop
  10eb62:	8b 45 08             	mov    0x8(%ebp),%eax
  10eb65:	8a 00                	mov    (%eax),%al
  10eb67:	3c 2e                	cmp    $0x2e,%al
  10eb69:	75 73                	jne    10ebde <_doprnt+0x1c1>
  10eb6b:	ff 45 08             	incl   0x8(%ebp)
  10eb6e:	8b 45 08             	mov    0x8(%ebp),%eax
  10eb71:	8a 00                	mov    (%eax),%al
  10eb73:	3c 2f                	cmp    $0x2f,%al
  10eb75:	7e 4a                	jle    10ebc1 <_doprnt+0x1a4>
  10eb77:	8b 45 08             	mov    0x8(%ebp),%eax
  10eb7a:	8a 00                	mov    (%eax),%al
  10eb7c:	3c 39                	cmp    $0x39,%al
  10eb7e:	7f 41                	jg     10ebc1 <_doprnt+0x1a4>
  10eb80:	c7 45 e0 00 00 00 00 	movl   $0x0,-0x20(%ebp)
  10eb87:	eb 24                	jmp    10ebad <_doprnt+0x190>
  10eb89:	8b 55 e0             	mov    -0x20(%ebp),%edx
  10eb8c:	89 d0                	mov    %edx,%eax
  10eb8e:	c1 e0 02             	shl    $0x2,%eax
  10eb91:	01 d0                	add    %edx,%eax
  10eb93:	01 c0                	add    %eax,%eax
  10eb95:	89 c1                	mov    %eax,%ecx
  10eb97:	8b 45 08             	mov    0x8(%ebp),%eax
  10eb9a:	8d 50 01             	lea    0x1(%eax),%edx
  10eb9d:	89 55 08             	mov    %edx,0x8(%ebp)
  10eba0:	8a 00                	mov    (%eax),%al
  10eba2:	0f be c0             	movsbl %al,%eax
  10eba5:	83 e8 30             	sub    $0x30,%eax
  10eba8:	01 c8                	add    %ecx,%eax
  10ebaa:	89 45 e0             	mov    %eax,-0x20(%ebp)
  10ebad:	8b 45 08             	mov    0x8(%ebp),%eax
  10ebb0:	8a 00                	mov    (%eax),%al
  10ebb2:	3c 2f                	cmp    $0x2f,%al
  10ebb4:	7e 27                	jle    10ebdd <_doprnt+0x1c0>
  10ebb6:	8b 45 08             	mov    0x8(%ebp),%eax
  10ebb9:	8a 00                	mov    (%eax),%al
  10ebbb:	3c 39                	cmp    $0x39,%al
  10ebbd:	7e ca                	jle    10eb89 <_doprnt+0x16c>
  10ebbf:	eb 1c                	jmp    10ebdd <_doprnt+0x1c0>
  10ebc1:	8b 45 08             	mov    0x8(%ebp),%eax
  10ebc4:	8a 00                	mov    (%eax),%al
  10ebc6:	3c 2a                	cmp    $0x2a,%al
  10ebc8:	75 14                	jne    10ebde <_doprnt+0x1c1>
  10ebca:	8b 45 0c             	mov    0xc(%ebp),%eax
  10ebcd:	8d 50 04             	lea    0x4(%eax),%edx
  10ebd0:	89 55 0c             	mov    %edx,0xc(%ebp)
  10ebd3:	8b 00                	mov    (%eax),%eax
  10ebd5:	89 45 e0             	mov    %eax,-0x20(%ebp)
  10ebd8:	ff 45 08             	incl   0x8(%ebp)
  10ebdb:	eb 01                	jmp    10ebde <_doprnt+0x1c1>
  10ebdd:	90                   	nop
  10ebde:	8b 45 08             	mov    0x8(%ebp),%eax
  10ebe1:	8a 00                	mov    (%eax),%al
  10ebe3:	3c 6c                	cmp    $0x6c,%al
  10ebe5:	75 03                	jne    10ebea <_doprnt+0x1cd>
  10ebe7:	ff 45 08             	incl   0x8(%ebp)
  10ebea:	c6 45 ca 00          	movb   $0x0,-0x36(%ebp)
  10ebee:	8b 45 08             	mov    0x8(%ebp),%eax
  10ebf1:	8a 00                	mov    (%eax),%al
  10ebf3:	0f be c0             	movsbl %al,%eax
  10ebf6:	83 f8 7a             	cmp    $0x7a,%eax
  10ebf9:	0f 87 07 05 00 00    	ja     10f106 <_doprnt+0x6e9>
  10ebff:	8b 04 85 1c 70 11 00 	mov    0x11701c(,%eax,4),%eax
  10ec06:	ff e0                	jmp    *%eax
  10ec08:	8b 45 0c             	mov    0xc(%ebp),%eax
  10ec0b:	8d 50 04             	lea    0x4(%eax),%edx
  10ec0e:	89 55 0c             	mov    %edx,0xc(%ebp)
  10ec11:	8b 00                	mov    (%eax),%eax
  10ec13:	89 45 d4             	mov    %eax,-0x2c(%ebp)
  10ec16:	8b 45 0c             	mov    0xc(%ebp),%eax
  10ec19:	8d 50 04             	lea    0x4(%eax),%edx
  10ec1c:	89 55 0c             	mov    %edx,0xc(%ebp)
  10ec1f:	8b 18                	mov    (%eax),%ebx
  10ec21:	89 d8                	mov    %ebx,%eax
  10ec23:	8d 58 01             	lea    0x1(%eax),%ebx
  10ec26:	8a 00                	mov    (%eax),%al
  10ec28:	0f be c0             	movsbl %al,%eax
  10ec2b:	89 45 c4             	mov    %eax,-0x3c(%ebp)
  10ec2e:	ff 75 18             	push   0x18(%ebp)
  10ec31:	ff 75 14             	push   0x14(%ebp)
  10ec34:	ff 75 c4             	push   -0x3c(%ebp)
  10ec37:	ff 75 d4             	push   -0x2c(%ebp)
  10ec3a:	e8 75 fd ff ff       	call   10e9b4 <printnum>
  10ec3f:	83 c4 10             	add    $0x10,%esp
  10ec42:	83 7d d4 00          	cmpl   $0x0,-0x2c(%ebp)
  10ec46:	0f 84 d3 04 00 00    	je     10f11f <_doprnt+0x702>
  10ec4c:	c6 45 c3 00          	movb   $0x0,-0x3d(%ebp)
  10ec50:	e9 fd 00 00 00       	jmp    10ed52 <_doprnt+0x335>
  10ec55:	8a 03                	mov    (%ebx),%al
  10ec57:	3c 20                	cmp    $0x20,%al
  10ec59:	0f 8f 87 00 00 00    	jg     10ece6 <_doprnt+0x2c9>
  10ec5f:	80 7d c3 00          	cmpb   $0x0,-0x3d(%ebp)
  10ec63:	74 12                	je     10ec77 <_doprnt+0x25a>
  10ec65:	83 ec 08             	sub    $0x8,%esp
  10ec68:	6a 2c                	push   $0x2c
  10ec6a:	ff 75 18             	push   0x18(%ebp)
  10ec6d:	8b 45 14             	mov    0x14(%ebp),%eax
  10ec70:	ff d0                	call   *%eax
  10ec72:	83 c4 10             	add    $0x10,%esp
  10ec75:	eb 14                	jmp    10ec8b <_doprnt+0x26e>
  10ec77:	83 ec 08             	sub    $0x8,%esp
  10ec7a:	6a 3c                	push   $0x3c
  10ec7c:	ff 75 18             	push   0x18(%ebp)
  10ec7f:	8b 45 14             	mov    0x14(%ebp),%eax
  10ec82:	ff d0                	call   *%eax
  10ec84:	83 c4 10             	add    $0x10,%esp
  10ec87:	c6 45 c3 01          	movb   $0x1,-0x3d(%ebp)
  10ec8b:	89 d8                	mov    %ebx,%eax
  10ec8d:	8d 58 01             	lea    0x1(%eax),%ebx
  10ec90:	8a 00                	mov    (%eax),%al
  10ec92:	0f be f8             	movsbl %al,%edi
  10ec95:	eb 14                	jmp    10ecab <_doprnt+0x28e>
  10ec97:	0f be 45 bb          	movsbl -0x45(%ebp),%eax
  10ec9b:	83 ec 08             	sub    $0x8,%esp
  10ec9e:	50                   	push   %eax
  10ec9f:	ff 75 18             	push   0x18(%ebp)
  10eca2:	8b 45 14             	mov    0x14(%ebp),%eax
  10eca5:	ff d0                	call   *%eax
  10eca7:	83 c4 10             	add    $0x10,%esp
  10ecaa:	43                   	inc    %ebx
  10ecab:	8a 03                	mov    (%ebx),%al
  10ecad:	88 45 bb             	mov    %al,-0x45(%ebp)
  10ecb0:	80 7d bb 20          	cmpb   $0x20,-0x45(%ebp)
  10ecb4:	7f e1                	jg     10ec97 <_doprnt+0x27a>
  10ecb6:	8d 47 ff             	lea    -0x1(%edi),%eax
  10ecb9:	8b 55 d4             	mov    -0x2c(%ebp),%edx
  10ecbc:	88 c1                	mov    %al,%cl
  10ecbe:	d3 ea                	shr    %cl,%edx
  10ecc0:	89 f0                	mov    %esi,%eax
  10ecc2:	29 f8                	sub    %edi,%eax
  10ecc4:	be 02 00 00 00       	mov    $0x2,%esi
  10ecc9:	88 c1                	mov    %al,%cl
  10eccb:	d3 e6                	shl    %cl,%esi
  10eccd:	89 f0                	mov    %esi,%eax
  10eccf:	48                   	dec    %eax
  10ecd0:	21 d0                	and    %edx,%eax
  10ecd2:	ff 75 18             	push   0x18(%ebp)
  10ecd5:	ff 75 14             	push   0x14(%ebp)
  10ecd8:	ff 75 c4             	push   -0x3c(%ebp)
  10ecdb:	50                   	push   %eax
  10ecdc:	e8 d3 fc ff ff       	call   10e9b4 <printnum>
  10ece1:	83 c4 10             	add    $0x10,%esp
  10ece4:	eb 6c                	jmp    10ed52 <_doprnt+0x335>
  10ece6:	8d 46 ff             	lea    -0x1(%esi),%eax
  10ece9:	ba 01 00 00 00       	mov    $0x1,%edx
  10ecee:	88 c1                	mov    %al,%cl
  10ecf0:	d3 e2                	shl    %cl,%edx
  10ecf2:	89 d0                	mov    %edx,%eax
  10ecf4:	23 45 d4             	and    -0x2c(%ebp),%eax
  10ecf7:	85 c0                	test   %eax,%eax
  10ecf9:	74 51                	je     10ed4c <_doprnt+0x32f>
  10ecfb:	80 7d c3 00          	cmpb   $0x0,-0x3d(%ebp)
  10ecff:	74 12                	je     10ed13 <_doprnt+0x2f6>
  10ed01:	83 ec 08             	sub    $0x8,%esp
  10ed04:	6a 2c                	push   $0x2c
  10ed06:	ff 75 18             	push   0x18(%ebp)
  10ed09:	8b 45 14             	mov    0x14(%ebp),%eax
  10ed0c:	ff d0                	call   *%eax
  10ed0e:	83 c4 10             	add    $0x10,%esp
  10ed11:	eb 2a                	jmp    10ed3d <_doprnt+0x320>
  10ed13:	83 ec 08             	sub    $0x8,%esp
  10ed16:	6a 3c                	push   $0x3c
  10ed18:	ff 75 18             	push   0x18(%ebp)
  10ed1b:	8b 45 14             	mov    0x14(%ebp),%eax
  10ed1e:	ff d0                	call   *%eax
  10ed20:	83 c4 10             	add    $0x10,%esp
  10ed23:	c6 45 c3 01          	movb   $0x1,-0x3d(%ebp)
  10ed27:	eb 14                	jmp    10ed3d <_doprnt+0x320>
  10ed29:	0f be 45 bb          	movsbl -0x45(%ebp),%eax
  10ed2d:	83 ec 08             	sub    $0x8,%esp
  10ed30:	50                   	push   %eax
  10ed31:	ff 75 18             	push   0x18(%ebp)
  10ed34:	8b 45 14             	mov    0x14(%ebp),%eax
  10ed37:	ff d0                	call   *%eax
  10ed39:	83 c4 10             	add    $0x10,%esp
  10ed3c:	43                   	inc    %ebx
  10ed3d:	8a 03                	mov    (%ebx),%al
  10ed3f:	88 45 bb             	mov    %al,-0x45(%ebp)
  10ed42:	80 7d bb 20          	cmpb   $0x20,-0x45(%ebp)
  10ed46:	7f e1                	jg     10ed29 <_doprnt+0x30c>
  10ed48:	eb 08                	jmp    10ed52 <_doprnt+0x335>
  10ed4a:	90                   	nop
  10ed4b:	43                   	inc    %ebx
  10ed4c:	8a 03                	mov    (%ebx),%al
  10ed4e:	3c 20                	cmp    $0x20,%al
  10ed50:	7f f8                	jg     10ed4a <_doprnt+0x32d>
  10ed52:	89 d8                	mov    %ebx,%eax
  10ed54:	8d 58 01             	lea    0x1(%eax),%ebx
  10ed57:	8a 00                	mov    (%eax),%al
  10ed59:	0f be f0             	movsbl %al,%esi
  10ed5c:	85 f6                	test   %esi,%esi
  10ed5e:	0f 85 f1 fe ff ff    	jne    10ec55 <_doprnt+0x238>
  10ed64:	80 7d c3 00          	cmpb   $0x0,-0x3d(%ebp)
  10ed68:	0f 84 b4 03 00 00    	je     10f122 <_doprnt+0x705>
  10ed6e:	83 ec 08             	sub    $0x8,%esp
  10ed71:	6a 3e                	push   $0x3e
  10ed73:	ff 75 18             	push   0x18(%ebp)
  10ed76:	8b 45 14             	mov    0x14(%ebp),%eax
  10ed79:	ff d0                	call   *%eax
  10ed7b:	83 c4 10             	add    $0x10,%esp
  10ed7e:	e9 9f 03 00 00       	jmp    10f122 <_doprnt+0x705>
  10ed83:	8b 45 0c             	mov    0xc(%ebp),%eax
  10ed86:	8d 50 04             	lea    0x4(%eax),%edx
  10ed89:	89 55 0c             	mov    %edx,0xc(%ebp)
  10ed8c:	8b 00                	mov    (%eax),%eax
  10ed8e:	88 45 bb             	mov    %al,-0x45(%ebp)
  10ed91:	0f be 45 bb          	movsbl -0x45(%ebp),%eax
  10ed95:	83 ec 08             	sub    $0x8,%esp
  10ed98:	50                   	push   %eax
  10ed99:	ff 75 18             	push   0x18(%ebp)
  10ed9c:	8b 45 14             	mov    0x14(%ebp),%eax
  10ed9f:	ff d0                	call   *%eax
  10eda1:	83 c4 10             	add    $0x10,%esp
  10eda4:	e9 80 03 00 00       	jmp    10f129 <_doprnt+0x70c>
  10eda9:	83 7d e0 ff          	cmpl   $0xffffffff,-0x20(%ebp)
  10edad:	75 07                	jne    10edb6 <_doprnt+0x399>
  10edaf:	c7 45 e0 ff ff ff 7f 	movl   $0x7fffffff,-0x20(%ebp)
  10edb6:	8b 45 0c             	mov    0xc(%ebp),%eax
  10edb9:	8d 50 04             	lea    0x4(%eax),%edx
  10edbc:	89 55 0c             	mov    %edx,0xc(%ebp)
  10edbf:	8b 18                	mov    (%eax),%ebx
  10edc1:	85 db                	test   %ebx,%ebx
  10edc3:	75 05                	jne    10edca <_doprnt+0x3ad>
  10edc5:	bb 14 70 11 00       	mov    $0x117014,%ebx
  10edca:	83 7d e4 00          	cmpl   $0x0,-0x1c(%ebp)
  10edce:	7e 42                	jle    10ee12 <_doprnt+0x3f5>
  10edd0:	80 7d df 00          	cmpb   $0x0,-0x21(%ebp)
  10edd4:	75 3c                	jne    10ee12 <_doprnt+0x3f5>
  10edd6:	c7 45 d8 00 00 00 00 	movl   $0x0,-0x28(%ebp)
  10eddd:	89 de                	mov    %ebx,%esi
  10eddf:	eb 04                	jmp    10ede5 <_doprnt+0x3c8>
  10ede1:	ff 45 d8             	incl   -0x28(%ebp)
  10ede4:	43                   	inc    %ebx
  10ede5:	8a 03                	mov    (%ebx),%al
  10ede7:	84 c0                	test   %al,%al
  10ede9:	74 08                	je     10edf3 <_doprnt+0x3d6>
  10edeb:	8b 45 d8             	mov    -0x28(%ebp),%eax
  10edee:	3b 45 e0             	cmp    -0x20(%ebp),%eax
  10edf1:	7c ee                	jl     10ede1 <_doprnt+0x3c4>
  10edf3:	89 f3                	mov    %esi,%ebx
  10edf5:	eb 13                	jmp    10ee0a <_doprnt+0x3ed>
  10edf7:	83 ec 08             	sub    $0x8,%esp
  10edfa:	6a 20                	push   $0x20
  10edfc:	ff 75 18             	push   0x18(%ebp)
  10edff:	8b 45 14             	mov    0x14(%ebp),%eax
  10ee02:	ff d0                	call   *%eax
  10ee04:	83 c4 10             	add    $0x10,%esp
  10ee07:	ff 45 d8             	incl   -0x28(%ebp)
  10ee0a:	8b 45 d8             	mov    -0x28(%ebp),%eax
  10ee0d:	3b 45 e4             	cmp    -0x1c(%ebp),%eax
  10ee10:	7c e5                	jl     10edf7 <_doprnt+0x3da>
  10ee12:	c7 45 d8 00 00 00 00 	movl   $0x0,-0x28(%ebp)
  10ee19:	eb 24                	jmp    10ee3f <_doprnt+0x422>
  10ee1b:	ff 45 d8             	incl   -0x28(%ebp)
  10ee1e:	8b 45 d8             	mov    -0x28(%ebp),%eax
  10ee21:	3b 45 e0             	cmp    -0x20(%ebp),%eax
  10ee24:	7f 21                	jg     10ee47 <_doprnt+0x42a>
  10ee26:	89 d8                	mov    %ebx,%eax
  10ee28:	8d 58 01             	lea    0x1(%eax),%ebx
  10ee2b:	8a 00                	mov    (%eax),%al
  10ee2d:	0f be c0             	movsbl %al,%eax
  10ee30:	83 ec 08             	sub    $0x8,%esp
  10ee33:	50                   	push   %eax
  10ee34:	ff 75 18             	push   0x18(%ebp)
  10ee37:	8b 45 14             	mov    0x14(%ebp),%eax
  10ee3a:	ff d0                	call   *%eax
  10ee3c:	83 c4 10             	add    $0x10,%esp
  10ee3f:	8a 03                	mov    (%ebx),%al
  10ee41:	84 c0                	test   %al,%al
  10ee43:	75 d6                	jne    10ee1b <_doprnt+0x3fe>
  10ee45:	eb 01                	jmp    10ee48 <_doprnt+0x42b>
  10ee47:	90                   	nop
  10ee48:	8b 45 d8             	mov    -0x28(%ebp),%eax
  10ee4b:	3b 45 e4             	cmp    -0x1c(%ebp),%eax
  10ee4e:	0f 8d d1 02 00 00    	jge    10f125 <_doprnt+0x708>
  10ee54:	80 7d df 00          	cmpb   $0x0,-0x21(%ebp)
  10ee58:	0f 84 c7 02 00 00    	je     10f125 <_doprnt+0x708>
  10ee5e:	eb 13                	jmp    10ee73 <_doprnt+0x456>
  10ee60:	83 ec 08             	sub    $0x8,%esp
  10ee63:	6a 20                	push   $0x20
  10ee65:	ff 75 18             	push   0x18(%ebp)
  10ee68:	8b 45 14             	mov    0x14(%ebp),%eax
  10ee6b:	ff d0                	call   *%eax
  10ee6d:	83 c4 10             	add    $0x10,%esp
  10ee70:	ff 45 d8             	incl   -0x28(%ebp)
  10ee73:	8b 45 d8             	mov    -0x28(%ebp),%eax
  10ee76:	3b 45 e4             	cmp    -0x1c(%ebp),%eax
  10ee79:	7c e5                	jl     10ee60 <_doprnt+0x443>
  10ee7b:	e9 a5 02 00 00       	jmp    10f125 <_doprnt+0x708>
  10ee80:	a0 00 ed 12 00       	mov    0x12ed00,%al
  10ee85:	88 45 ca             	mov    %al,-0x36(%ebp)
  10ee88:	c7 45 c4 08 00 00 00 	movl   $0x8,-0x3c(%ebp)
  10ee8f:	e9 c8 00 00 00       	jmp    10ef5c <_doprnt+0x53f>
  10ee94:	a0 00 ed 12 00       	mov    0x12ed00,%al
  10ee99:	88 45 ca             	mov    %al,-0x36(%ebp)
  10ee9c:	c7 45 c4 0a 00 00 00 	movl   $0xa,-0x3c(%ebp)
  10eea3:	e9 81 00 00 00       	jmp    10ef29 <_doprnt+0x50c>
  10eea8:	a0 00 ed 12 00       	mov    0x12ed00,%al
  10eead:	88 45 ca             	mov    %al,-0x36(%ebp)
  10eeb0:	c7 45 c4 0a 00 00 00 	movl   $0xa,-0x3c(%ebp)
  10eeb7:	e9 a0 00 00 00       	jmp    10ef5c <_doprnt+0x53f>
  10eebc:	c6 45 de 30          	movb   $0x30,-0x22(%ebp)
  10eec0:	c7 45 e4 08 00 00 00 	movl   $0x8,-0x1c(%ebp)
  10eec7:	83 ec 08             	sub    $0x8,%esp
  10eeca:	6a 30                	push   $0x30
  10eecc:	ff 75 18             	push   0x18(%ebp)
  10eecf:	8b 45 14             	mov    0x14(%ebp),%eax
  10eed2:	ff d0                	call   *%eax
  10eed4:	83 c4 10             	add    $0x10,%esp
  10eed7:	83 ec 08             	sub    $0x8,%esp
  10eeda:	6a 78                	push   $0x78
  10eedc:	ff 75 18             	push   0x18(%ebp)
  10eedf:	8b 45 14             	mov    0x14(%ebp),%eax
  10eee2:	ff d0                	call   *%eax
  10eee4:	83 c4 10             	add    $0x10,%esp
  10eee7:	a0 00 ed 12 00       	mov    0x12ed00,%al
  10eeec:	88 45 ca             	mov    %al,-0x36(%ebp)
  10eeef:	c7 45 c4 10 00 00 00 	movl   $0x10,-0x3c(%ebp)
  10eef6:	eb 64                	jmp    10ef5c <_doprnt+0x53f>
  10eef8:	a0 00 ed 12 00       	mov    0x12ed00,%al
  10eefd:	88 45 ca             	mov    %al,-0x36(%ebp)
  10ef00:	c7 45 c4 10 00 00 00 	movl   $0x10,-0x3c(%ebp)
  10ef07:	eb 20                	jmp    10ef29 <_doprnt+0x50c>
  10ef09:	a0 00 ed 12 00       	mov    0x12ed00,%al
  10ef0e:	88 45 ca             	mov    %al,-0x36(%ebp)
  10ef11:	8b 45 10             	mov    0x10(%ebp),%eax
  10ef14:	89 45 c4             	mov    %eax,-0x3c(%ebp)
  10ef17:	eb 10                	jmp    10ef29 <_doprnt+0x50c>
  10ef19:	a0 00 ed 12 00       	mov    0x12ed00,%al
  10ef1e:	88 45 ca             	mov    %al,-0x36(%ebp)
  10ef21:	8b 45 10             	mov    0x10(%ebp),%eax
  10ef24:	89 45 c4             	mov    %eax,-0x3c(%ebp)
  10ef27:	eb 33                	jmp    10ef5c <_doprnt+0x53f>
  10ef29:	8b 45 0c             	mov    0xc(%ebp),%eax
  10ef2c:	8d 50 04             	lea    0x4(%eax),%edx
  10ef2f:	89 55 0c             	mov    %edx,0xc(%ebp)
  10ef32:	8b 00                	mov    (%eax),%eax
  10ef34:	89 45 d8             	mov    %eax,-0x28(%ebp)
  10ef37:	83 7d d8 00          	cmpl   $0x0,-0x28(%ebp)
  10ef3b:	78 0e                	js     10ef4b <_doprnt+0x52e>
  10ef3d:	8b 45 d8             	mov    -0x28(%ebp),%eax
  10ef40:	89 45 d4             	mov    %eax,-0x2c(%ebp)
  10ef43:	8b 45 d0             	mov    -0x30(%ebp),%eax
  10ef46:	89 45 cc             	mov    %eax,-0x34(%ebp)
  10ef49:	eb 20                	jmp    10ef6b <_doprnt+0x54e>
  10ef4b:	8b 45 d8             	mov    -0x28(%ebp),%eax
  10ef4e:	f7 d8                	neg    %eax
  10ef50:	89 45 d4             	mov    %eax,-0x2c(%ebp)
  10ef53:	c7 45 cc 2d 00 00 00 	movl   $0x2d,-0x34(%ebp)
  10ef5a:	eb 0f                	jmp    10ef6b <_doprnt+0x54e>
  10ef5c:	8b 45 0c             	mov    0xc(%ebp),%eax
  10ef5f:	8d 50 04             	lea    0x4(%eax),%edx
  10ef62:	89 55 0c             	mov    %edx,0xc(%ebp)
  10ef65:	8b 00                	mov    (%eax),%eax
  10ef67:	89 45 d4             	mov    %eax,-0x2c(%ebp)
  10ef6a:	90                   	nop
  10ef6b:	8d 45 9b             	lea    -0x65(%ebp),%eax
  10ef6e:	8d 58 1f             	lea    0x1f(%eax),%ebx
  10ef71:	c7 45 bc 00 00 00 00 	movl   $0x0,-0x44(%ebp)
  10ef78:	80 7d ca 00          	cmpb   $0x0,-0x36(%ebp)
  10ef7c:	83 7d d4 00          	cmpl   $0x0,-0x2c(%ebp)
  10ef80:	74 22                	je     10efa4 <_doprnt+0x587>
  10ef82:	80 7d cb 00          	cmpb   $0x0,-0x35(%ebp)
  10ef86:	74 1c                	je     10efa4 <_doprnt+0x587>
  10ef88:	83 7d c4 08          	cmpl   $0x8,-0x3c(%ebp)
  10ef8c:	75 09                	jne    10ef97 <_doprnt+0x57a>
  10ef8e:	c7 45 bc 15 70 11 00 	movl   $0x117015,-0x44(%ebp)
  10ef95:	eb 0d                	jmp    10efa4 <_doprnt+0x587>
  10ef97:	83 7d c4 10          	cmpl   $0x10,-0x3c(%ebp)
  10ef9b:	75 07                	jne    10efa4 <_doprnt+0x587>
  10ef9d:	c7 45 bc 17 70 11 00 	movl   $0x117017,-0x44(%ebp)
  10efa4:	8b 4d c4             	mov    -0x3c(%ebp),%ecx
  10efa7:	8b 45 d4             	mov    -0x2c(%ebp),%eax
  10efaa:	ba 00 00 00 00       	mov    $0x0,%edx
  10efaf:	f7 f1                	div    %ecx
  10efb1:	89 d8                	mov    %ebx,%eax
  10efb3:	8d 58 ff             	lea    -0x1(%eax),%ebx
  10efb6:	8a 92 a4 a0 11 00    	mov    0x11a0a4(%edx),%dl
  10efbc:	88 10                	mov    %dl,(%eax)
  10efbe:	8b 7d c4             	mov    -0x3c(%ebp),%edi
  10efc1:	8b 45 d4             	mov    -0x2c(%ebp),%eax
  10efc4:	ba 00 00 00 00       	mov    $0x0,%edx
  10efc9:	f7 f7                	div    %edi
  10efcb:	89 45 d4             	mov    %eax,-0x2c(%ebp)
  10efce:	ff 4d e0             	decl   -0x20(%ebp)
  10efd1:	83 7d d4 00          	cmpl   $0x0,-0x2c(%ebp)
  10efd5:	75 cd                	jne    10efa4 <_doprnt+0x587>
  10efd7:	8d 45 9b             	lea    -0x65(%ebp),%eax
  10efda:	83 c0 1f             	add    $0x1f,%eax
  10efdd:	29 d8                	sub    %ebx,%eax
  10efdf:	29 45 e4             	sub    %eax,-0x1c(%ebp)
  10efe2:	83 7d cc 00          	cmpl   $0x0,-0x34(%ebp)
  10efe6:	74 03                	je     10efeb <_doprnt+0x5ce>
  10efe8:	ff 4d e4             	decl   -0x1c(%ebp)
  10efeb:	83 7d bc 00          	cmpl   $0x0,-0x44(%ebp)
  10efef:	74 18                	je     10f009 <_doprnt+0x5ec>
  10eff1:	8b 75 e4             	mov    -0x1c(%ebp),%esi
  10eff4:	83 ec 0c             	sub    $0xc,%esp
  10eff7:	ff 75 bc             	push   -0x44(%ebp)
  10effa:	e8 8c 09 00 00       	call   10f98b <strlen>
  10efff:	83 c4 10             	add    $0x10,%esp
  10f002:	29 c6                	sub    %eax,%esi
  10f004:	89 f2                	mov    %esi,%edx
  10f006:	89 55 e4             	mov    %edx,-0x1c(%ebp)
  10f009:	83 7d e0 00          	cmpl   $0x0,-0x20(%ebp)
  10f00d:	7e 06                	jle    10f015 <_doprnt+0x5f8>
  10f00f:	8b 45 e0             	mov    -0x20(%ebp),%eax
  10f012:	29 45 e4             	sub    %eax,-0x1c(%ebp)
  10f015:	80 7d de 20          	cmpb   $0x20,-0x22(%ebp)
  10f019:	75 21                	jne    10f03c <_doprnt+0x61f>
  10f01b:	80 7d df 00          	cmpb   $0x0,-0x21(%ebp)
  10f01f:	75 1b                	jne    10f03c <_doprnt+0x61f>
  10f021:	eb 10                	jmp    10f033 <_doprnt+0x616>
  10f023:	83 ec 08             	sub    $0x8,%esp
  10f026:	6a 20                	push   $0x20
  10f028:	ff 75 18             	push   0x18(%ebp)
  10f02b:	8b 45 14             	mov    0x14(%ebp),%eax
  10f02e:	ff d0                	call   *%eax
  10f030:	83 c4 10             	add    $0x10,%esp
  10f033:	ff 4d e4             	decl   -0x1c(%ebp)
  10f036:	83 7d e4 00          	cmpl   $0x0,-0x1c(%ebp)
  10f03a:	79 e7                	jns    10f023 <_doprnt+0x606>
  10f03c:	83 7d cc 00          	cmpl   $0x0,-0x34(%ebp)
  10f040:	74 11                	je     10f053 <_doprnt+0x636>
  10f042:	83 ec 08             	sub    $0x8,%esp
  10f045:	ff 75 cc             	push   -0x34(%ebp)
  10f048:	ff 75 18             	push   0x18(%ebp)
  10f04b:	8b 45 14             	mov    0x14(%ebp),%eax
  10f04e:	ff d0                	call   *%eax
  10f050:	83 c4 10             	add    $0x10,%esp
  10f053:	83 7d bc 00          	cmpl   $0x0,-0x44(%ebp)
  10f057:	74 3a                	je     10f093 <_doprnt+0x676>
  10f059:	eb 1d                	jmp    10f078 <_doprnt+0x65b>
  10f05b:	8b 45 bc             	mov    -0x44(%ebp),%eax
  10f05e:	8d 50 01             	lea    0x1(%eax),%edx
  10f061:	89 55 bc             	mov    %edx,-0x44(%ebp)
  10f064:	8a 00                	mov    (%eax),%al
  10f066:	0f be c0             	movsbl %al,%eax
  10f069:	83 ec 08             	sub    $0x8,%esp
  10f06c:	50                   	push   %eax
  10f06d:	ff 75 18             	push   0x18(%ebp)
  10f070:	8b 45 14             	mov    0x14(%ebp),%eax
  10f073:	ff d0                	call   *%eax
  10f075:	83 c4 10             	add    $0x10,%esp
  10f078:	8b 45 bc             	mov    -0x44(%ebp),%eax
  10f07b:	8a 00                	mov    (%eax),%al
  10f07d:	84 c0                	test   %al,%al
  10f07f:	75 da                	jne    10f05b <_doprnt+0x63e>
  10f081:	eb 10                	jmp    10f093 <_doprnt+0x676>
  10f083:	83 ec 08             	sub    $0x8,%esp
  10f086:	6a 30                	push   $0x30
  10f088:	ff 75 18             	push   0x18(%ebp)
  10f08b:	8b 45 14             	mov    0x14(%ebp),%eax
  10f08e:	ff d0                	call   *%eax
  10f090:	83 c4 10             	add    $0x10,%esp
  10f093:	ff 4d e0             	decl   -0x20(%ebp)
  10f096:	83 7d e0 00          	cmpl   $0x0,-0x20(%ebp)
  10f09a:	79 e7                	jns    10f083 <_doprnt+0x666>
  10f09c:	80 7d de 30          	cmpb   $0x30,-0x22(%ebp)
  10f0a0:	75 31                	jne    10f0d3 <_doprnt+0x6b6>
  10f0a2:	eb 10                	jmp    10f0b4 <_doprnt+0x697>
  10f0a4:	83 ec 08             	sub    $0x8,%esp
  10f0a7:	6a 30                	push   $0x30
  10f0a9:	ff 75 18             	push   0x18(%ebp)
  10f0ac:	8b 45 14             	mov    0x14(%ebp),%eax
  10f0af:	ff d0                	call   *%eax
  10f0b1:	83 c4 10             	add    $0x10,%esp
  10f0b4:	ff 4d e4             	decl   -0x1c(%ebp)
  10f0b7:	83 7d e4 00          	cmpl   $0x0,-0x1c(%ebp)
  10f0bb:	79 e7                	jns    10f0a4 <_doprnt+0x687>
  10f0bd:	eb 14                	jmp    10f0d3 <_doprnt+0x6b6>
  10f0bf:	8a 03                	mov    (%ebx),%al
  10f0c1:	0f be c0             	movsbl %al,%eax
  10f0c4:	83 ec 08             	sub    $0x8,%esp
  10f0c7:	50                   	push   %eax
  10f0c8:	ff 75 18             	push   0x18(%ebp)
  10f0cb:	8b 45 14             	mov    0x14(%ebp),%eax
  10f0ce:	ff d0                	call   *%eax
  10f0d0:	83 c4 10             	add    $0x10,%esp
  10f0d3:	43                   	inc    %ebx
  10f0d4:	8d 45 9b             	lea    -0x65(%ebp),%eax
  10f0d7:	83 c0 20             	add    $0x20,%eax
  10f0da:	39 c3                	cmp    %eax,%ebx
  10f0dc:	75 e1                	jne    10f0bf <_doprnt+0x6a2>
  10f0de:	80 7d df 00          	cmpb   $0x0,-0x21(%ebp)
  10f0e2:	74 44                	je     10f128 <_doprnt+0x70b>
  10f0e4:	eb 10                	jmp    10f0f6 <_doprnt+0x6d9>
  10f0e6:	83 ec 08             	sub    $0x8,%esp
  10f0e9:	6a 20                	push   $0x20
  10f0eb:	ff 75 18             	push   0x18(%ebp)
  10f0ee:	8b 45 14             	mov    0x14(%ebp),%eax
  10f0f1:	ff d0                	call   *%eax
  10f0f3:	83 c4 10             	add    $0x10,%esp
  10f0f6:	ff 4d e4             	decl   -0x1c(%ebp)
  10f0f9:	83 7d e4 00          	cmpl   $0x0,-0x1c(%ebp)
  10f0fd:	79 e7                	jns    10f0e6 <_doprnt+0x6c9>
  10f0ff:	eb 27                	jmp    10f128 <_doprnt+0x70b>
  10f101:	ff 4d 08             	decl   0x8(%ebp)
  10f104:	eb 23                	jmp    10f129 <_doprnt+0x70c>
  10f106:	8b 45 08             	mov    0x8(%ebp),%eax
  10f109:	8a 00                	mov    (%eax),%al
  10f10b:	0f be c0             	movsbl %al,%eax
  10f10e:	83 ec 08             	sub    $0x8,%esp
  10f111:	50                   	push   %eax
  10f112:	ff 75 18             	push   0x18(%ebp)
  10f115:	8b 45 14             	mov    0x14(%ebp),%eax
  10f118:	ff d0                	call   *%eax
  10f11a:	83 c4 10             	add    $0x10,%esp
  10f11d:	eb 0a                	jmp    10f129 <_doprnt+0x70c>
  10f11f:	90                   	nop
  10f120:	eb 07                	jmp    10f129 <_doprnt+0x70c>
  10f122:	90                   	nop
  10f123:	eb 04                	jmp    10f129 <_doprnt+0x70c>
  10f125:	90                   	nop
  10f126:	eb 01                	jmp    10f129 <_doprnt+0x70c>
  10f128:	90                   	nop
  10f129:	ff 45 08             	incl   0x8(%ebp)
  10f12c:	8b 45 08             	mov    0x8(%ebp),%eax
  10f12f:	8a 00                	mov    (%eax),%al
  10f131:	84 c0                	test   %al,%al
  10f133:	0f 85 f2 f8 ff ff    	jne    10ea2b <_doprnt+0xe>
  10f139:	90                   	nop
  10f13a:	90                   	nop
  10f13b:	8d 65 f4             	lea    -0xc(%ebp),%esp
  10f13e:	5b                   	pop    %ebx
  10f13f:	5e                   	pop    %esi
  10f140:	5f                   	pop    %edi
  10f141:	5d                   	pop    %ebp
  10f142:	c3                   	ret    

0010f143 <panic>:
  10f143:	55                   	push   %ebp
  10f144:	89 e5                	mov    %esp,%ebp
  10f146:	83 ec 18             	sub    $0x18,%esp
  10f149:	83 ec 0c             	sub    $0xc,%esp
  10f14c:	68 08 72 11 00       	push   $0x117208
  10f151:	e8 29 01 00 00       	call   10f27f <printf>
  10f156:	83 c4 10             	add    $0x10,%esp
  10f159:	8d 45 0c             	lea    0xc(%ebp),%eax
  10f15c:	89 45 f4             	mov    %eax,-0xc(%ebp)
  10f15f:	8b 45 f4             	mov    -0xc(%ebp),%eax
  10f162:	83 ec 08             	sub    $0x8,%esp
  10f165:	50                   	push   %eax
  10f166:	ff 75 08             	push   0x8(%ebp)
  10f169:	e8 c0 00 00 00       	call   10f22e <vprintf>
  10f16e:	83 c4 10             	add    $0x10,%esp
  10f171:	b8 00 00 00 00       	mov    $0x0,%eax
  10f176:	c6 00 01             	movb   $0x1,(%eax)
  10f179:	eb fe                	jmp    10f179 <panic+0x36>

0010f17b <flush>:
  10f17b:	55                   	push   %ebp
  10f17c:	89 e5                	mov    %esp,%ebp
  10f17e:	83 ec 08             	sub    $0x8,%esp
  10f181:	8b 45 08             	mov    0x8(%ebp),%eax
  10f184:	8b 80 80 00 00 00    	mov    0x80(%eax),%eax
  10f18a:	89 c2                	mov    %eax,%edx
  10f18c:	8b 45 08             	mov    0x8(%ebp),%eax
  10f18f:	83 ec 08             	sub    $0x8,%esp
  10f192:	52                   	push   %edx
  10f193:	50                   	push   %eax
  10f194:	e8 48 12 00 00       	call   1103e1 <console_putbytes>
  10f199:	83 c4 10             	add    $0x10,%esp
  10f19c:	8b 45 08             	mov    0x8(%ebp),%eax
  10f19f:	c7 80 80 00 00 00 00 	movl   $0x0,0x80(%eax)
  10f1a6:	00 00 00 
  10f1a9:	90                   	nop
  10f1aa:	89 ec                	mov    %ebp,%esp
  10f1ac:	5d                   	pop    %ebp
  10f1ad:	c3                   	ret    

0010f1ae <printf_char>:
  10f1ae:	55                   	push   %ebp
  10f1af:	89 e5                	mov    %esp,%ebp
  10f1b1:	83 ec 18             	sub    $0x18,%esp
  10f1b4:	8b 45 08             	mov    0x8(%ebp),%eax
  10f1b7:	89 45 f4             	mov    %eax,-0xc(%ebp)
  10f1ba:	83 7d 0c 00          	cmpl   $0x0,0xc(%ebp)
  10f1be:	74 14                	je     10f1d4 <printf_char+0x26>
  10f1c0:	83 7d 0c 0a          	cmpl   $0xa,0xc(%ebp)
  10f1c4:	74 0e                	je     10f1d4 <printf_char+0x26>
  10f1c6:	8b 45 f4             	mov    -0xc(%ebp),%eax
  10f1c9:	8b 80 80 00 00 00    	mov    0x80(%eax),%eax
  10f1cf:	83 f8 7f             	cmp    $0x7f,%eax
  10f1d2:	76 2b                	jbe    10f1ff <printf_char+0x51>
  10f1d4:	83 ec 0c             	sub    $0xc,%esp
  10f1d7:	ff 75 f4             	push   -0xc(%ebp)
  10f1da:	e8 9c ff ff ff       	call   10f17b <flush>
  10f1df:	83 c4 10             	add    $0x10,%esp
  10f1e2:	8b 45 0c             	mov    0xc(%ebp),%eax
  10f1e5:	88 c2                	mov    %al,%dl
  10f1e7:	8b 45 f4             	mov    -0xc(%ebp),%eax
  10f1ea:	88 10                	mov    %dl,(%eax)
  10f1ec:	8b 45 f4             	mov    -0xc(%ebp),%eax
  10f1ef:	83 ec 08             	sub    $0x8,%esp
  10f1f2:	6a 01                	push   $0x1
  10f1f4:	50                   	push   %eax
  10f1f5:	e8 e7 11 00 00       	call   1103e1 <console_putbytes>
  10f1fa:	83 c4 10             	add    $0x10,%esp
  10f1fd:	eb 2a                	jmp    10f229 <printf_char+0x7b>
  10f1ff:	8b 45 f4             	mov    -0xc(%ebp),%eax
  10f202:	8b 80 80 00 00 00    	mov    0x80(%eax),%eax
  10f208:	8b 55 0c             	mov    0xc(%ebp),%edx
  10f20b:	88 d1                	mov    %dl,%cl
  10f20d:	8b 55 f4             	mov    -0xc(%ebp),%edx
  10f210:	88 0c 02             	mov    %cl,(%edx,%eax,1)
  10f213:	8b 45 f4             	mov    -0xc(%ebp),%eax
  10f216:	8b 80 80 00 00 00    	mov    0x80(%eax),%eax
  10f21c:	8d 50 01             	lea    0x1(%eax),%edx
  10f21f:	8b 45 f4             	mov    -0xc(%ebp),%eax
  10f222:	89 90 80 00 00 00    	mov    %edx,0x80(%eax)
  10f228:	90                   	nop
  10f229:	90                   	nop
  10f22a:	89 ec                	mov    %ebp,%esp
  10f22c:	5d                   	pop    %ebp
  10f22d:	c3                   	ret    

0010f22e <vprintf>:
  10f22e:	55                   	push   %ebp
  10f22f:	89 e5                	mov    %esp,%ebp
  10f231:	81 ec 98 00 00 00    	sub    $0x98,%esp
  10f237:	c7 45 f4 00 00 00 00 	movl   $0x0,-0xc(%ebp)
  10f23e:	83 ec 0c             	sub    $0xc,%esp
  10f241:	8d 85 74 ff ff ff    	lea    -0x8c(%ebp),%eax
  10f247:	50                   	push   %eax
  10f248:	68 ae f1 10 00       	push   $0x10f1ae
  10f24d:	6a 00                	push   $0x0
  10f24f:	ff 75 0c             	push   0xc(%ebp)
  10f252:	ff 75 08             	push   0x8(%ebp)
  10f255:	e8 c3 f7 ff ff       	call   10ea1d <_doprnt>
  10f25a:	83 c4 20             	add    $0x20,%esp
  10f25d:	8b 45 f4             	mov    -0xc(%ebp),%eax
  10f260:	85 c0                	test   %eax,%eax
  10f262:	74 12                	je     10f276 <vprintf+0x48>
  10f264:	83 ec 0c             	sub    $0xc,%esp
  10f267:	8d 85 74 ff ff ff    	lea    -0x8c(%ebp),%eax
  10f26d:	50                   	push   %eax
  10f26e:	e8 08 ff ff ff       	call   10f17b <flush>
  10f273:	83 c4 10             	add    $0x10,%esp
  10f276:	b8 00 00 00 00       	mov    $0x0,%eax
  10f27b:	89 ec                	mov    %ebp,%esp
  10f27d:	5d                   	pop    %ebp
  10f27e:	c3                   	ret    

0010f27f <printf>:
  10f27f:	55                   	push   %ebp
  10f280:	89 e5                	mov    %esp,%ebp
  10f282:	83 ec 18             	sub    $0x18,%esp
  10f285:	8d 45 0c             	lea    0xc(%ebp),%eax
  10f288:	89 45 f0             	mov    %eax,-0x10(%ebp)
  10f28b:	8b 45 f0             	mov    -0x10(%ebp),%eax
  10f28e:	83 ec 08             	sub    $0x8,%esp
  10f291:	50                   	push   %eax
  10f292:	ff 75 08             	push   0x8(%ebp)
  10f295:	e8 94 ff ff ff       	call   10f22e <vprintf>
  10f29a:	83 c4 10             	add    $0x10,%esp
  10f29d:	89 45 f4             	mov    %eax,-0xc(%ebp)
  10f2a0:	8b 45 f4             	mov    -0xc(%ebp),%eax
  10f2a3:	89 ec                	mov    %ebp,%esp
  10f2a5:	5d                   	pop    %ebp
  10f2a6:	c3                   	ret    

0010f2a7 <putchar>:
  10f2a7:	55                   	push   %ebp
  10f2a8:	89 e5                	mov    %esp,%ebp
  10f2aa:	83 ec 18             	sub    $0x18,%esp
  10f2ad:	8b 45 08             	mov    0x8(%ebp),%eax
  10f2b0:	88 45 f7             	mov    %al,-0x9(%ebp)
  10f2b3:	83 ec 08             	sub    $0x8,%esp
  10f2b6:	6a 01                	push   $0x1
  10f2b8:	8d 45 f7             	lea    -0x9(%ebp),%eax
  10f2bb:	50                   	push   %eax
  10f2bc:	e8 20 11 00 00       	call   1103e1 <console_putbytes>
  10f2c1:	83 c4 10             	add    $0x10,%esp
  10f2c4:	8a 45 f7             	mov    -0x9(%ebp),%al
  10f2c7:	25 ff 00 00 00       	and    $0xff,%eax
  10f2cc:	89 ec                	mov    %ebp,%esp
  10f2ce:	5d                   	pop    %ebp
  10f2cf:	c3                   	ret    

0010f2d0 <puts>:
  10f2d0:	55                   	push   %ebp
  10f2d1:	89 e5                	mov    %esp,%ebp
  10f2d3:	83 ec 08             	sub    $0x8,%esp
  10f2d6:	eb 1a                	jmp    10f2f2 <puts+0x22>
  10f2d8:	8b 45 08             	mov    0x8(%ebp),%eax
  10f2db:	8d 50 01             	lea    0x1(%eax),%edx
  10f2de:	89 55 08             	mov    %edx,0x8(%ebp)
  10f2e1:	8a 00                	mov    (%eax),%al
  10f2e3:	0f be c0             	movsbl %al,%eax
  10f2e6:	83 ec 0c             	sub    $0xc,%esp
  10f2e9:	50                   	push   %eax
  10f2ea:	e8 b8 ff ff ff       	call   10f2a7 <putchar>
  10f2ef:	83 c4 10             	add    $0x10,%esp
  10f2f2:	8b 45 08             	mov    0x8(%ebp),%eax
  10f2f5:	8a 00                	mov    (%eax),%al
  10f2f7:	84 c0                	test   %al,%al
  10f2f9:	75 dd                	jne    10f2d8 <puts+0x8>
  10f2fb:	83 ec 0c             	sub    $0xc,%esp
  10f2fe:	6a 0a                	push   $0xa
  10f300:	e8 a2 ff ff ff       	call   10f2a7 <putchar>
  10f305:	83 c4 10             	add    $0x10,%esp
  10f308:	b8 00 00 00 00       	mov    $0x0,%eax
  10f30d:	89 ec                	mov    %ebp,%esp
  10f30f:	5d                   	pop    %ebp
  10f310:	c3                   	ret    

0010f311 <savechar>:
  10f311:	55                   	push   %ebp
  10f312:	89 e5                	mov    %esp,%ebp
  10f314:	83 ec 10             	sub    $0x10,%esp
  10f317:	8b 45 08             	mov    0x8(%ebp),%eax
  10f31a:	89 45 fc             	mov    %eax,-0x4(%ebp)
  10f31d:	8b 45 fc             	mov    -0x4(%ebp),%eax
  10f320:	8b 40 08             	mov    0x8(%eax),%eax
  10f323:	3d ff ff ff 0f       	cmp    $0xfffffff,%eax
  10f328:	74 10                	je     10f33a <savechar+0x29>
  10f32a:	8b 45 fc             	mov    -0x4(%ebp),%eax
  10f32d:	8b 50 04             	mov    0x4(%eax),%edx
  10f330:	8b 45 fc             	mov    -0x4(%ebp),%eax
  10f333:	8b 40 08             	mov    0x8(%eax),%eax
  10f336:	39 c2                	cmp    %eax,%edx
  10f338:	74 28                	je     10f362 <savechar+0x51>
  10f33a:	8b 45 fc             	mov    -0x4(%ebp),%eax
  10f33d:	8b 40 04             	mov    0x4(%eax),%eax
  10f340:	8d 50 01             	lea    0x1(%eax),%edx
  10f343:	8b 45 fc             	mov    -0x4(%ebp),%eax
  10f346:	89 50 04             	mov    %edx,0x4(%eax)
  10f349:	8b 45 fc             	mov    -0x4(%ebp),%eax
  10f34c:	8b 00                	mov    (%eax),%eax
  10f34e:	8b 55 0c             	mov    0xc(%ebp),%edx
  10f351:	88 10                	mov    %dl,(%eax)
  10f353:	8b 45 fc             	mov    -0x4(%ebp),%eax
  10f356:	8b 00                	mov    (%eax),%eax
  10f358:	8d 50 01             	lea    0x1(%eax),%edx
  10f35b:	8b 45 fc             	mov    -0x4(%ebp),%eax
  10f35e:	89 10                	mov    %edx,(%eax)
  10f360:	eb 01                	jmp    10f363 <savechar+0x52>
  10f362:	90                   	nop
  10f363:	89 ec                	mov    %ebp,%esp
  10f365:	5d                   	pop    %ebp
  10f366:	c3                   	ret    

0010f367 <vsprintf>:
  10f367:	55                   	push   %ebp
  10f368:	89 e5                	mov    %esp,%ebp
  10f36a:	83 ec 18             	sub    $0x18,%esp
  10f36d:	c7 45 f4 ff ff ff 0f 	movl   $0xfffffff,-0xc(%ebp)
  10f374:	c7 45 f0 00 00 00 00 	movl   $0x0,-0x10(%ebp)
  10f37b:	8b 45 08             	mov    0x8(%ebp),%eax
  10f37e:	89 45 ec             	mov    %eax,-0x14(%ebp)
  10f381:	83 ec 0c             	sub    $0xc,%esp
  10f384:	8d 45 ec             	lea    -0x14(%ebp),%eax
  10f387:	50                   	push   %eax
  10f388:	68 11 f3 10 00       	push   $0x10f311
  10f38d:	6a 00                	push   $0x0
  10f38f:	ff 75 10             	push   0x10(%ebp)
  10f392:	ff 75 0c             	push   0xc(%ebp)
  10f395:	e8 83 f6 ff ff       	call   10ea1d <_doprnt>
  10f39a:	83 c4 20             	add    $0x20,%esp
  10f39d:	8b 45 ec             	mov    -0x14(%ebp),%eax
  10f3a0:	c6 00 00             	movb   $0x0,(%eax)
  10f3a3:	8b 45 f0             	mov    -0x10(%ebp),%eax
  10f3a6:	89 ec                	mov    %ebp,%esp
  10f3a8:	5d                   	pop    %ebp
  10f3a9:	c3                   	ret    

0010f3aa <vsnprintf>:
  10f3aa:	55                   	push   %ebp
  10f3ab:	89 e5                	mov    %esp,%ebp
  10f3ad:	83 ec 18             	sub    $0x18,%esp
  10f3b0:	8b 45 0c             	mov    0xc(%ebp),%eax
  10f3b3:	89 45 f4             	mov    %eax,-0xc(%ebp)
  10f3b6:	c7 45 f0 00 00 00 00 	movl   $0x0,-0x10(%ebp)
  10f3bd:	8b 45 08             	mov    0x8(%ebp),%eax
  10f3c0:	89 45 ec             	mov    %eax,-0x14(%ebp)
  10f3c3:	83 ec 0c             	sub    $0xc,%esp
  10f3c6:	8d 45 ec             	lea    -0x14(%ebp),%eax
  10f3c9:	50                   	push   %eax
  10f3ca:	68 11 f3 10 00       	push   $0x10f311
  10f3cf:	6a 00                	push   $0x0
  10f3d1:	ff 75 14             	push   0x14(%ebp)
  10f3d4:	ff 75 10             	push   0x10(%ebp)
  10f3d7:	e8 41 f6 ff ff       	call   10ea1d <_doprnt>
  10f3dc:	83 c4 20             	add    $0x20,%esp
  10f3df:	8b 45 ec             	mov    -0x14(%ebp),%eax
  10f3e2:	c6 00 00             	movb   $0x0,(%eax)
  10f3e5:	8b 45 f0             	mov    -0x10(%ebp),%eax
  10f3e8:	89 ec                	mov    %ebp,%esp
  10f3ea:	5d                   	pop    %ebp
  10f3eb:	c3                   	ret    

0010f3ec <sprintf>:
  10f3ec:	55                   	push   %ebp
  10f3ed:	89 e5                	mov    %esp,%ebp
  10f3ef:	83 ec 18             	sub    $0x18,%esp
  10f3f2:	8d 45 10             	lea    0x10(%ebp),%eax
  10f3f5:	89 45 f0             	mov    %eax,-0x10(%ebp)
  10f3f8:	8b 45 f0             	mov    -0x10(%ebp),%eax
  10f3fb:	83 ec 04             	sub    $0x4,%esp
  10f3fe:	50                   	push   %eax
  10f3ff:	ff 75 0c             	push   0xc(%ebp)
  10f402:	ff 75 08             	push   0x8(%ebp)
  10f405:	e8 5d ff ff ff       	call   10f367 <vsprintf>
  10f40a:	83 c4 10             	add    $0x10,%esp
  10f40d:	89 45 f4             	mov    %eax,-0xc(%ebp)
  10f410:	8b 45 f4             	mov    -0xc(%ebp),%eax
  10f413:	89 ec                	mov    %ebp,%esp
  10f415:	5d                   	pop    %ebp
  10f416:	c3                   	ret    

0010f417 <snprintf>:
  10f417:	55                   	push   %ebp
  10f418:	89 e5                	mov    %esp,%ebp
  10f41a:	83 ec 18             	sub    $0x18,%esp
  10f41d:	8d 45 14             	lea    0x14(%ebp),%eax
  10f420:	89 45 f0             	mov    %eax,-0x10(%ebp)
  10f423:	8b 45 f0             	mov    -0x10(%ebp),%eax
  10f426:	50                   	push   %eax
  10f427:	ff 75 10             	push   0x10(%ebp)
  10f42a:	ff 75 0c             	push   0xc(%ebp)
  10f42d:	ff 75 08             	push   0x8(%ebp)
  10f430:	e8 75 ff ff ff       	call   10f3aa <vsnprintf>
  10f435:	83 c4 10             	add    $0x10,%esp
  10f438:	89 45 f4             	mov    %eax,-0xc(%ebp)
  10f43b:	8b 45 f4             	mov    -0xc(%ebp),%eax
  10f43e:	89 ec                	mov    %ebp,%esp
  10f440:	5d                   	pop    %ebp
  10f441:	c3                   	ret    

0010f442 <memccpy>:
  10f442:	55                   	push   %ebp
  10f443:	89 e5                	mov    %esp,%ebp
  10f445:	83 ec 10             	sub    $0x10,%esp
  10f448:	8b 45 08             	mov    0x8(%ebp),%eax
  10f44b:	89 45 fc             	mov    %eax,-0x4(%ebp)
  10f44e:	8b 45 0c             	mov    0xc(%ebp),%eax
  10f451:	89 45 f8             	mov    %eax,-0x8(%ebp)
  10f454:	eb 29                	jmp    10f47f <memccpy+0x3d>
  10f456:	8b 45 f8             	mov    -0x8(%ebp),%eax
  10f459:	8d 50 01             	lea    0x1(%eax),%edx
  10f45c:	89 55 f8             	mov    %edx,-0x8(%ebp)
  10f45f:	8a 00                	mov    (%eax),%al
  10f461:	88 45 f7             	mov    %al,-0x9(%ebp)
  10f464:	8b 45 fc             	mov    -0x4(%ebp),%eax
  10f467:	8d 50 01             	lea    0x1(%eax),%edx
  10f46a:	89 55 fc             	mov    %edx,-0x4(%ebp)
  10f46d:	8a 55 f7             	mov    -0x9(%ebp),%dl
  10f470:	88 10                	mov    %dl,(%eax)
  10f472:	8b 45 10             	mov    0x10(%ebp),%eax
  10f475:	38 45 f7             	cmp    %al,-0x9(%ebp)
  10f478:	75 05                	jne    10f47f <memccpy+0x3d>
  10f47a:	8b 45 fc             	mov    -0x4(%ebp),%eax
  10f47d:	eb 12                	jmp    10f491 <memccpy+0x4f>
  10f47f:	8b 45 14             	mov    0x14(%ebp),%eax
  10f482:	8d 50 ff             	lea    -0x1(%eax),%edx
  10f485:	89 55 14             	mov    %edx,0x14(%ebp)
  10f488:	85 c0                	test   %eax,%eax
  10f48a:	75 ca                	jne    10f456 <memccpy+0x14>
  10f48c:	b8 00 00 00 00       	mov    $0x0,%eax
  10f491:	89 ec                	mov    %ebp,%esp
  10f493:	5d                   	pop    %ebp
  10f494:	c3                   	ret    

0010f495 <memchr>:
  10f495:	55                   	push   %ebp
  10f496:	89 e5                	mov    %esp,%ebp
  10f498:	83 ec 10             	sub    $0x10,%esp
  10f49b:	8b 45 08             	mov    0x8(%ebp),%eax
  10f49e:	89 45 fc             	mov    %eax,-0x4(%ebp)
  10f4a1:	eb 14                	jmp    10f4b7 <memchr+0x22>
  10f4a3:	8b 45 fc             	mov    -0x4(%ebp),%eax
  10f4a6:	8a 00                	mov    (%eax),%al
  10f4a8:	8b 55 0c             	mov    0xc(%ebp),%edx
  10f4ab:	38 d0                	cmp    %dl,%al
  10f4ad:	75 05                	jne    10f4b4 <memchr+0x1f>
  10f4af:	8b 45 fc             	mov    -0x4(%ebp),%eax
  10f4b2:	eb 15                	jmp    10f4c9 <memchr+0x34>
  10f4b4:	ff 45 fc             	incl   -0x4(%ebp)
  10f4b7:	8b 45 10             	mov    0x10(%ebp),%eax
  10f4ba:	8d 50 ff             	lea    -0x1(%eax),%edx
  10f4bd:	89 55 10             	mov    %edx,0x10(%ebp)
  10f4c0:	85 c0                	test   %eax,%eax
  10f4c2:	75 df                	jne    10f4a3 <memchr+0xe>
  10f4c4:	b8 00 00 00 00       	mov    $0x0,%eax
  10f4c9:	89 ec                	mov    %ebp,%esp
  10f4cb:	5d                   	pop    %ebp
  10f4cc:	c3                   	ret    

0010f4cd <memrchr>:
  10f4cd:	55                   	push   %ebp
  10f4ce:	89 e5                	mov    %esp,%ebp
  10f4d0:	83 ec 10             	sub    $0x10,%esp
  10f4d3:	8b 45 10             	mov    0x10(%ebp),%eax
  10f4d6:	8d 50 ff             	lea    -0x1(%eax),%edx
  10f4d9:	8b 45 08             	mov    0x8(%ebp),%eax
  10f4dc:	01 d0                	add    %edx,%eax
  10f4de:	89 45 fc             	mov    %eax,-0x4(%ebp)
  10f4e1:	eb 14                	jmp    10f4f7 <memrchr+0x2a>
  10f4e3:	8b 45 fc             	mov    -0x4(%ebp),%eax
  10f4e6:	8a 00                	mov    (%eax),%al
  10f4e8:	8b 55 0c             	mov    0xc(%ebp),%edx
  10f4eb:	38 d0                	cmp    %dl,%al
  10f4ed:	75 05                	jne    10f4f4 <memrchr+0x27>
  10f4ef:	8b 45 fc             	mov    -0x4(%ebp),%eax
  10f4f2:	eb 15                	jmp    10f509 <memrchr+0x3c>
  10f4f4:	ff 4d fc             	decl   -0x4(%ebp)
  10f4f7:	8b 45 10             	mov    0x10(%ebp),%eax
  10f4fa:	8d 50 ff             	lea    -0x1(%eax),%edx
  10f4fd:	89 55 10             	mov    %edx,0x10(%ebp)
  10f500:	85 c0                	test   %eax,%eax
  10f502:	75 df                	jne    10f4e3 <memrchr+0x16>
  10f504:	b8 00 00 00 00       	mov    $0x0,%eax
  10f509:	89 ec                	mov    %ebp,%esp
  10f50b:	5d                   	pop    %ebp
  10f50c:	c3                   	ret    

0010f50d <memcmp>:
  10f50d:	55                   	push   %ebp
  10f50e:	89 e5                	mov    %esp,%ebp
  10f510:	83 ec 10             	sub    $0x10,%esp
  10f513:	8b 45 08             	mov    0x8(%ebp),%eax
  10f516:	89 45 fc             	mov    %eax,-0x4(%ebp)
  10f519:	8b 45 0c             	mov    0xc(%ebp),%eax
  10f51c:	89 45 f8             	mov    %eax,-0x8(%ebp)
  10f51f:	c7 45 f4 00 00 00 00 	movl   $0x0,-0xc(%ebp)
  10f526:	eb 2b                	jmp    10f553 <memcmp+0x46>
  10f528:	8b 45 fc             	mov    -0x4(%ebp),%eax
  10f52b:	8d 50 01             	lea    0x1(%eax),%edx
  10f52e:	89 55 fc             	mov    %edx,-0x4(%ebp)
  10f531:	8a 00                	mov    (%eax),%al
  10f533:	31 c9                	xor    %ecx,%ecx
  10f535:	88 c1                	mov    %al,%cl
  10f537:	8b 45 f8             	mov    -0x8(%ebp),%eax
  10f53a:	8d 50 01             	lea    0x1(%eax),%edx
  10f53d:	89 55 f8             	mov    %edx,-0x8(%ebp)
  10f540:	8a 00                	mov    (%eax),%al
  10f542:	31 d2                	xor    %edx,%edx
  10f544:	88 c2                	mov    %al,%dl
  10f546:	89 c8                	mov    %ecx,%eax
  10f548:	29 d0                	sub    %edx,%eax
  10f54a:	89 45 f4             	mov    %eax,-0xc(%ebp)
  10f54d:	83 7d f4 00          	cmpl   $0x0,-0xc(%ebp)
  10f551:	75 0f                	jne    10f562 <memcmp+0x55>
  10f553:	8b 45 10             	mov    0x10(%ebp),%eax
  10f556:	8d 50 ff             	lea    -0x1(%eax),%edx
  10f559:	89 55 10             	mov    %edx,0x10(%ebp)
  10f55c:	85 c0                	test   %eax,%eax
  10f55e:	75 c8                	jne    10f528 <memcmp+0x1b>
  10f560:	eb 01                	jmp    10f563 <memcmp+0x56>
  10f562:	90                   	nop
  10f563:	8b 45 f4             	mov    -0xc(%ebp),%eax
  10f566:	89 ec                	mov    %ebp,%esp
  10f568:	5d                   	pop    %ebp
  10f569:	c3                   	ret    

0010f56a <memcpy>:
  10f56a:	55                   	push   %ebp
  10f56b:	89 e5                	mov    %esp,%ebp
  10f56d:	57                   	push   %edi
  10f56e:	56                   	push   %esi
  10f56f:	53                   	push   %ebx
  10f570:	83 ec 10             	sub    $0x10,%esp
  10f573:	8b 45 0c             	mov    0xc(%ebp),%eax
  10f576:	89 45 f0             	mov    %eax,-0x10(%ebp)
  10f579:	8b 45 08             	mov    0x8(%ebp),%eax
  10f57c:	89 45 ec             	mov    %eax,-0x14(%ebp)
  10f57f:	8b 45 10             	mov    0x10(%ebp),%eax
  10f582:	c1 e8 02             	shr    $0x2,%eax
  10f585:	89 45 e8             	mov    %eax,-0x18(%ebp)
  10f588:	8b 45 10             	mov    0x10(%ebp),%eax
  10f58b:	83 e0 03             	and    $0x3,%eax
  10f58e:	89 c3                	mov    %eax,%ebx
  10f590:	8b 4d e8             	mov    -0x18(%ebp),%ecx
  10f593:	8b 55 f0             	mov    -0x10(%ebp),%edx
  10f596:	8b 45 ec             	mov    -0x14(%ebp),%eax
  10f599:	89 d6                	mov    %edx,%esi
  10f59b:	89 c7                	mov    %eax,%edi
  10f59d:	fc                   	cld    
  10f59e:	f3 a5                	rep movsl %ds:(%esi),%es:(%edi)
  10f5a0:	89 d9                	mov    %ebx,%ecx
  10f5a2:	f3 a4                	rep movsb %ds:(%esi),%es:(%edi)
  10f5a4:	89 f8                	mov    %edi,%eax
  10f5a6:	89 f2                	mov    %esi,%edx
  10f5a8:	89 4d e8             	mov    %ecx,-0x18(%ebp)
  10f5ab:	89 55 f0             	mov    %edx,-0x10(%ebp)
  10f5ae:	89 45 ec             	mov    %eax,-0x14(%ebp)
  10f5b1:	8b 45 08             	mov    0x8(%ebp),%eax
  10f5b4:	83 c4 10             	add    $0x10,%esp
  10f5b7:	5b                   	pop    %ebx
  10f5b8:	5e                   	pop    %esi
  10f5b9:	5f                   	pop    %edi
  10f5ba:	5d                   	pop    %ebp
  10f5bb:	c3                   	ret    

0010f5bc <memmove>:
  10f5bc:	55                   	push   %ebp
  10f5bd:	89 e5                	mov    %esp,%ebp
  10f5bf:	57                   	push   %edi
  10f5c0:	56                   	push   %esi
  10f5c1:	83 ec 10             	sub    $0x10,%esp
  10f5c4:	8b 45 0c             	mov    0xc(%ebp),%eax
  10f5c7:	89 45 f4             	mov    %eax,-0xc(%ebp)
  10f5ca:	8b 45 08             	mov    0x8(%ebp),%eax
  10f5cd:	89 45 f0             	mov    %eax,-0x10(%ebp)
  10f5d0:	8b 45 f0             	mov    -0x10(%ebp),%eax
  10f5d3:	3b 45 f4             	cmp    -0xc(%ebp),%eax
  10f5d6:	73 1f                	jae    10f5f7 <memmove+0x3b>
  10f5d8:	8b 4d 10             	mov    0x10(%ebp),%ecx
  10f5db:	8b 55 f4             	mov    -0xc(%ebp),%edx
  10f5de:	8b 45 f0             	mov    -0x10(%ebp),%eax
  10f5e1:	89 d6                	mov    %edx,%esi
  10f5e3:	89 c7                	mov    %eax,%edi
  10f5e5:	fc                   	cld    
  10f5e6:	f3 a4                	rep movsb %ds:(%esi),%es:(%edi)
  10f5e8:	89 f8                	mov    %edi,%eax
  10f5ea:	89 f2                	mov    %esi,%edx
  10f5ec:	89 4d 10             	mov    %ecx,0x10(%ebp)
  10f5ef:	89 55 f4             	mov    %edx,-0xc(%ebp)
  10f5f2:	89 45 f0             	mov    %eax,-0x10(%ebp)
  10f5f5:	eb 2b                	jmp    10f622 <memmove+0x66>
  10f5f7:	8b 45 10             	mov    0x10(%ebp),%eax
  10f5fa:	48                   	dec    %eax
  10f5fb:	01 45 f4             	add    %eax,-0xc(%ebp)
  10f5fe:	8b 45 10             	mov    0x10(%ebp),%eax
  10f601:	48                   	dec    %eax
  10f602:	01 45 f0             	add    %eax,-0x10(%ebp)
  10f605:	8b 4d 10             	mov    0x10(%ebp),%ecx
  10f608:	8b 55 f4             	mov    -0xc(%ebp),%edx
  10f60b:	8b 45 f0             	mov    -0x10(%ebp),%eax
  10f60e:	89 d6                	mov    %edx,%esi
  10f610:	89 c7                	mov    %eax,%edi
  10f612:	fd                   	std    
  10f613:	f3 a4                	rep movsb %ds:(%esi),%es:(%edi)
  10f615:	89 f8                	mov    %edi,%eax
  10f617:	89 f2                	mov    %esi,%edx
  10f619:	89 4d 10             	mov    %ecx,0x10(%ebp)
  10f61c:	89 55 f4             	mov    %edx,-0xc(%ebp)
  10f61f:	89 45 f0             	mov    %eax,-0x10(%ebp)
  10f622:	8b 45 08             	mov    0x8(%ebp),%eax
  10f625:	83 c4 10             	add    $0x10,%esp
  10f628:	5e                   	pop    %esi
  10f629:	5f                   	pop    %edi
  10f62a:	5d                   	pop    %ebp
  10f62b:	c3                   	ret    

0010f62c <memset>:
  10f62c:	55                   	push   %ebp
  10f62d:	89 e5                	mov    %esp,%ebp
  10f62f:	57                   	push   %edi
  10f630:	53                   	push   %ebx
  10f631:	83 ec 10             	sub    $0x10,%esp
  10f634:	8b 45 08             	mov    0x8(%ebp),%eax
  10f637:	89 45 f4             	mov    %eax,-0xc(%ebp)
  10f63a:	8b 45 10             	mov    0x10(%ebp),%eax
  10f63d:	c1 e8 02             	shr    $0x2,%eax
  10f640:	89 45 f0             	mov    %eax,-0x10(%ebp)
  10f643:	8b 45 0c             	mov    0xc(%ebp),%eax
  10f646:	31 d2                	xor    %edx,%edx
  10f648:	88 c2                	mov    %al,%dl
  10f64a:	89 d0                	mov    %edx,%eax
  10f64c:	c1 e0 08             	shl    $0x8,%eax
  10f64f:	01 d0                	add    %edx,%eax
  10f651:	89 c2                	mov    %eax,%edx
  10f653:	c1 e2 10             	shl    $0x10,%edx
  10f656:	01 d0                	add    %edx,%eax
  10f658:	8b 55 10             	mov    0x10(%ebp),%edx
  10f65b:	89 d3                	mov    %edx,%ebx
  10f65d:	83 e3 03             	and    $0x3,%ebx
  10f660:	8b 4d f0             	mov    -0x10(%ebp),%ecx
  10f663:	8b 55 f4             	mov    -0xc(%ebp),%edx
  10f666:	89 d7                	mov    %edx,%edi
  10f668:	fc                   	cld    
  10f669:	f3 ab                	rep stos %eax,%es:(%edi)
  10f66b:	89 d9                	mov    %ebx,%ecx
  10f66d:	f3 aa                	rep stos %al,%es:(%edi)
  10f66f:	89 fa                	mov    %edi,%edx
  10f671:	89 4d f0             	mov    %ecx,-0x10(%ebp)
  10f674:	89 55 f4             	mov    %edx,-0xc(%ebp)
  10f677:	8b 45 08             	mov    0x8(%ebp),%eax
  10f67a:	83 c4 10             	add    $0x10,%esp
  10f67d:	5b                   	pop    %ebx
  10f67e:	5f                   	pop    %edi
  10f67f:	5d                   	pop    %ebp
  10f680:	c3                   	ret    

0010f681 <__strxspn>:
  10f681:	55                   	push   %ebp
  10f682:	89 e5                	mov    %esp,%ebp
  10f684:	81 ec 10 01 00 00    	sub    $0x110,%esp
  10f68a:	c7 45 fc 00 00 00 00 	movl   $0x0,-0x4(%ebp)
  10f691:	68 00 01 00 00       	push   $0x100
  10f696:	6a 00                	push   $0x0
  10f698:	8d 85 fc fe ff ff    	lea    -0x104(%ebp),%eax
  10f69e:	50                   	push   %eax
  10f69f:	e8 88 ff ff ff       	call   10f62c <memset>
  10f6a4:	83 c4 0c             	add    $0xc,%esp
  10f6a7:	eb 18                	jmp    10f6c1 <__strxspn+0x40>
  10f6a9:	8b 45 0c             	mov    0xc(%ebp),%eax
  10f6ac:	8d 50 01             	lea    0x1(%eax),%edx
  10f6af:	89 55 0c             	mov    %edx,0xc(%ebp)
  10f6b2:	8a 00                	mov    (%eax),%al
  10f6b4:	25 ff 00 00 00       	and    $0xff,%eax
  10f6b9:	c6 84 05 fc fe ff ff 	movb   $0x1,-0x104(%ebp,%eax,1)
  10f6c0:	01 
  10f6c1:	8b 45 0c             	mov    0xc(%ebp),%eax
  10f6c4:	8a 00                	mov    (%eax),%al
  10f6c6:	84 c0                	test   %al,%al
  10f6c8:	75 df                	jne    10f6a9 <__strxspn+0x28>
  10f6ca:	8b 45 10             	mov    0x10(%ebp),%eax
  10f6cd:	88 85 fc fe ff ff    	mov    %al,-0x104(%ebp)
  10f6d3:	eb 03                	jmp    10f6d8 <__strxspn+0x57>
  10f6d5:	ff 45 fc             	incl   -0x4(%ebp)
  10f6d8:	8b 45 08             	mov    0x8(%ebp),%eax
  10f6db:	8d 50 01             	lea    0x1(%eax),%edx
  10f6de:	89 55 08             	mov    %edx,0x8(%ebp)
  10f6e1:	8a 00                	mov    (%eax),%al
  10f6e3:	25 ff 00 00 00       	and    $0xff,%eax
  10f6e8:	8a 84 05 fc fe ff ff 	mov    -0x104(%ebp,%eax,1),%al
  10f6ef:	0f be c0             	movsbl %al,%eax
  10f6f2:	39 45 10             	cmp    %eax,0x10(%ebp)
  10f6f5:	75 de                	jne    10f6d5 <__strxspn+0x54>
  10f6f7:	8b 45 fc             	mov    -0x4(%ebp),%eax
  10f6fa:	89 ec                	mov    %ebp,%esp
  10f6fc:	5d                   	pop    %ebp
  10f6fd:	c3                   	ret    

0010f6fe <memmem>:
  10f6fe:	55                   	push   %ebp
  10f6ff:	89 e5                	mov    %esp,%ebp
  10f701:	83 ec 20             	sub    $0x20,%esp
  10f704:	8b 45 08             	mov    0x8(%ebp),%eax
  10f707:	89 45 fc             	mov    %eax,-0x4(%ebp)
  10f70a:	8b 45 10             	mov    0x10(%ebp),%eax
  10f70d:	89 45 ec             	mov    %eax,-0x14(%ebp)
  10f710:	8b 45 14             	mov    0x14(%ebp),%eax
  10f713:	3b 45 0c             	cmp    0xc(%ebp),%eax
  10f716:	77 0c                	ja     10f724 <memmem+0x26>
  10f718:	83 7d 14 00          	cmpl   $0x0,0x14(%ebp)
  10f71c:	74 06                	je     10f724 <memmem+0x26>
  10f71e:	83 7d 0c 00          	cmpl   $0x0,0xc(%ebp)
  10f722:	75 0a                	jne    10f72e <memmem+0x30>
  10f724:	b8 00 00 00 00       	mov    $0x0,%eax
  10f729:	e9 d9 00 00 00       	jmp    10f807 <memmem+0x109>
  10f72e:	83 7d 14 01          	cmpl   $0x1,0x14(%ebp)
  10f732:	0f 84 ab 00 00 00    	je     10f7e3 <memmem+0xe5>
  10f738:	8b 45 ec             	mov    -0x14(%ebp),%eax
  10f73b:	8a 10                	mov    (%eax),%dl
  10f73d:	8b 45 ec             	mov    -0x14(%ebp),%eax
  10f740:	40                   	inc    %eax
  10f741:	8a 00                	mov    (%eax),%al
  10f743:	38 c2                	cmp    %al,%dl
  10f745:	75 10                	jne    10f757 <memmem+0x59>
  10f747:	c7 45 f4 02 00 00 00 	movl   $0x2,-0xc(%ebp)
  10f74e:	c7 45 f0 01 00 00 00 	movl   $0x1,-0x10(%ebp)
  10f755:	eb 0e                	jmp    10f765 <memmem+0x67>
  10f757:	c7 45 f4 01 00 00 00 	movl   $0x1,-0xc(%ebp)
  10f75e:	c7 45 f0 02 00 00 00 	movl   $0x2,-0x10(%ebp)
  10f765:	c7 45 f8 00 00 00 00 	movl   $0x0,-0x8(%ebp)
  10f76c:	eb 68                	jmp    10f7d6 <memmem+0xd8>
  10f76e:	8b 45 ec             	mov    -0x14(%ebp),%eax
  10f771:	40                   	inc    %eax
  10f772:	8a 10                	mov    (%eax),%dl
  10f774:	8b 45 f8             	mov    -0x8(%ebp),%eax
  10f777:	8d 48 01             	lea    0x1(%eax),%ecx
  10f77a:	8b 45 fc             	mov    -0x4(%ebp),%eax
  10f77d:	01 c8                	add    %ecx,%eax
  10f77f:	8a 00                	mov    (%eax),%al
  10f781:	38 c2                	cmp    %al,%dl
  10f783:	74 08                	je     10f78d <memmem+0x8f>
  10f785:	8b 45 f4             	mov    -0xc(%ebp),%eax
  10f788:	01 45 f8             	add    %eax,-0x8(%ebp)
  10f78b:	eb 49                	jmp    10f7d6 <memmem+0xd8>
  10f78d:	8b 45 14             	mov    0x14(%ebp),%eax
  10f790:	8d 48 fe             	lea    -0x2(%eax),%ecx
  10f793:	8b 45 f8             	mov    -0x8(%ebp),%eax
  10f796:	8d 50 02             	lea    0x2(%eax),%edx
  10f799:	8b 45 fc             	mov    -0x4(%ebp),%eax
  10f79c:	01 c2                	add    %eax,%edx
  10f79e:	8b 45 ec             	mov    -0x14(%ebp),%eax
  10f7a1:	83 c0 02             	add    $0x2,%eax
  10f7a4:	51                   	push   %ecx
  10f7a5:	52                   	push   %edx
  10f7a6:	50                   	push   %eax
  10f7a7:	e8 61 fd ff ff       	call   10f50d <memcmp>
  10f7ac:	83 c4 0c             	add    $0xc,%esp
  10f7af:	85 c0                	test   %eax,%eax
  10f7b1:	75 1d                	jne    10f7d0 <memmem+0xd2>
  10f7b3:	8b 45 ec             	mov    -0x14(%ebp),%eax
  10f7b6:	8a 10                	mov    (%eax),%dl
  10f7b8:	8b 4d fc             	mov    -0x4(%ebp),%ecx
  10f7bb:	8b 45 f8             	mov    -0x8(%ebp),%eax
  10f7be:	01 c8                	add    %ecx,%eax
  10f7c0:	8a 00                	mov    (%eax),%al
  10f7c2:	38 c2                	cmp    %al,%dl
  10f7c4:	75 0a                	jne    10f7d0 <memmem+0xd2>
  10f7c6:	8b 55 fc             	mov    -0x4(%ebp),%edx
  10f7c9:	8b 45 f8             	mov    -0x8(%ebp),%eax
  10f7cc:	01 d0                	add    %edx,%eax
  10f7ce:	eb 37                	jmp    10f807 <memmem+0x109>
  10f7d0:	8b 45 f0             	mov    -0x10(%ebp),%eax
  10f7d3:	01 45 f8             	add    %eax,-0x8(%ebp)
  10f7d6:	8b 45 0c             	mov    0xc(%ebp),%eax
  10f7d9:	2b 45 14             	sub    0x14(%ebp),%eax
  10f7dc:	39 45 f8             	cmp    %eax,-0x8(%ebp)
  10f7df:	76 8d                	jbe    10f76e <memmem+0x70>
  10f7e1:	eb 1f                	jmp    10f802 <memmem+0x104>
  10f7e3:	8b 45 fc             	mov    -0x4(%ebp),%eax
  10f7e6:	8a 10                	mov    (%eax),%dl
  10f7e8:	8b 45 ec             	mov    -0x14(%ebp),%eax
  10f7eb:	8a 00                	mov    (%eax),%al
  10f7ed:	38 c2                	cmp    %al,%dl
  10f7ef:	75 05                	jne    10f7f6 <memmem+0xf8>
  10f7f1:	8b 45 fc             	mov    -0x4(%ebp),%eax
  10f7f4:	eb 11                	jmp    10f807 <memmem+0x109>
  10f7f6:	ff 45 fc             	incl   -0x4(%ebp)
  10f7f9:	ff 4d 0c             	decl   0xc(%ebp)
  10f7fc:	83 7d 0c 00          	cmpl   $0x0,0xc(%ebp)
  10f800:	75 e1                	jne    10f7e3 <memmem+0xe5>
  10f802:	b8 00 00 00 00       	mov    $0x0,%eax
  10f807:	89 ec                	mov    %ebp,%esp
  10f809:	5d                   	pop    %ebp
  10f80a:	c3                   	ret    

0010f80b <memswap>:
  10f80b:	55                   	push   %ebp
  10f80c:	89 e5                	mov    %esp,%ebp
  10f80e:	83 ec 10             	sub    $0x10,%esp
  10f811:	8b 45 08             	mov    0x8(%ebp),%eax
  10f814:	89 45 fc             	mov    %eax,-0x4(%ebp)
  10f817:	8b 45 0c             	mov    0xc(%ebp),%eax
  10f81a:	89 45 f8             	mov    %eax,-0x8(%ebp)
  10f81d:	eb 20                	jmp    10f83f <memswap+0x34>
  10f81f:	8b 45 fc             	mov    -0x4(%ebp),%eax
  10f822:	8a 00                	mov    (%eax),%al
  10f824:	88 45 f7             	mov    %al,-0x9(%ebp)
  10f827:	8b 45 f8             	mov    -0x8(%ebp),%eax
  10f82a:	8a 10                	mov    (%eax),%dl
  10f82c:	8b 45 fc             	mov    -0x4(%ebp),%eax
  10f82f:	88 10                	mov    %dl,(%eax)
  10f831:	8b 45 f8             	mov    -0x8(%ebp),%eax
  10f834:	8a 55 f7             	mov    -0x9(%ebp),%dl
  10f837:	88 10                	mov    %dl,(%eax)
  10f839:	ff 45 fc             	incl   -0x4(%ebp)
  10f83c:	ff 45 f8             	incl   -0x8(%ebp)
  10f83f:	8b 45 10             	mov    0x10(%ebp),%eax
  10f842:	8d 50 ff             	lea    -0x1(%eax),%edx
  10f845:	89 55 10             	mov    %edx,0x10(%ebp)
  10f848:	85 c0                	test   %eax,%eax
  10f84a:	75 d3                	jne    10f81f <memswap+0x14>
  10f84c:	90                   	nop
  10f84d:	90                   	nop
  10f84e:	89 ec                	mov    %ebp,%esp
  10f850:	5d                   	pop    %ebp
  10f851:	c3                   	ret    

0010f852 <strcat>:
  10f852:	55                   	push   %ebp
  10f853:	89 e5                	mov    %esp,%ebp
  10f855:	83 ec 08             	sub    $0x8,%esp
  10f858:	83 ec 0c             	sub    $0xc,%esp
  10f85b:	ff 75 08             	push   0x8(%ebp)
  10f85e:	e8 28 01 00 00       	call   10f98b <strlen>
  10f863:	83 c4 10             	add    $0x10,%esp
  10f866:	89 c2                	mov    %eax,%edx
  10f868:	8b 45 08             	mov    0x8(%ebp),%eax
  10f86b:	01 d0                	add    %edx,%eax
  10f86d:	83 ec 08             	sub    $0x8,%esp
  10f870:	ff 75 0c             	push   0xc(%ebp)
  10f873:	50                   	push   %eax
  10f874:	e8 c0 00 00 00       	call   10f939 <strcpy>
  10f879:	83 c4 10             	add    $0x10,%esp
  10f87c:	8b 45 08             	mov    0x8(%ebp),%eax
  10f87f:	89 ec                	mov    %ebp,%esp
  10f881:	5d                   	pop    %ebp
  10f882:	c3                   	ret    

0010f883 <strchr>:
  10f883:	55                   	push   %ebp
  10f884:	89 e5                	mov    %esp,%ebp
  10f886:	eb 13                	jmp    10f89b <strchr+0x18>
  10f888:	8b 45 08             	mov    0x8(%ebp),%eax
  10f88b:	8a 00                	mov    (%eax),%al
  10f88d:	84 c0                	test   %al,%al
  10f88f:	75 07                	jne    10f898 <strchr+0x15>
  10f891:	b8 00 00 00 00       	mov    $0x0,%eax
  10f896:	eb 12                	jmp    10f8aa <strchr+0x27>
  10f898:	ff 45 08             	incl   0x8(%ebp)
  10f89b:	8b 45 08             	mov    0x8(%ebp),%eax
  10f89e:	8a 00                	mov    (%eax),%al
  10f8a0:	8b 55 0c             	mov    0xc(%ebp),%edx
  10f8a3:	38 d0                	cmp    %dl,%al
  10f8a5:	75 e1                	jne    10f888 <strchr+0x5>
  10f8a7:	8b 45 08             	mov    0x8(%ebp),%eax
  10f8aa:	5d                   	pop    %ebp
  10f8ab:	c3                   	ret    

0010f8ac <strrchr>:
  10f8ac:	55                   	push   %ebp
  10f8ad:	89 e5                	mov    %esp,%ebp
  10f8af:	83 ec 10             	sub    $0x10,%esp
  10f8b2:	c7 45 fc 00 00 00 00 	movl   $0x0,-0x4(%ebp)
  10f8b9:	eb 15                	jmp    10f8d0 <strrchr+0x24>
  10f8bb:	8b 45 08             	mov    0x8(%ebp),%eax
  10f8be:	8a 00                	mov    (%eax),%al
  10f8c0:	8b 55 0c             	mov    0xc(%ebp),%edx
  10f8c3:	38 d0                	cmp    %dl,%al
  10f8c5:	75 06                	jne    10f8cd <strrchr+0x21>
  10f8c7:	8b 45 08             	mov    0x8(%ebp),%eax
  10f8ca:	89 45 fc             	mov    %eax,-0x4(%ebp)
  10f8cd:	ff 45 08             	incl   0x8(%ebp)
  10f8d0:	8b 45 08             	mov    0x8(%ebp),%eax
  10f8d3:	8a 00                	mov    (%eax),%al
  10f8d5:	84 c0                	test   %al,%al
  10f8d7:	75 e2                	jne    10f8bb <strrchr+0xf>
  10f8d9:	8b 45 fc             	mov    -0x4(%ebp),%eax
  10f8dc:	89 ec                	mov    %ebp,%esp
  10f8de:	5d                   	pop    %ebp
  10f8df:	c3                   	ret    

0010f8e0 <strcmp>:
  10f8e0:	55                   	push   %ebp
  10f8e1:	89 e5                	mov    %esp,%ebp
  10f8e3:	83 ec 10             	sub    $0x10,%esp
  10f8e6:	8b 45 08             	mov    0x8(%ebp),%eax
  10f8e9:	89 45 fc             	mov    %eax,-0x4(%ebp)
  10f8ec:	8b 45 0c             	mov    0xc(%ebp),%eax
  10f8ef:	89 45 f8             	mov    %eax,-0x8(%ebp)
  10f8f2:	c7 45 f4 00 00 00 00 	movl   $0x0,-0xc(%ebp)
  10f8f9:	8b 45 fc             	mov    -0x4(%ebp),%eax
  10f8fc:	8d 50 01             	lea    0x1(%eax),%edx
  10f8ff:	89 55 fc             	mov    %edx,-0x4(%ebp)
  10f902:	8a 00                	mov    (%eax),%al
  10f904:	88 45 f3             	mov    %al,-0xd(%ebp)
  10f907:	8a 45 f3             	mov    -0xd(%ebp),%al
  10f90a:	31 c9                	xor    %ecx,%ecx
  10f90c:	88 c1                	mov    %al,%cl
  10f90e:	8b 45 f8             	mov    -0x8(%ebp),%eax
  10f911:	8d 50 01             	lea    0x1(%eax),%edx
  10f914:	89 55 f8             	mov    %edx,-0x8(%ebp)
  10f917:	8a 00                	mov    (%eax),%al
  10f919:	31 d2                	xor    %edx,%edx
  10f91b:	88 c2                	mov    %al,%dl
  10f91d:	89 c8                	mov    %ecx,%eax
  10f91f:	29 d0                	sub    %edx,%eax
  10f921:	89 45 f4             	mov    %eax,-0xc(%ebp)
  10f924:	83 7d f4 00          	cmpl   $0x0,-0xc(%ebp)
  10f928:	75 08                	jne    10f932 <strcmp+0x52>
  10f92a:	80 7d f3 00          	cmpb   $0x0,-0xd(%ebp)
  10f92e:	74 02                	je     10f932 <strcmp+0x52>
  10f930:	eb c7                	jmp    10f8f9 <strcmp+0x19>
  10f932:	8b 45 f4             	mov    -0xc(%ebp),%eax
  10f935:	89 ec                	mov    %ebp,%esp
  10f937:	5d                   	pop    %ebp
  10f938:	c3                   	ret    

0010f939 <strcpy>:
  10f939:	55                   	push   %ebp
  10f93a:	89 e5                	mov    %esp,%ebp
  10f93c:	83 ec 10             	sub    $0x10,%esp
  10f93f:	8b 45 08             	mov    0x8(%ebp),%eax
  10f942:	89 45 fc             	mov    %eax,-0x4(%ebp)
  10f945:	8b 45 0c             	mov    0xc(%ebp),%eax
  10f948:	89 45 f8             	mov    %eax,-0x8(%ebp)
  10f94b:	8b 45 f8             	mov    -0x8(%ebp),%eax
  10f94e:	8d 50 01             	lea    0x1(%eax),%edx
  10f951:	89 55 f8             	mov    %edx,-0x8(%ebp)
  10f954:	8a 00                	mov    (%eax),%al
  10f956:	88 45 f7             	mov    %al,-0x9(%ebp)
  10f959:	8b 45 fc             	mov    -0x4(%ebp),%eax
  10f95c:	8d 50 01             	lea    0x1(%eax),%edx
  10f95f:	89 55 fc             	mov    %edx,-0x4(%ebp)
  10f962:	8a 55 f7             	mov    -0x9(%ebp),%dl
  10f965:	88 10                	mov    %dl,(%eax)
  10f967:	80 7d f7 00          	cmpb   $0x0,-0x9(%ebp)
  10f96b:	75 de                	jne    10f94b <strcpy+0x12>
  10f96d:	8b 45 08             	mov    0x8(%ebp),%eax
  10f970:	89 ec                	mov    %ebp,%esp
  10f972:	5d                   	pop    %ebp
  10f973:	c3                   	ret    

0010f974 <strcspn>:
  10f974:	55                   	push   %ebp
  10f975:	89 e5                	mov    %esp,%ebp
  10f977:	6a 01                	push   $0x1
  10f979:	ff 75 0c             	push   0xc(%ebp)
  10f97c:	ff 75 08             	push   0x8(%ebp)
  10f97f:	e8 fd fc ff ff       	call   10f681 <__strxspn>
  10f984:	83 c4 0c             	add    $0xc,%esp
  10f987:	89 ec                	mov    %ebp,%esp
  10f989:	5d                   	pop    %ebp
  10f98a:	c3                   	ret    

0010f98b <strlen>:
  10f98b:	55                   	push   %ebp
  10f98c:	89 e5                	mov    %esp,%ebp
  10f98e:	83 ec 10             	sub    $0x10,%esp
  10f991:	8b 45 08             	mov    0x8(%ebp),%eax
  10f994:	89 45 fc             	mov    %eax,-0x4(%ebp)
  10f997:	eb 03                	jmp    10f99c <strlen+0x11>
  10f999:	ff 45 fc             	incl   -0x4(%ebp)
  10f99c:	8b 45 fc             	mov    -0x4(%ebp),%eax
  10f99f:	8a 00                	mov    (%eax),%al
  10f9a1:	84 c0                	test   %al,%al
  10f9a3:	75 f4                	jne    10f999 <strlen+0xe>
  10f9a5:	8b 45 fc             	mov    -0x4(%ebp),%eax
  10f9a8:	2b 45 08             	sub    0x8(%ebp),%eax
  10f9ab:	89 ec                	mov    %ebp,%esp
  10f9ad:	5d                   	pop    %ebp
  10f9ae:	c3                   	ret    

0010f9af <strnlen>:
  10f9af:	55                   	push   %ebp
  10f9b0:	89 e5                	mov    %esp,%ebp
  10f9b2:	83 ec 10             	sub    $0x10,%esp
  10f9b5:	8b 45 08             	mov    0x8(%ebp),%eax
  10f9b8:	89 45 fc             	mov    %eax,-0x4(%ebp)
  10f9bb:	eb 06                	jmp    10f9c3 <strnlen+0x14>
  10f9bd:	ff 45 fc             	incl   -0x4(%ebp)
  10f9c0:	ff 4d 0c             	decl   0xc(%ebp)
  10f9c3:	83 7d 0c 00          	cmpl   $0x0,0xc(%ebp)
  10f9c7:	74 09                	je     10f9d2 <strnlen+0x23>
  10f9c9:	8b 45 fc             	mov    -0x4(%ebp),%eax
  10f9cc:	8a 00                	mov    (%eax),%al
  10f9ce:	84 c0                	test   %al,%al
  10f9d0:	75 eb                	jne    10f9bd <strnlen+0xe>
  10f9d2:	8b 45 fc             	mov    -0x4(%ebp),%eax
  10f9d5:	2b 45 08             	sub    0x8(%ebp),%eax
  10f9d8:	89 ec                	mov    %ebp,%esp
  10f9da:	5d                   	pop    %ebp
  10f9db:	c3                   	ret    

0010f9dc <strncat>:
  10f9dc:	55                   	push   %ebp
  10f9dd:	89 e5                	mov    %esp,%ebp
  10f9df:	83 ec 18             	sub    $0x18,%esp
  10f9e2:	83 ec 0c             	sub    $0xc,%esp
  10f9e5:	ff 75 08             	push   0x8(%ebp)
  10f9e8:	e8 9e ff ff ff       	call   10f98b <strlen>
  10f9ed:	83 c4 10             	add    $0x10,%esp
  10f9f0:	89 c2                	mov    %eax,%edx
  10f9f2:	8b 45 08             	mov    0x8(%ebp),%eax
  10f9f5:	01 d0                	add    %edx,%eax
  10f9f7:	89 45 f4             	mov    %eax,-0xc(%ebp)
  10f9fa:	8b 45 0c             	mov    0xc(%ebp),%eax
  10f9fd:	89 45 f0             	mov    %eax,-0x10(%ebp)
  10fa00:	eb 27                	jmp    10fa29 <strncat+0x4d>
  10fa02:	8b 45 f0             	mov    -0x10(%ebp),%eax
  10fa05:	8d 50 01             	lea    0x1(%eax),%edx
  10fa08:	89 55 f0             	mov    %edx,-0x10(%ebp)
  10fa0b:	8a 00                	mov    (%eax),%al
  10fa0d:	88 45 ef             	mov    %al,-0x11(%ebp)
  10fa10:	8b 45 f4             	mov    -0xc(%ebp),%eax
  10fa13:	8d 50 01             	lea    0x1(%eax),%edx
  10fa16:	89 55 f4             	mov    %edx,-0xc(%ebp)
  10fa19:	8a 55 ef             	mov    -0x11(%ebp),%dl
  10fa1c:	88 10                	mov    %dl,(%eax)
  10fa1e:	80 7d ef 00          	cmpb   $0x0,-0x11(%ebp)
  10fa22:	75 05                	jne    10fa29 <strncat+0x4d>
  10fa24:	8b 45 08             	mov    0x8(%ebp),%eax
  10fa27:	eb 16                	jmp    10fa3f <strncat+0x63>
  10fa29:	8b 45 10             	mov    0x10(%ebp),%eax
  10fa2c:	8d 50 ff             	lea    -0x1(%eax),%edx
  10fa2f:	89 55 10             	mov    %edx,0x10(%ebp)
  10fa32:	85 c0                	test   %eax,%eax
  10fa34:	75 cc                	jne    10fa02 <strncat+0x26>
  10fa36:	8b 45 f4             	mov    -0xc(%ebp),%eax
  10fa39:	c6 00 00             	movb   $0x0,(%eax)
  10fa3c:	8b 45 08             	mov    0x8(%ebp),%eax
  10fa3f:	89 ec                	mov    %ebp,%esp
  10fa41:	5d                   	pop    %ebp
  10fa42:	c3                   	ret    

0010fa43 <strlcat>:
  10fa43:	55                   	push   %ebp
  10fa44:	89 e5                	mov    %esp,%ebp
  10fa46:	83 ec 10             	sub    $0x10,%esp
  10fa49:	c7 45 fc 00 00 00 00 	movl   $0x0,-0x4(%ebp)
  10fa50:	8b 45 08             	mov    0x8(%ebp),%eax
  10fa53:	89 45 f8             	mov    %eax,-0x8(%ebp)
  10fa56:	8b 45 0c             	mov    0xc(%ebp),%eax
  10fa59:	89 45 f4             	mov    %eax,-0xc(%ebp)
  10fa5c:	eb 06                	jmp    10fa64 <strlcat+0x21>
  10fa5e:	ff 45 f8             	incl   -0x8(%ebp)
  10fa61:	ff 45 fc             	incl   -0x4(%ebp)
  10fa64:	8b 45 fc             	mov    -0x4(%ebp),%eax
  10fa67:	3b 45 10             	cmp    0x10(%ebp),%eax
  10fa6a:	73 09                	jae    10fa75 <strlcat+0x32>
  10fa6c:	8b 45 f8             	mov    -0x8(%ebp),%eax
  10fa6f:	8a 00                	mov    (%eax),%al
  10fa71:	84 c0                	test   %al,%al
  10fa73:	75 e9                	jne    10fa5e <strlcat+0x1b>
  10fa75:	8b 45 fc             	mov    -0x4(%ebp),%eax
  10fa78:	3b 45 10             	cmp    0x10(%ebp),%eax
  10fa7b:	75 2c                	jne    10faa9 <strlcat+0x66>
  10fa7d:	ff 75 0c             	push   0xc(%ebp)
  10fa80:	e8 06 ff ff ff       	call   10f98b <strlen>
  10fa85:	83 c4 04             	add    $0x4,%esp
  10fa88:	8b 55 fc             	mov    -0x4(%ebp),%edx
  10fa8b:	01 d0                	add    %edx,%eax
  10fa8d:	eb 37                	jmp    10fac6 <strlcat+0x83>
  10fa8f:	8b 45 fc             	mov    -0x4(%ebp),%eax
  10fa92:	40                   	inc    %eax
  10fa93:	39 45 10             	cmp    %eax,0x10(%ebp)
  10fa96:	76 0e                	jbe    10faa6 <strlcat+0x63>
  10fa98:	8b 45 f8             	mov    -0x8(%ebp),%eax
  10fa9b:	8d 50 01             	lea    0x1(%eax),%edx
  10fa9e:	89 55 f8             	mov    %edx,-0x8(%ebp)
  10faa1:	8a 55 f3             	mov    -0xd(%ebp),%dl
  10faa4:	88 10                	mov    %dl,(%eax)
  10faa6:	ff 45 fc             	incl   -0x4(%ebp)
  10faa9:	8b 45 f4             	mov    -0xc(%ebp),%eax
  10faac:	8d 50 01             	lea    0x1(%eax),%edx
  10faaf:	89 55 f4             	mov    %edx,-0xc(%ebp)
  10fab2:	8a 00                	mov    (%eax),%al
  10fab4:	88 45 f3             	mov    %al,-0xd(%ebp)
  10fab7:	80 7d f3 00          	cmpb   $0x0,-0xd(%ebp)
  10fabb:	75 d2                	jne    10fa8f <strlcat+0x4c>
  10fabd:	8b 45 f8             	mov    -0x8(%ebp),%eax
  10fac0:	c6 00 00             	movb   $0x0,(%eax)
  10fac3:	8b 45 fc             	mov    -0x4(%ebp),%eax
  10fac6:	89 ec                	mov    %ebp,%esp
  10fac8:	5d                   	pop    %ebp
  10fac9:	c3                   	ret    

0010faca <strncmp>:
  10faca:	55                   	push   %ebp
  10facb:	89 e5                	mov    %esp,%ebp
  10facd:	83 ec 10             	sub    $0x10,%esp
  10fad0:	8b 45 08             	mov    0x8(%ebp),%eax
  10fad3:	89 45 fc             	mov    %eax,-0x4(%ebp)
  10fad6:	8b 45 0c             	mov    0xc(%ebp),%eax
  10fad9:	89 45 f8             	mov    %eax,-0x8(%ebp)
  10fadc:	c7 45 f4 00 00 00 00 	movl   $0x0,-0xc(%ebp)
  10fae3:	eb 37                	jmp    10fb1c <strncmp+0x52>
  10fae5:	8b 45 fc             	mov    -0x4(%ebp),%eax
  10fae8:	8d 50 01             	lea    0x1(%eax),%edx
  10faeb:	89 55 fc             	mov    %edx,-0x4(%ebp)
  10faee:	8a 00                	mov    (%eax),%al
  10faf0:	88 45 f3             	mov    %al,-0xd(%ebp)
  10faf3:	8a 45 f3             	mov    -0xd(%ebp),%al
  10faf6:	31 c9                	xor    %ecx,%ecx
  10faf8:	88 c1                	mov    %al,%cl
  10fafa:	8b 45 f8             	mov    -0x8(%ebp),%eax
  10fafd:	8d 50 01             	lea    0x1(%eax),%edx
  10fb00:	89 55 f8             	mov    %edx,-0x8(%ebp)
  10fb03:	8a 00                	mov    (%eax),%al
  10fb05:	31 d2                	xor    %edx,%edx
  10fb07:	88 c2                	mov    %al,%dl
  10fb09:	89 c8                	mov    %ecx,%eax
  10fb0b:	29 d0                	sub    %edx,%eax
  10fb0d:	89 45 f4             	mov    %eax,-0xc(%ebp)
  10fb10:	83 7d f4 00          	cmpl   $0x0,-0xc(%ebp)
  10fb14:	75 13                	jne    10fb29 <strncmp+0x5f>
  10fb16:	80 7d f3 00          	cmpb   $0x0,-0xd(%ebp)
  10fb1a:	74 0d                	je     10fb29 <strncmp+0x5f>
  10fb1c:	8b 45 10             	mov    0x10(%ebp),%eax
  10fb1f:	8d 50 ff             	lea    -0x1(%eax),%edx
  10fb22:	89 55 10             	mov    %edx,0x10(%ebp)
  10fb25:	85 c0                	test   %eax,%eax
  10fb27:	75 bc                	jne    10fae5 <strncmp+0x1b>
  10fb29:	8b 45 f4             	mov    -0xc(%ebp),%eax
  10fb2c:	89 ec                	mov    %ebp,%esp
  10fb2e:	5d                   	pop    %ebp
  10fb2f:	c3                   	ret    

0010fb30 <strncpy>:
  10fb30:	55                   	push   %ebp
  10fb31:	89 e5                	mov    %esp,%ebp
  10fb33:	83 ec 10             	sub    $0x10,%esp
  10fb36:	8b 45 08             	mov    0x8(%ebp),%eax
  10fb39:	89 45 fc             	mov    %eax,-0x4(%ebp)
  10fb3c:	8b 45 0c             	mov    0xc(%ebp),%eax
  10fb3f:	89 45 f8             	mov    %eax,-0x8(%ebp)
  10fb42:	eb 25                	jmp    10fb69 <strncpy+0x39>
  10fb44:	ff 4d 10             	decl   0x10(%ebp)
  10fb47:	8b 45 f8             	mov    -0x8(%ebp),%eax
  10fb4a:	8d 50 01             	lea    0x1(%eax),%edx
  10fb4d:	89 55 f8             	mov    %edx,-0x8(%ebp)
  10fb50:	8a 00                	mov    (%eax),%al
  10fb52:	88 45 f7             	mov    %al,-0x9(%ebp)
  10fb55:	8b 45 fc             	mov    -0x4(%ebp),%eax
  10fb58:	8d 50 01             	lea    0x1(%eax),%edx
  10fb5b:	89 55 fc             	mov    %edx,-0x4(%ebp)
  10fb5e:	8a 55 f7             	mov    -0x9(%ebp),%dl
  10fb61:	88 10                	mov    %dl,(%eax)
  10fb63:	80 7d f7 00          	cmpb   $0x0,-0x9(%ebp)
  10fb67:	74 08                	je     10fb71 <strncpy+0x41>
  10fb69:	83 7d 10 00          	cmpl   $0x0,0x10(%ebp)
  10fb6d:	75 d5                	jne    10fb44 <strncpy+0x14>
  10fb6f:	eb 01                	jmp    10fb72 <strncpy+0x42>
  10fb71:	90                   	nop
  10fb72:	ff 75 10             	push   0x10(%ebp)
  10fb75:	6a 00                	push   $0x0
  10fb77:	ff 75 fc             	push   -0x4(%ebp)
  10fb7a:	e8 ad fa ff ff       	call   10f62c <memset>
  10fb7f:	83 c4 0c             	add    $0xc,%esp
  10fb82:	8b 45 08             	mov    0x8(%ebp),%eax
  10fb85:	89 ec                	mov    %ebp,%esp
  10fb87:	5d                   	pop    %ebp
  10fb88:	c3                   	ret    

0010fb89 <strpbrk>:
  10fb89:	55                   	push   %ebp
  10fb8a:	89 e5                	mov    %esp,%ebp
  10fb8c:	83 ec 10             	sub    $0x10,%esp
  10fb8f:	6a 01                	push   $0x1
  10fb91:	ff 75 0c             	push   0xc(%ebp)
  10fb94:	ff 75 08             	push   0x8(%ebp)
  10fb97:	e8 e5 fa ff ff       	call   10f681 <__strxspn>
  10fb9c:	83 c4 0c             	add    $0xc,%esp
  10fb9f:	8b 55 08             	mov    0x8(%ebp),%edx
  10fba2:	01 d0                	add    %edx,%eax
  10fba4:	89 45 fc             	mov    %eax,-0x4(%ebp)
  10fba7:	8b 45 fc             	mov    -0x4(%ebp),%eax
  10fbaa:	8a 00                	mov    (%eax),%al
  10fbac:	84 c0                	test   %al,%al
  10fbae:	74 05                	je     10fbb5 <strpbrk+0x2c>
  10fbb0:	8b 45 fc             	mov    -0x4(%ebp),%eax
  10fbb3:	eb 05                	jmp    10fbba <strpbrk+0x31>
  10fbb5:	b8 00 00 00 00       	mov    $0x0,%eax
  10fbba:	89 ec                	mov    %ebp,%esp
  10fbbc:	5d                   	pop    %ebp
  10fbbd:	c3                   	ret    

0010fbbe <strsep>:
  10fbbe:	55                   	push   %ebp
  10fbbf:	89 e5                	mov    %esp,%ebp
  10fbc1:	83 ec 10             	sub    $0x10,%esp
  10fbc4:	8b 45 08             	mov    0x8(%ebp),%eax
  10fbc7:	8b 00                	mov    (%eax),%eax
  10fbc9:	89 45 f8             	mov    %eax,-0x8(%ebp)
  10fbcc:	83 7d f8 00          	cmpl   $0x0,-0x8(%ebp)
  10fbd0:	75 07                	jne    10fbd9 <strsep+0x1b>
  10fbd2:	b8 00 00 00 00       	mov    $0x0,%eax
  10fbd7:	eb 2e                	jmp    10fc07 <strsep+0x49>
  10fbd9:	ff 75 0c             	push   0xc(%ebp)
  10fbdc:	ff 75 f8             	push   -0x8(%ebp)
  10fbdf:	e8 a5 ff ff ff       	call   10fb89 <strpbrk>
  10fbe4:	83 c4 08             	add    $0x8,%esp
  10fbe7:	89 45 fc             	mov    %eax,-0x4(%ebp)
  10fbea:	83 7d fc 00          	cmpl   $0x0,-0x4(%ebp)
  10fbee:	74 0c                	je     10fbfc <strsep+0x3e>
  10fbf0:	8b 45 fc             	mov    -0x4(%ebp),%eax
  10fbf3:	8d 50 01             	lea    0x1(%eax),%edx
  10fbf6:	89 55 fc             	mov    %edx,-0x4(%ebp)
  10fbf9:	c6 00 00             	movb   $0x0,(%eax)
  10fbfc:	8b 45 08             	mov    0x8(%ebp),%eax
  10fbff:	8b 55 fc             	mov    -0x4(%ebp),%edx
  10fc02:	89 10                	mov    %edx,(%eax)
  10fc04:	8b 45 f8             	mov    -0x8(%ebp),%eax
  10fc07:	89 ec                	mov    %ebp,%esp
  10fc09:	5d                   	pop    %ebp
  10fc0a:	c3                   	ret    

0010fc0b <strspn>:
  10fc0b:	55                   	push   %ebp
  10fc0c:	89 e5                	mov    %esp,%ebp
  10fc0e:	6a 00                	push   $0x0
  10fc10:	ff 75 0c             	push   0xc(%ebp)
  10fc13:	ff 75 08             	push   0x8(%ebp)
  10fc16:	e8 66 fa ff ff       	call   10f681 <__strxspn>
  10fc1b:	83 c4 0c             	add    $0xc,%esp
  10fc1e:	89 ec                	mov    %ebp,%esp
  10fc20:	5d                   	pop    %ebp
  10fc21:	c3                   	ret    

0010fc22 <strstr>:
  10fc22:	55                   	push   %ebp
  10fc23:	89 e5                	mov    %esp,%ebp
  10fc25:	53                   	push   %ebx
  10fc26:	ff 75 0c             	push   0xc(%ebp)
  10fc29:	e8 5d fd ff ff       	call   10f98b <strlen>
  10fc2e:	83 c4 04             	add    $0x4,%esp
  10fc31:	89 c3                	mov    %eax,%ebx
  10fc33:	ff 75 08             	push   0x8(%ebp)
  10fc36:	e8 50 fd ff ff       	call   10f98b <strlen>
  10fc3b:	83 c4 04             	add    $0x4,%esp
  10fc3e:	53                   	push   %ebx
  10fc3f:	ff 75 0c             	push   0xc(%ebp)
  10fc42:	50                   	push   %eax
  10fc43:	ff 75 08             	push   0x8(%ebp)
  10fc46:	e8 b3 fa ff ff       	call   10f6fe <memmem>
  10fc4b:	83 c4 10             	add    $0x10,%esp
  10fc4e:	8b 5d fc             	mov    -0x4(%ebp),%ebx
  10fc51:	89 ec                	mov    %ebp,%esp
  10fc53:	5d                   	pop    %ebp
  10fc54:	c3                   	ret    

0010fc55 <strtok>:
  10fc55:	55                   	push   %ebp
  10fc56:	89 e5                	mov    %esp,%ebp
  10fc58:	83 7d 08 00          	cmpl   $0x0,0x8(%ebp)
  10fc5c:	74 08                	je     10fc66 <strtok+0x11>
  10fc5e:	8b 45 08             	mov    0x8(%ebp),%eax
  10fc61:	a3 04 ed 12 00       	mov    %eax,0x12ed04
  10fc66:	ff 75 0c             	push   0xc(%ebp)
  10fc69:	68 04 ed 12 00       	push   $0x12ed04
  10fc6e:	e8 4b ff ff ff       	call   10fbbe <strsep>
  10fc73:	83 c4 08             	add    $0x8,%esp
  10fc76:	89 ec                	mov    %ebp,%esp
  10fc78:	5d                   	pop    %ebp
  10fc79:	c3                   	ret    

0010fc7a <isspace>:
  10fc7a:	55                   	push   %ebp
  10fc7b:	89 e5                	mov    %esp,%ebp
  10fc7d:	83 7d 08 20          	cmpl   $0x20,0x8(%ebp)
  10fc81:	74 1e                	je     10fca1 <isspace+0x27>
  10fc83:	83 7d 08 0c          	cmpl   $0xc,0x8(%ebp)
  10fc87:	74 18                	je     10fca1 <isspace+0x27>
  10fc89:	83 7d 08 0a          	cmpl   $0xa,0x8(%ebp)
  10fc8d:	74 12                	je     10fca1 <isspace+0x27>
  10fc8f:	83 7d 08 0d          	cmpl   $0xd,0x8(%ebp)
  10fc93:	74 0c                	je     10fca1 <isspace+0x27>
  10fc95:	83 7d 08 09          	cmpl   $0x9,0x8(%ebp)
  10fc99:	74 06                	je     10fca1 <isspace+0x27>
  10fc9b:	83 7d 08 0b          	cmpl   $0xb,0x8(%ebp)
  10fc9f:	75 07                	jne    10fca8 <isspace+0x2e>
  10fca1:	b8 01 00 00 00       	mov    $0x1,%eax
  10fca6:	eb 05                	jmp    10fcad <isspace+0x33>
  10fca8:	b8 00 00 00 00       	mov    $0x0,%eax
  10fcad:	5d                   	pop    %ebp
  10fcae:	c3                   	ret    

0010fcaf <strtol>:
  10fcaf:	55                   	push   %ebp
  10fcb0:	89 e5                	mov    %esp,%ebp
  10fcb2:	83 ec 10             	sub    $0x10,%esp
  10fcb5:	c7 45 fc 00 00 00 00 	movl   $0x0,-0x4(%ebp)
  10fcbc:	c7 45 f8 00 00 00 00 	movl   $0x0,-0x8(%ebp)
  10fcc3:	eb 03                	jmp    10fcc8 <strtol+0x19>
  10fcc5:	ff 45 08             	incl   0x8(%ebp)
  10fcc8:	8b 45 08             	mov    0x8(%ebp),%eax
  10fccb:	8a 00                	mov    (%eax),%al
  10fccd:	0f be c0             	movsbl %al,%eax
  10fcd0:	50                   	push   %eax
  10fcd1:	e8 a4 ff ff ff       	call   10fc7a <isspace>
  10fcd6:	83 c4 04             	add    $0x4,%esp
  10fcd9:	85 c0                	test   %eax,%eax
  10fcdb:	75 e8                	jne    10fcc5 <strtol+0x16>
  10fcdd:	8b 45 08             	mov    0x8(%ebp),%eax
  10fce0:	8a 00                	mov    (%eax),%al
  10fce2:	3c 2d                	cmp    $0x2d,%al
  10fce4:	75 0c                	jne    10fcf2 <strtol+0x43>
  10fce6:	c7 45 f8 01 00 00 00 	movl   $0x1,-0x8(%ebp)
  10fced:	ff 45 08             	incl   0x8(%ebp)
  10fcf0:	eb 10                	jmp    10fd02 <strtol+0x53>
  10fcf2:	8b 45 08             	mov    0x8(%ebp),%eax
  10fcf5:	8a 00                	mov    (%eax),%al
  10fcf7:	3c 2b                	cmp    $0x2b,%al
  10fcf9:	75 07                	jne    10fd02 <strtol+0x53>
  10fcfb:	c7 45 f8 00 00 00 00 	movl   $0x0,-0x8(%ebp)
  10fd02:	83 7d 10 10          	cmpl   $0x10,0x10(%ebp)
  10fd06:	74 06                	je     10fd0e <strtol+0x5f>
  10fd08:	83 7d 10 00          	cmpl   $0x0,0x10(%ebp)
  10fd0c:	75 28                	jne    10fd36 <strtol+0x87>
  10fd0e:	8b 45 08             	mov    0x8(%ebp),%eax
  10fd11:	8a 00                	mov    (%eax),%al
  10fd13:	3c 30                	cmp    $0x30,%al
  10fd15:	75 1f                	jne    10fd36 <strtol+0x87>
  10fd17:	8b 45 08             	mov    0x8(%ebp),%eax
  10fd1a:	40                   	inc    %eax
  10fd1b:	8a 00                	mov    (%eax),%al
  10fd1d:	3c 78                	cmp    $0x78,%al
  10fd1f:	74 0a                	je     10fd2b <strtol+0x7c>
  10fd21:	8b 45 08             	mov    0x8(%ebp),%eax
  10fd24:	40                   	inc    %eax
  10fd25:	8a 00                	mov    (%eax),%al
  10fd27:	3c 58                	cmp    $0x58,%al
  10fd29:	75 0b                	jne    10fd36 <strtol+0x87>
  10fd2b:	83 45 08 02          	addl   $0x2,0x8(%ebp)
  10fd2f:	c7 45 10 10 00 00 00 	movl   $0x10,0x10(%ebp)
  10fd36:	83 7d 10 00          	cmpl   $0x0,0x10(%ebp)
  10fd3a:	75 19                	jne    10fd55 <strtol+0xa6>
  10fd3c:	8b 45 08             	mov    0x8(%ebp),%eax
  10fd3f:	8a 00                	mov    (%eax),%al
  10fd41:	3c 30                	cmp    $0x30,%al
  10fd43:	75 09                	jne    10fd4e <strtol+0x9f>
  10fd45:	c7 45 10 08 00 00 00 	movl   $0x8,0x10(%ebp)
  10fd4c:	eb 07                	jmp    10fd55 <strtol+0xa6>
  10fd4e:	c7 45 10 0a 00 00 00 	movl   $0xa,0x10(%ebp)
  10fd55:	8b 45 08             	mov    0x8(%ebp),%eax
  10fd58:	8a 00                	mov    (%eax),%al
  10fd5a:	88 45 f7             	mov    %al,-0x9(%ebp)
  10fd5d:	80 7d f7 2f          	cmpb   $0x2f,-0x9(%ebp)
  10fd61:	7e 27                	jle    10fd8a <strtol+0xdb>
  10fd63:	80 7d f7 39          	cmpb   $0x39,-0x9(%ebp)
  10fd67:	7f 21                	jg     10fd8a <strtol+0xdb>
  10fd69:	0f be 45 f7          	movsbl -0x9(%ebp),%eax
  10fd6d:	83 e8 2f             	sub    $0x2f,%eax
  10fd70:	39 45 10             	cmp    %eax,0x10(%ebp)
  10fd73:	7c 15                	jl     10fd8a <strtol+0xdb>
  10fd75:	8b 45 fc             	mov    -0x4(%ebp),%eax
  10fd78:	0f af 45 10          	imul   0x10(%ebp),%eax
  10fd7c:	0f be 55 f7          	movsbl -0x9(%ebp),%edx
  10fd80:	83 ea 30             	sub    $0x30,%edx
  10fd83:	01 d0                	add    %edx,%eax
  10fd85:	89 45 fc             	mov    %eax,-0x4(%ebp)
  10fd88:	eb 58                	jmp    10fde2 <strtol+0x133>
  10fd8a:	80 7d f7 60          	cmpb   $0x60,-0x9(%ebp)
  10fd8e:	7e 27                	jle    10fdb7 <strtol+0x108>
  10fd90:	80 7d f7 7a          	cmpb   $0x7a,-0x9(%ebp)
  10fd94:	7f 21                	jg     10fdb7 <strtol+0x108>
  10fd96:	0f be 45 f7          	movsbl -0x9(%ebp),%eax
  10fd9a:	83 e8 56             	sub    $0x56,%eax
  10fd9d:	39 45 10             	cmp    %eax,0x10(%ebp)
  10fda0:	7c 15                	jl     10fdb7 <strtol+0x108>
  10fda2:	8b 45 fc             	mov    -0x4(%ebp),%eax
  10fda5:	0f af 45 10          	imul   0x10(%ebp),%eax
  10fda9:	0f be 55 f7          	movsbl -0x9(%ebp),%edx
  10fdad:	83 ea 57             	sub    $0x57,%edx
  10fdb0:	01 d0                	add    %edx,%eax
  10fdb2:	89 45 fc             	mov    %eax,-0x4(%ebp)
  10fdb5:	eb 2b                	jmp    10fde2 <strtol+0x133>
  10fdb7:	80 7d f7 40          	cmpb   $0x40,-0x9(%ebp)
  10fdbb:	7e 2d                	jle    10fdea <strtol+0x13b>
  10fdbd:	80 7d f7 5a          	cmpb   $0x5a,-0x9(%ebp)
  10fdc1:	7f 27                	jg     10fdea <strtol+0x13b>
  10fdc3:	0f be 45 f7          	movsbl -0x9(%ebp),%eax
  10fdc7:	83 e8 36             	sub    $0x36,%eax
  10fdca:	39 45 10             	cmp    %eax,0x10(%ebp)
  10fdcd:	7c 1b                	jl     10fdea <strtol+0x13b>
  10fdcf:	8b 45 fc             	mov    -0x4(%ebp),%eax
  10fdd2:	0f af 45 10          	imul   0x10(%ebp),%eax
  10fdd6:	0f be 55 f7          	movsbl -0x9(%ebp),%edx
  10fdda:	83 ea 37             	sub    $0x37,%edx
  10fddd:	01 d0                	add    %edx,%eax
  10fddf:	89 45 fc             	mov    %eax,-0x4(%ebp)
  10fde2:	ff 45 08             	incl   0x8(%ebp)
  10fde5:	e9 6b ff ff ff       	jmp    10fd55 <strtol+0xa6>
  10fdea:	83 7d f8 00          	cmpl   $0x0,-0x8(%ebp)
  10fdee:	74 03                	je     10fdf3 <strtol+0x144>
  10fdf0:	f7 5d fc             	negl   -0x4(%ebp)
  10fdf3:	83 7d 0c 00          	cmpl   $0x0,0xc(%ebp)
  10fdf7:	74 08                	je     10fe01 <strtol+0x152>
  10fdf9:	8b 45 0c             	mov    0xc(%ebp),%eax
  10fdfc:	8b 55 08             	mov    0x8(%ebp),%edx
  10fdff:	89 10                	mov    %edx,(%eax)
  10fe01:	8b 45 fc             	mov    -0x4(%ebp),%eax
  10fe04:	89 ec                	mov    %ebp,%esp
  10fe06:	5d                   	pop    %ebp
  10fe07:	c3                   	ret    

0010fe08 <isspace>:
  10fe08:	55                   	push   %ebp
  10fe09:	89 e5                	mov    %esp,%ebp
  10fe0b:	83 7d 08 20          	cmpl   $0x20,0x8(%ebp)
  10fe0f:	74 1e                	je     10fe2f <isspace+0x27>
  10fe11:	83 7d 08 0c          	cmpl   $0xc,0x8(%ebp)
  10fe15:	74 18                	je     10fe2f <isspace+0x27>
  10fe17:	83 7d 08 0a          	cmpl   $0xa,0x8(%ebp)
  10fe1b:	74 12                	je     10fe2f <isspace+0x27>
  10fe1d:	83 7d 08 0d          	cmpl   $0xd,0x8(%ebp)
  10fe21:	74 0c                	je     10fe2f <isspace+0x27>
  10fe23:	83 7d 08 09          	cmpl   $0x9,0x8(%ebp)
  10fe27:	74 06                	je     10fe2f <isspace+0x27>
  10fe29:	83 7d 08 0b          	cmpl   $0xb,0x8(%ebp)
  10fe2d:	75 07                	jne    10fe36 <isspace+0x2e>
  10fe2f:	b8 01 00 00 00       	mov    $0x1,%eax
  10fe34:	eb 05                	jmp    10fe3b <isspace+0x33>
  10fe36:	b8 00 00 00 00       	mov    $0x0,%eax
  10fe3b:	5d                   	pop    %ebp
  10fe3c:	c3                   	ret    

0010fe3d <strtoul>:
  10fe3d:	55                   	push   %ebp
  10fe3e:	89 e5                	mov    %esp,%ebp
  10fe40:	83 ec 10             	sub    $0x10,%esp
  10fe43:	c7 45 fc 00 00 00 00 	movl   $0x0,-0x4(%ebp)
  10fe4a:	eb 03                	jmp    10fe4f <strtoul+0x12>
  10fe4c:	ff 45 08             	incl   0x8(%ebp)
  10fe4f:	8b 45 08             	mov    0x8(%ebp),%eax
  10fe52:	8a 00                	mov    (%eax),%al
  10fe54:	0f be c0             	movsbl %al,%eax
  10fe57:	50                   	push   %eax
  10fe58:	e8 ab ff ff ff       	call   10fe08 <isspace>
  10fe5d:	83 c4 04             	add    $0x4,%esp
  10fe60:	85 c0                	test   %eax,%eax
  10fe62:	75 e8                	jne    10fe4c <strtoul+0xf>
  10fe64:	83 7d 10 10          	cmpl   $0x10,0x10(%ebp)
  10fe68:	74 06                	je     10fe70 <strtoul+0x33>
  10fe6a:	83 7d 10 00          	cmpl   $0x0,0x10(%ebp)
  10fe6e:	75 28                	jne    10fe98 <strtoul+0x5b>
  10fe70:	8b 45 08             	mov    0x8(%ebp),%eax
  10fe73:	8a 00                	mov    (%eax),%al
  10fe75:	3c 30                	cmp    $0x30,%al
  10fe77:	75 1f                	jne    10fe98 <strtoul+0x5b>
  10fe79:	8b 45 08             	mov    0x8(%ebp),%eax
  10fe7c:	40                   	inc    %eax
  10fe7d:	8a 00                	mov    (%eax),%al
  10fe7f:	3c 78                	cmp    $0x78,%al
  10fe81:	74 0a                	je     10fe8d <strtoul+0x50>
  10fe83:	8b 45 08             	mov    0x8(%ebp),%eax
  10fe86:	40                   	inc    %eax
  10fe87:	8a 00                	mov    (%eax),%al
  10fe89:	3c 58                	cmp    $0x58,%al
  10fe8b:	75 0b                	jne    10fe98 <strtoul+0x5b>
  10fe8d:	83 45 08 02          	addl   $0x2,0x8(%ebp)
  10fe91:	c7 45 10 10 00 00 00 	movl   $0x10,0x10(%ebp)
  10fe98:	83 7d 10 00          	cmpl   $0x0,0x10(%ebp)
  10fe9c:	75 19                	jne    10feb7 <strtoul+0x7a>
  10fe9e:	8b 45 08             	mov    0x8(%ebp),%eax
  10fea1:	8a 00                	mov    (%eax),%al
  10fea3:	3c 30                	cmp    $0x30,%al
  10fea5:	75 09                	jne    10feb0 <strtoul+0x73>
  10fea7:	c7 45 10 08 00 00 00 	movl   $0x8,0x10(%ebp)
  10feae:	eb 07                	jmp    10feb7 <strtoul+0x7a>
  10feb0:	c7 45 10 0a 00 00 00 	movl   $0xa,0x10(%ebp)
  10feb7:	8b 45 08             	mov    0x8(%ebp),%eax
  10feba:	8a 00                	mov    (%eax),%al
  10febc:	88 45 fb             	mov    %al,-0x5(%ebp)
  10febf:	80 7d fb 2f          	cmpb   $0x2f,-0x5(%ebp)
  10fec3:	7e 29                	jle    10feee <strtoul+0xb1>
  10fec5:	80 7d fb 39          	cmpb   $0x39,-0x5(%ebp)
  10fec9:	7f 23                	jg     10feee <strtoul+0xb1>
  10fecb:	0f be 45 fb          	movsbl -0x5(%ebp),%eax
  10fecf:	83 e8 2f             	sub    $0x2f,%eax
  10fed2:	39 45 10             	cmp    %eax,0x10(%ebp)
  10fed5:	7c 17                	jl     10feee <strtoul+0xb1>
  10fed7:	8b 45 10             	mov    0x10(%ebp),%eax
  10feda:	0f af 45 fc          	imul   -0x4(%ebp),%eax
  10fede:	89 c2                	mov    %eax,%edx
  10fee0:	0f be 45 fb          	movsbl -0x5(%ebp),%eax
  10fee4:	01 d0                	add    %edx,%eax
  10fee6:	83 e8 30             	sub    $0x30,%eax
  10fee9:	89 45 fc             	mov    %eax,-0x4(%ebp)
  10feec:	eb 5c                	jmp    10ff4a <strtoul+0x10d>
  10feee:	80 7d fb 60          	cmpb   $0x60,-0x5(%ebp)
  10fef2:	7e 29                	jle    10ff1d <strtoul+0xe0>
  10fef4:	80 7d fb 7a          	cmpb   $0x7a,-0x5(%ebp)
  10fef8:	7f 23                	jg     10ff1d <strtoul+0xe0>
  10fefa:	0f be 45 fb          	movsbl -0x5(%ebp),%eax
  10fefe:	83 e8 56             	sub    $0x56,%eax
  10ff01:	39 45 10             	cmp    %eax,0x10(%ebp)
  10ff04:	7c 17                	jl     10ff1d <strtoul+0xe0>
  10ff06:	8b 45 10             	mov    0x10(%ebp),%eax
  10ff09:	0f af 45 fc          	imul   -0x4(%ebp),%eax
  10ff0d:	89 c2                	mov    %eax,%edx
  10ff0f:	0f be 45 fb          	movsbl -0x5(%ebp),%eax
  10ff13:	01 d0                	add    %edx,%eax
  10ff15:	83 e8 57             	sub    $0x57,%eax
  10ff18:	89 45 fc             	mov    %eax,-0x4(%ebp)
  10ff1b:	eb 2d                	jmp    10ff4a <strtoul+0x10d>
  10ff1d:	80 7d fb 40          	cmpb   $0x40,-0x5(%ebp)
  10ff21:	7e 2f                	jle    10ff52 <strtoul+0x115>
  10ff23:	80 7d fb 5a          	cmpb   $0x5a,-0x5(%ebp)
  10ff27:	7f 29                	jg     10ff52 <strtoul+0x115>
  10ff29:	0f be 45 fb          	movsbl -0x5(%ebp),%eax
  10ff2d:	83 e8 36             	sub    $0x36,%eax
  10ff30:	39 45 10             	cmp    %eax,0x10(%ebp)
  10ff33:	7c 1d                	jl     10ff52 <strtoul+0x115>
  10ff35:	8b 45 10             	mov    0x10(%ebp),%eax
  10ff38:	0f af 45 fc          	imul   -0x4(%ebp),%eax
  10ff3c:	89 c2                	mov    %eax,%edx
  10ff3e:	0f be 45 fb          	movsbl -0x5(%ebp),%eax
  10ff42:	01 d0                	add    %edx,%eax
  10ff44:	83 e8 37             	sub    $0x37,%eax
  10ff47:	89 45 fc             	mov    %eax,-0x4(%ebp)
  10ff4a:	ff 45 08             	incl   0x8(%ebp)
  10ff4d:	e9 65 ff ff ff       	jmp    10feb7 <strtoul+0x7a>
  10ff52:	83 7d 0c 00          	cmpl   $0x0,0xc(%ebp)
  10ff56:	74 08                	je     10ff60 <strtoul+0x123>
  10ff58:	8b 45 0c             	mov    0xc(%ebp),%eax
  10ff5b:	8b 55 08             	mov    0x8(%ebp),%edx
  10ff5e:	89 10                	mov    %edx,(%eax)
  10ff60:	8b 45 fc             	mov    -0x4(%ebp),%eax
  10ff63:	89 ec                	mov    %ebp,%esp
  10ff65:	5d                   	pop    %ebp
  10ff66:	c3                   	ret    

0010ff67 <outb>:
  10ff67:	55                   	push   %ebp
  10ff68:	89 e5                	mov    %esp,%ebp
  10ff6a:	83 ec 08             	sub    $0x8,%esp
  10ff6d:	8b 55 08             	mov    0x8(%ebp),%edx
  10ff70:	8b 45 0c             	mov    0xc(%ebp),%eax
  10ff73:	88 55 fc             	mov    %dl,-0x4(%ebp)
  10ff76:	66 89 45 f8          	mov    %ax,-0x8(%ebp)
  10ff7a:	8a 45 fc             	mov    -0x4(%ebp),%al
  10ff7d:	8b 55 f8             	mov    -0x8(%ebp),%edx
  10ff80:	ee                   	out    %al,(%dx)
  10ff81:	90                   	nop
  10ff82:	89 ec                	mov    %ebp,%esp
  10ff84:	5d                   	pop    %ebp
  10ff85:	c3                   	ret    

0010ff86 <char_pointer>:
  10ff86:	55                   	push   %ebp
  10ff87:	89 e5                	mov    %esp,%ebp
  10ff89:	8b 55 08             	mov    0x8(%ebp),%edx
  10ff8c:	89 d0                	mov    %edx,%eax
  10ff8e:	c1 e0 02             	shl    $0x2,%eax
  10ff91:	01 d0                	add    %edx,%eax
  10ff93:	c1 e0 04             	shl    $0x4,%eax
  10ff96:	89 c2                	mov    %eax,%edx
  10ff98:	8b 45 0c             	mov    0xc(%ebp),%eax
  10ff9b:	01 d0                	add    %edx,%eax
  10ff9d:	01 c0                	add    %eax,%eax
  10ff9f:	05 00 80 0b 00       	add    $0xb8000,%eax
  10ffa4:	5d                   	pop    %ebp
  10ffa5:	c3                   	ret    

0010ffa6 <char_write>:
  10ffa6:	55                   	push   %ebp
  10ffa7:	89 e5                	mov    %esp,%ebp
  10ffa9:	83 ec 14             	sub    $0x14,%esp
  10ffac:	8b 45 10             	mov    0x10(%ebp),%eax
  10ffaf:	88 45 ec             	mov    %al,-0x14(%ebp)
  10ffb2:	ff 75 0c             	push   0xc(%ebp)
  10ffb5:	ff 75 08             	push   0x8(%ebp)
  10ffb8:	e8 c9 ff ff ff       	call   10ff86 <char_pointer>
  10ffbd:	83 c4 08             	add    $0x8,%esp
  10ffc0:	89 45 fc             	mov    %eax,-0x4(%ebp)
  10ffc3:	8b 45 14             	mov    0x14(%ebp),%eax
  10ffc6:	c1 e0 08             	shl    $0x8,%eax
  10ffc9:	25 00 0f 00 00       	and    $0xf00,%eax
  10ffce:	89 c2                	mov    %eax,%edx
  10ffd0:	8b 45 18             	mov    0x18(%ebp),%eax
  10ffd3:	c1 e0 0c             	shl    $0xc,%eax
  10ffd6:	25 00 70 00 00       	and    $0x7000,%eax
  10ffdb:	09 c2                	or     %eax,%edx
  10ffdd:	66 0f be 45 ec       	movsbw -0x14(%ebp),%ax
  10ffe2:	09 d0                	or     %edx,%eax
  10ffe4:	8b 55 fc             	mov    -0x4(%ebp),%edx
  10ffe7:	66 89 02             	mov    %ax,(%edx)
  10ffea:	90                   	nop
  10ffeb:	89 ec                	mov    %ebp,%esp
  10ffed:	5d                   	pop    %ebp
  10ffee:	c3                   	ret    

0010ffef <cursor_pos>:
  10ffef:	55                   	push   %ebp
  10fff0:	89 e5                	mov    %esp,%ebp
  10fff2:	83 ec 10             	sub    $0x10,%esp
  10fff5:	8b 45 08             	mov    0x8(%ebp),%eax
  10fff8:	89 c2                	mov    %eax,%edx
  10fffa:	89 d0                	mov    %edx,%eax
  10fffc:	c1 e0 02             	shl    $0x2,%eax
  10ffff:	01 d0                	add    %edx,%eax
  110001:	c1 e0 04             	shl    $0x4,%eax
  110004:	89 c2                	mov    %eax,%edx
  110006:	8b 45 0c             	mov    0xc(%ebp),%eax
  110009:	01 d0                	add    %edx,%eax
  11000b:	66 89 45 fe          	mov    %ax,-0x2(%ebp)
  11000f:	68 d4 03 00 00       	push   $0x3d4
  110014:	6a 0f                	push   $0xf
  110016:	e8 4c ff ff ff       	call   10ff67 <outb>
  11001b:	83 c4 08             	add    $0x8,%esp
  11001e:	66 8b 45 fe          	mov    -0x2(%ebp),%ax
  110022:	25 ff 00 00 00       	and    $0xff,%eax
  110027:	68 d5 03 00 00       	push   $0x3d5
  11002c:	50                   	push   %eax
  11002d:	e8 35 ff ff ff       	call   10ff67 <outb>
  110032:	83 c4 08             	add    $0x8,%esp
  110035:	68 d4 03 00 00       	push   $0x3d4
  11003a:	6a 0e                	push   $0xe
  11003c:	e8 26 ff ff ff       	call   10ff67 <outb>
  110041:	83 c4 08             	add    $0x8,%esp
  110044:	66 8b 45 fe          	mov    -0x2(%ebp),%ax
  110048:	66 c1 e8 08          	shr    $0x8,%ax
  11004c:	25 ff 00 00 00       	and    $0xff,%eax
  110051:	68 d5 03 00 00       	push   $0x3d5
  110056:	50                   	push   %eax
  110057:	e8 0b ff ff ff       	call   10ff67 <outb>
  11005c:	83 c4 08             	add    $0x8,%esp
  11005f:	90                   	nop
  110060:	89 ec                	mov    %ebp,%esp
  110062:	5d                   	pop    %ebp
  110063:	c3                   	ret    

00110064 <screen_clear>:
  110064:	55                   	push   %ebp
  110065:	89 e5                	mov    %esp,%ebp
  110067:	83 ec 10             	sub    $0x10,%esp
  11006a:	c7 45 fc 00 80 0b 00 	movl   $0xb8000,-0x4(%ebp)
  110071:	eb 12                	jmp    110085 <screen_clear+0x21>
  110073:	8b 45 fc             	mov    -0x4(%ebp),%eax
  110076:	c6 00 20             	movb   $0x20,(%eax)
  110079:	ff 45 fc             	incl   -0x4(%ebp)
  11007c:	8b 45 fc             	mov    -0x4(%ebp),%eax
  11007f:	c6 00 0f             	movb   $0xf,(%eax)
  110082:	ff 45 fc             	incl   -0x4(%ebp)
  110085:	81 7d fc 9f 8f 0b 00 	cmpl   $0xb8f9f,-0x4(%ebp)
  11008c:	76 e5                	jbe    110073 <screen_clear+0xf>
  11008e:	90                   	nop
  11008f:	90                   	nop
  110090:	89 ec                	mov    %ebp,%esp
  110092:	5d                   	pop    %ebp
  110093:	c3                   	ret    

00110094 <scroll_down>:
  110094:	55                   	push   %ebp
  110095:	89 e5                	mov    %esp,%ebp
  110097:	83 ec 18             	sub    $0x18,%esp
  11009a:	c7 45 f4 00 80 0b 00 	movl   $0xb8000,-0xc(%ebp)
  1100a1:	c7 45 f0 a0 80 0b 00 	movl   $0xb80a0,-0x10(%ebp)
  1100a8:	c7 45 ec 00 8f 0b 00 	movl   $0xb8f00,-0x14(%ebp)
  1100af:	83 ec 04             	sub    $0x4,%esp
  1100b2:	68 00 0f 00 00       	push   $0xf00
  1100b7:	ff 75 f0             	push   -0x10(%ebp)
  1100ba:	ff 75 f4             	push   -0xc(%ebp)
  1100bd:	e8 fa f4 ff ff       	call   10f5bc <memmove>
  1100c2:	83 c4 10             	add    $0x10,%esp
  1100c5:	83 ec 04             	sub    $0x4,%esp
  1100c8:	68 a0 00 00 00       	push   $0xa0
  1100cd:	6a 00                	push   $0x0
  1100cf:	ff 75 ec             	push   -0x14(%ebp)
  1100d2:	e8 55 f5 ff ff       	call   10f62c <memset>
  1100d7:	83 c4 10             	add    $0x10,%esp
  1100da:	90                   	nop
  1100db:	89 ec                	mov    %ebp,%esp
  1100dd:	5d                   	pop    %ebp
  1100de:	c3                   	ret    

001100df <char_write_formatted>:
  1100df:	55                   	push   %ebp
  1100e0:	89 e5                	mov    %esp,%ebp
  1100e2:	56                   	push   %esi
  1100e3:	53                   	push   %ebx
  1100e4:	83 ec 10             	sub    $0x10,%esp
  1100e7:	8b 45 08             	mov    0x8(%ebp),%eax
  1100ea:	88 45 f4             	mov    %al,-0xc(%ebp)
  1100ed:	80 7d f4 1f          	cmpb   $0x1f,-0xc(%ebp)
  1100f1:	7e 3c                	jle    11012f <char_write_formatted+0x50>
  1100f3:	80 7d f4 7f          	cmpb   $0x7f,-0xc(%ebp)
  1100f7:	74 36                	je     11012f <char_write_formatted+0x50>
  1100f9:	8b 35 10 ed 12 00    	mov    0x12ed10,%esi
  1100ff:	8b 1d b8 a0 11 00    	mov    0x11a0b8,%ebx
  110105:	0f be 4d f4          	movsbl -0xc(%ebp),%ecx
  110109:	a1 0c ed 12 00       	mov    0x12ed0c,%eax
  11010e:	8d 50 01             	lea    0x1(%eax),%edx
  110111:	89 15 0c ed 12 00    	mov    %edx,0x12ed0c
  110117:	8b 15 08 ed 12 00    	mov    0x12ed08,%edx
  11011d:	56                   	push   %esi
  11011e:	53                   	push   %ebx
  11011f:	51                   	push   %ecx
  110120:	50                   	push   %eax
  110121:	52                   	push   %edx
  110122:	e8 7f fe ff ff       	call   10ffa6 <char_write>
  110127:	83 c4 14             	add    $0x14,%esp
  11012a:	e9 8c 00 00 00       	jmp    1101bb <char_write_formatted+0xdc>
  11012f:	80 7d f4 08          	cmpb   $0x8,-0xc(%ebp)
  110133:	75 16                	jne    11014b <char_write_formatted+0x6c>
  110135:	a1 0c ed 12 00       	mov    0x12ed0c,%eax
  11013a:	85 c0                	test   %eax,%eax
  11013c:	74 7d                	je     1101bb <char_write_formatted+0xdc>
  11013e:	a1 0c ed 12 00       	mov    0x12ed0c,%eax
  110143:	48                   	dec    %eax
  110144:	a3 0c ed 12 00       	mov    %eax,0x12ed0c
  110149:	eb 70                	jmp    1101bb <char_write_formatted+0xdc>
  11014b:	80 7d f4 09          	cmpb   $0x9,-0xc(%ebp)
  11014f:	75 1c                	jne    11016d <char_write_formatted+0x8e>
  110151:	a1 0c ed 12 00       	mov    0x12ed0c,%eax
  110156:	83 e0 f0             	and    $0xfffffff0,%eax
  110159:	a3 0c ed 12 00       	mov    %eax,0x12ed0c
  11015e:	a1 0c ed 12 00       	mov    0x12ed0c,%eax
  110163:	83 c0 08             	add    $0x8,%eax
  110166:	a3 0c ed 12 00       	mov    %eax,0x12ed0c
  11016b:	eb 4e                	jmp    1101bb <char_write_formatted+0xdc>
  11016d:	80 7d f4 0a          	cmpb   $0xa,-0xc(%ebp)
  110171:	75 17                	jne    11018a <char_write_formatted+0xab>
  110173:	a1 08 ed 12 00       	mov    0x12ed08,%eax
  110178:	40                   	inc    %eax
  110179:	a3 08 ed 12 00       	mov    %eax,0x12ed08
  11017e:	c7 05 0c ed 12 00 00 	movl   $0x0,0x12ed0c
  110185:	00 00 00 
  110188:	eb 31                	jmp    1101bb <char_write_formatted+0xdc>
  11018a:	80 7d f4 0c          	cmpb   $0xc,-0xc(%ebp)
  11018e:	75 1b                	jne    1101ab <char_write_formatted+0xcc>
  110190:	e8 cf fe ff ff       	call   110064 <screen_clear>
  110195:	c7 05 08 ed 12 00 00 	movl   $0x0,0x12ed08
  11019c:	00 00 00 
  11019f:	c7 05 0c ed 12 00 00 	movl   $0x0,0x12ed0c
  1101a6:	00 00 00 
  1101a9:	eb 10                	jmp    1101bb <char_write_formatted+0xdc>
  1101ab:	80 7d f4 0d          	cmpb   $0xd,-0xc(%ebp)
  1101af:	75 0a                	jne    1101bb <char_write_formatted+0xdc>
  1101b1:	c7 05 0c ed 12 00 00 	movl   $0x0,0x12ed0c
  1101b8:	00 00 00 
  1101bb:	a1 0c ed 12 00       	mov    0x12ed0c,%eax
  1101c0:	83 f8 4f             	cmp    $0x4f,%eax
  1101c3:	76 27                	jbe    1101ec <char_write_formatted+0x10d>
  1101c5:	c7 05 0c ed 12 00 00 	movl   $0x0,0x12ed0c
  1101cc:	00 00 00 
  1101cf:	a1 08 ed 12 00       	mov    0x12ed08,%eax
  1101d4:	40                   	inc    %eax
  1101d5:	a3 08 ed 12 00       	mov    %eax,0x12ed08
  1101da:	eb 10                	jmp    1101ec <char_write_formatted+0x10d>
  1101dc:	e8 b3 fe ff ff       	call   110094 <scroll_down>
  1101e1:	a1 08 ed 12 00       	mov    0x12ed08,%eax
  1101e6:	48                   	dec    %eax
  1101e7:	a3 08 ed 12 00       	mov    %eax,0x12ed08
  1101ec:	a1 08 ed 12 00       	mov    0x12ed08,%eax
  1101f1:	83 f8 17             	cmp    $0x17,%eax
  1101f4:	77 e6                	ja     1101dc <char_write_formatted+0xfd>
  1101f6:	8b 15 0c ed 12 00    	mov    0x12ed0c,%edx
  1101fc:	a1 08 ed 12 00       	mov    0x12ed08,%eax
  110201:	83 ec 08             	sub    $0x8,%esp
  110204:	52                   	push   %edx
  110205:	50                   	push   %eax
  110206:	e8 e4 fd ff ff       	call   10ffef <cursor_pos>
  11020b:	83 c4 10             	add    $0x10,%esp
  11020e:	90                   	nop
  11020f:	8d 65 f8             	lea    -0x8(%ebp),%esp
  110212:	5b                   	pop    %ebx
  110213:	5e                   	pop    %esi
  110214:	5d                   	pop    %ebp
  110215:	c3                   	ret    

00110216 <cga_write_bytes>:
  110216:	55                   	push   %ebp
  110217:	89 e5                	mov    %esp,%ebp
  110219:	83 ec 08             	sub    $0x8,%esp
  11021c:	eb 1a                	jmp    110238 <cga_write_bytes+0x22>
  11021e:	8b 45 08             	mov    0x8(%ebp),%eax
  110221:	8a 00                	mov    (%eax),%al
  110223:	0f be c0             	movsbl %al,%eax
  110226:	83 ec 0c             	sub    $0xc,%esp
  110229:	50                   	push   %eax
  11022a:	e8 b0 fe ff ff       	call   1100df <char_write_formatted>
  11022f:	83 c4 10             	add    $0x10,%esp
  110232:	ff 45 08             	incl   0x8(%ebp)
  110235:	ff 4d 0c             	decl   0xc(%ebp)
  110238:	83 7d 0c 00          	cmpl   $0x0,0xc(%ebp)
  11023c:	7f e0                	jg     11021e <cga_write_bytes+0x8>
  11023e:	90                   	nop
  11023f:	90                   	nop
  110240:	89 ec                	mov    %ebp,%esp
  110242:	5d                   	pop    %ebp
  110243:	c3                   	ret    

00110244 <cga_fg_color>:
  110244:	55                   	push   %ebp
  110245:	89 e5                	mov    %esp,%ebp
  110247:	8b 45 08             	mov    0x8(%ebp),%eax
  11024a:	a3 b8 a0 11 00       	mov    %eax,0x11a0b8
  11024f:	90                   	nop
  110250:	5d                   	pop    %ebp
  110251:	c3                   	ret    

00110252 <cga_bg_color>:
  110252:	55                   	push   %ebp
  110253:	89 e5                	mov    %esp,%ebp
  110255:	8b 45 08             	mov    0x8(%ebp),%eax
  110258:	a3 10 ed 12 00       	mov    %eax,0x12ed10
  11025d:	90                   	nop
  11025e:	5d                   	pop    %ebp
  11025f:	c3                   	ret    

00110260 <outb>:
  110260:	55                   	push   %ebp
  110261:	89 e5                	mov    %esp,%ebp
  110263:	83 ec 08             	sub    $0x8,%esp
  110266:	8b 55 08             	mov    0x8(%ebp),%edx
  110269:	8b 45 0c             	mov    0xc(%ebp),%eax
  11026c:	88 55 fc             	mov    %dl,-0x4(%ebp)
  11026f:	66 89 45 f8          	mov    %ax,-0x8(%ebp)
  110273:	8a 45 fc             	mov    -0x4(%ebp),%al
  110276:	8b 55 f8             	mov    -0x8(%ebp),%edx
  110279:	ee                   	out    %al,(%dx)
  11027a:	90                   	nop
  11027b:	89 ec                	mov    %ebp,%esp
  11027d:	5d                   	pop    %ebp
  11027e:	c3                   	ret    

0011027f <inb>:
  11027f:	55                   	push   %ebp
  110280:	89 e5                	mov    %esp,%ebp
  110282:	83 ec 14             	sub    $0x14,%esp
  110285:	8b 45 08             	mov    0x8(%ebp),%eax
  110288:	66 89 45 ec          	mov    %ax,-0x14(%ebp)
  11028c:	8b 45 ec             	mov    -0x14(%ebp),%eax
  11028f:	89 c2                	mov    %eax,%edx
  110291:	ec                   	in     (%dx),%al
  110292:	88 45 ff             	mov    %al,-0x1(%ebp)
  110295:	8a 45 ff             	mov    -0x1(%ebp),%al
  110298:	89 ec                	mov    %ebp,%esp
  11029a:	5d                   	pop    %ebp
  11029b:	c3                   	ret    

0011029c <cmos_nmi_enable>:
  11029c:	55                   	push   %ebp
  11029d:	89 e5                	mov    %esp,%ebp
  11029f:	6a 70                	push   $0x70
  1102a1:	e8 d9 ff ff ff       	call   11027f <inb>
  1102a6:	83 c4 04             	add    $0x4,%esp
  1102a9:	25 ff 00 00 00       	and    $0xff,%eax
  1102ae:	83 e0 7f             	and    $0x7f,%eax
  1102b1:	6a 70                	push   $0x70
  1102b3:	50                   	push   %eax
  1102b4:	e8 a7 ff ff ff       	call   110260 <outb>
  1102b9:	83 c4 08             	add    $0x8,%esp
  1102bc:	6a 71                	push   $0x71
  1102be:	e8 bc ff ff ff       	call   11027f <inb>
  1102c3:	83 c4 04             	add    $0x4,%esp
  1102c6:	90                   	nop
  1102c7:	89 ec                	mov    %ebp,%esp
  1102c9:	5d                   	pop    %ebp
  1102ca:	c3                   	ret    

001102cb <cmos_nmi_disable>:
  1102cb:	55                   	push   %ebp
  1102cc:	89 e5                	mov    %esp,%ebp
  1102ce:	6a 70                	push   $0x70
  1102d0:	e8 aa ff ff ff       	call   11027f <inb>
  1102d5:	83 c4 04             	add    $0x4,%esp
  1102d8:	83 c8 80             	or     $0xffffff80,%eax
  1102db:	25 ff 00 00 00       	and    $0xff,%eax
  1102e0:	6a 70                	push   $0x70
  1102e2:	50                   	push   %eax
  1102e3:	e8 78 ff ff ff       	call   110260 <outb>
  1102e8:	83 c4 08             	add    $0x8,%esp
  1102eb:	6a 71                	push   $0x71
  1102ed:	e8 8d ff ff ff       	call   11027f <inb>
  1102f2:	83 c4 04             	add    $0x4,%esp
  1102f5:	90                   	nop
  1102f6:	89 ec                	mov    %ebp,%esp
  1102f8:	5d                   	pop    %ebp
  1102f9:	c3                   	ret    

001102fa <get_cmos_reg>:
  1102fa:	55                   	push   %ebp
  1102fb:	89 e5                	mov    %esp,%ebp
  1102fd:	83 ec 18             	sub    $0x18,%esp
  110300:	8b 55 08             	mov    0x8(%ebp),%edx
  110303:	8b 45 0c             	mov    0xc(%ebp),%eax
  110306:	88 55 ec             	mov    %dl,-0x14(%ebp)
  110309:	88 45 e8             	mov    %al,-0x18(%ebp)
  11030c:	8a 45 e8             	mov    -0x18(%ebp),%al
  11030f:	25 ff 00 00 00       	and    $0xff,%eax
  110314:	c1 e0 07             	shl    $0x7,%eax
  110317:	88 c2                	mov    %al,%dl
  110319:	8a 45 ec             	mov    -0x14(%ebp),%al
  11031c:	09 d0                	or     %edx,%eax
  11031e:	25 ff 00 00 00       	and    $0xff,%eax
  110323:	6a 70                	push   $0x70
  110325:	50                   	push   %eax
  110326:	e8 35 ff ff ff       	call   110260 <outb>
  11032b:	83 c4 08             	add    $0x8,%esp
  11032e:	6a 71                	push   $0x71
  110330:	e8 4a ff ff ff       	call   11027f <inb>
  110335:	83 c4 04             	add    $0x4,%esp
  110338:	88 45 ff             	mov    %al,-0x1(%ebp)
  11033b:	8a 45 ff             	mov    -0x1(%ebp),%al
  11033e:	89 ec                	mov    %ebp,%esp
  110340:	5d                   	pop    %ebp
  110341:	c3                   	ret    

00110342 <get_cmos_reg_bcd>:
  110342:	55                   	push   %ebp
  110343:	89 e5                	mov    %esp,%ebp
  110345:	83 ec 18             	sub    $0x18,%esp
  110348:	8b 55 08             	mov    0x8(%ebp),%edx
  11034b:	8b 45 0c             	mov    0xc(%ebp),%eax
  11034e:	88 55 ec             	mov    %dl,-0x14(%ebp)
  110351:	88 45 e8             	mov    %al,-0x18(%ebp)
  110354:	8a 45 e8             	mov    -0x18(%ebp),%al
  110357:	31 d2                	xor    %edx,%edx
  110359:	88 c2                	mov    %al,%dl
  11035b:	8a 45 ec             	mov    -0x14(%ebp),%al
  11035e:	25 ff 00 00 00       	and    $0xff,%eax
  110363:	52                   	push   %edx
  110364:	50                   	push   %eax
  110365:	e8 90 ff ff ff       	call   1102fa <get_cmos_reg>
  11036a:	83 c4 08             	add    $0x8,%esp
  11036d:	88 45 ff             	mov    %al,-0x1(%ebp)
  110370:	8a 45 ff             	mov    -0x1(%ebp),%al
  110373:	c0 e8 04             	shr    $0x4,%al
  110376:	88 c2                	mov    %al,%dl
  110378:	88 d0                	mov    %dl,%al
  11037a:	c1 e0 02             	shl    $0x2,%eax
  11037d:	01 d0                	add    %edx,%eax
  11037f:	01 c0                	add    %eax,%eax
  110381:	88 c2                	mov    %al,%dl
  110383:	8a 45 ff             	mov    -0x1(%ebp),%al
  110386:	83 e0 0f             	and    $0xf,%eax
  110389:	01 d0                	add    %edx,%eax
  11038b:	89 ec                	mov    %ebp,%esp
  11038d:	5d                   	pop    %ebp
  11038e:	c3                   	ret    

0011038f <set_cmos_reg>:
  11038f:	55                   	push   %ebp
  110390:	89 e5                	mov    %esp,%ebp
  110392:	83 ec 0c             	sub    $0xc,%esp
  110395:	8b 4d 08             	mov    0x8(%ebp),%ecx
  110398:	8b 55 0c             	mov    0xc(%ebp),%edx
  11039b:	8b 45 10             	mov    0x10(%ebp),%eax
  11039e:	88 4d fc             	mov    %cl,-0x4(%ebp)
  1103a1:	88 55 f8             	mov    %dl,-0x8(%ebp)
  1103a4:	88 45 f4             	mov    %al,-0xc(%ebp)
  1103a7:	8a 45 f4             	mov    -0xc(%ebp),%al
  1103aa:	25 ff 00 00 00       	and    $0xff,%eax
  1103af:	c1 e0 07             	shl    $0x7,%eax
  1103b2:	88 c2                	mov    %al,%dl
  1103b4:	8a 45 fc             	mov    -0x4(%ebp),%al
  1103b7:	09 d0                	or     %edx,%eax
  1103b9:	25 ff 00 00 00       	and    $0xff,%eax
  1103be:	6a 70                	push   $0x70
  1103c0:	50                   	push   %eax
  1103c1:	e8 9a fe ff ff       	call   110260 <outb>
  1103c6:	83 c4 08             	add    $0x8,%esp
  1103c9:	8a 45 f8             	mov    -0x8(%ebp),%al
  1103cc:	25 ff 00 00 00       	and    $0xff,%eax
  1103d1:	6a 71                	push   $0x71
  1103d3:	50                   	push   %eax
  1103d4:	e8 87 fe ff ff       	call   110260 <outb>
  1103d9:	83 c4 08             	add    $0x8,%esp
  1103dc:	90                   	nop
  1103dd:	89 ec                	mov    %ebp,%esp
  1103df:	5d                   	pop    %ebp
  1103e0:	c3                   	ret    

001103e1 <console_putbytes>:
  1103e1:	55                   	push   %ebp
  1103e2:	89 e5                	mov    %esp,%ebp
  1103e4:	83 ec 08             	sub    $0x8,%esp
  1103e7:	83 ec 08             	sub    $0x8,%esp
  1103ea:	ff 75 0c             	push   0xc(%ebp)
  1103ed:	ff 75 08             	push   0x8(%ebp)
  1103f0:	e8 21 fe ff ff       	call   110216 <cga_write_bytes>
  1103f5:	83 c4 10             	add    $0x10,%esp
  1103f8:	90                   	nop
  1103f9:	89 ec                	mov    %ebp,%esp
  1103fb:	5d                   	pop    %ebp
  1103fc:	c3                   	ret    

001103fd <outb>:
  1103fd:	55                   	push   %ebp
  1103fe:	89 e5                	mov    %esp,%ebp
  110400:	83 ec 08             	sub    $0x8,%esp
  110403:	8b 55 08             	mov    0x8(%ebp),%edx
  110406:	8b 45 0c             	mov    0xc(%ebp),%eax
  110409:	88 55 fc             	mov    %dl,-0x4(%ebp)
  11040c:	66 89 45 f8          	mov    %ax,-0x8(%ebp)
  110410:	8a 45 fc             	mov    -0x4(%ebp),%al
  110413:	8b 55 f8             	mov    -0x8(%ebp),%edx
  110416:	ee                   	out    %al,(%dx)
  110417:	90                   	nop
  110418:	89 ec                	mov    %ebp,%esp
  11041a:	5d                   	pop    %ebp
  11041b:	c3                   	ret    

0011041c <inb>:
  11041c:	55                   	push   %ebp
  11041d:	89 e5                	mov    %esp,%ebp
  11041f:	83 ec 14             	sub    $0x14,%esp
  110422:	8b 45 08             	mov    0x8(%ebp),%eax
  110425:	66 89 45 ec          	mov    %ax,-0x14(%ebp)
  110429:	8b 45 ec             	mov    -0x14(%ebp),%eax
  11042c:	89 c2                	mov    %eax,%edx
  11042e:	ec                   	in     (%dx),%al
  11042f:	88 45 ff             	mov    %al,-0x1(%ebp)
  110432:	8a 45 ff             	mov    -0x1(%ebp),%al
  110435:	89 ec                	mov    %ebp,%esp
  110437:	5d                   	pop    %ebp
  110438:	c3                   	ret    

00110439 <idt_set_gate>:
  110439:	55                   	push   %ebp
  11043a:	89 e5                	mov    %esp,%ebp
  11043c:	83 ec 1c             	sub    $0x1c,%esp
  11043f:	8b 4d 08             	mov    0x8(%ebp),%ecx
  110442:	8b 55 0c             	mov    0xc(%ebp),%edx
  110445:	8b 45 14             	mov    0x14(%ebp),%eax
  110448:	88 4d ec             	mov    %cl,-0x14(%ebp)
  11044b:	66 89 55 e8          	mov    %dx,-0x18(%ebp)
  11044f:	66 89 45 e4          	mov    %ax,-0x1c(%ebp)
  110453:	8a 45 ec             	mov    -0x14(%ebp),%al
  110456:	25 ff 00 00 00       	and    $0xff,%eax
  11045b:	c1 e0 03             	shl    $0x3,%eax
  11045e:	05 00 10 00 00       	add    $0x1000,%eax
  110463:	89 45 fc             	mov    %eax,-0x4(%ebp)
  110466:	8b 45 e8             	mov    -0x18(%ebp),%eax
  110469:	25 ff ff 00 00       	and    $0xffff,%eax
  11046e:	c1 e0 10             	shl    $0x10,%eax
  110471:	89 c2                	mov    %eax,%edx
  110473:	8b 45 10             	mov    0x10(%ebp),%eax
  110476:	25 ff ff 00 00       	and    $0xffff,%eax
  11047b:	09 c2                	or     %eax,%edx
  11047d:	8b 45 fc             	mov    -0x4(%ebp),%eax
  110480:	89 10                	mov    %edx,(%eax)
  110482:	8b 45 10             	mov    0x10(%ebp),%eax
  110485:	25 00 00 ff ff       	and    $0xffff0000,%eax
  11048a:	89 c1                	mov    %eax,%ecx
  11048c:	8b 45 e4             	mov    -0x1c(%ebp),%eax
  11048f:	31 d2                	xor    %edx,%edx
  110491:	66 89 c2             	mov    %ax,%dx
  110494:	8b 45 fc             	mov    -0x4(%ebp),%eax
  110497:	83 c0 04             	add    $0x4,%eax
  11049a:	09 ca                	or     %ecx,%edx
  11049c:	89 10                	mov    %edx,(%eax)
  11049e:	90                   	nop
  11049f:	89 ec                	mov    %ebp,%esp
  1104a1:	5d                   	pop    %ebp
  1104a2:	c3                   	ret    

001104a3 <idt_interrupt_gate>:
  1104a3:	55                   	push   %ebp
  1104a4:	89 e5                	mov    %esp,%ebp
  1104a6:	83 ec 08             	sub    $0x8,%esp
  1104a9:	8b 55 08             	mov    0x8(%ebp),%edx
  1104ac:	8b 45 10             	mov    0x10(%ebp),%eax
  1104af:	88 55 fc             	mov    %dl,-0x4(%ebp)
  1104b2:	88 45 f8             	mov    %al,-0x8(%ebp)
  1104b5:	8a 45 f8             	mov    -0x8(%ebp),%al
  1104b8:	25 ff 00 00 00       	and    $0xff,%eax
  1104bd:	c1 e0 0d             	shl    $0xd,%eax
  1104c0:	25 00 60 00 00       	and    $0x6000,%eax
  1104c5:	0d 00 8e ff ff       	or     $0xffff8e00,%eax
  1104ca:	31 d2                	xor    %edx,%edx
  1104cc:	66 89 c2             	mov    %ax,%dx
  1104cf:	8a 45 fc             	mov    -0x4(%ebp),%al
  1104d2:	25 ff 00 00 00       	and    $0xff,%eax
  1104d7:	52                   	push   %edx
  1104d8:	ff 75 0c             	push   0xc(%ebp)
  1104db:	6a 10                	push   $0x10
  1104dd:	50                   	push   %eax
  1104de:	e8 56 ff ff ff       	call   110439 <idt_set_gate>
  1104e3:	83 c4 10             	add    $0x10,%esp
  1104e6:	90                   	nop
  1104e7:	89 ec                	mov    %ebp,%esp
  1104e9:	5d                   	pop    %ebp
  1104ea:	c3                   	ret    

001104eb <idt_trap_gate>:
  1104eb:	55                   	push   %ebp
  1104ec:	89 e5                	mov    %esp,%ebp
  1104ee:	83 ec 08             	sub    $0x8,%esp
  1104f1:	8b 55 08             	mov    0x8(%ebp),%edx
  1104f4:	8b 45 10             	mov    0x10(%ebp),%eax
  1104f7:	88 55 fc             	mov    %dl,-0x4(%ebp)
  1104fa:	88 45 f8             	mov    %al,-0x8(%ebp)
  1104fd:	8a 45 f8             	mov    -0x8(%ebp),%al
  110500:	25 ff 00 00 00       	and    $0xff,%eax
  110505:	c1 e0 0d             	shl    $0xd,%eax
  110508:	25 00 60 00 00       	and    $0x6000,%eax
  11050d:	0d 00 8f ff ff       	or     $0xffff8f00,%eax
  110512:	31 d2                	xor    %edx,%edx
  110514:	66 89 c2             	mov    %ax,%dx
  110517:	8a 45 fc             	mov    -0x4(%ebp),%al
  11051a:	25 ff 00 00 00       	and    $0xff,%eax
  11051f:	52                   	push   %edx
  110520:	ff 75 0c             	push   0xc(%ebp)
  110523:	6a 10                	push   $0x10
  110525:	50                   	push   %eax
  110526:	e8 0e ff ff ff       	call   110439 <idt_set_gate>
  11052b:	83 c4 10             	add    $0x10,%esp
  11052e:	90                   	nop
  11052f:	89 ec                	mov    %ebp,%esp
  110531:	5d                   	pop    %ebp
  110532:	c3                   	ret    

00110533 <idt_task_gate>:
  110533:	55                   	push   %ebp
  110534:	89 e5                	mov    %esp,%ebp
  110536:	83 ec 0c             	sub    $0xc,%esp
  110539:	8b 4d 08             	mov    0x8(%ebp),%ecx
  11053c:	8b 45 0c             	mov    0xc(%ebp),%eax
  11053f:	8b 55 10             	mov    0x10(%ebp),%edx
  110542:	88 4d fc             	mov    %cl,-0x4(%ebp)
  110545:	66 89 45 f8          	mov    %ax,-0x8(%ebp)
  110549:	88 d0                	mov    %dl,%al
  11054b:	88 45 f4             	mov    %al,-0xc(%ebp)
  11054e:	8a 45 f4             	mov    -0xc(%ebp),%al
  110551:	25 ff 00 00 00       	and    $0xff,%eax
  110556:	c1 e0 0d             	shl    $0xd,%eax
  110559:	25 00 60 00 00       	and    $0x6000,%eax
  11055e:	0d 00 85 ff ff       	or     $0xffff8500,%eax
  110563:	31 c9                	xor    %ecx,%ecx
  110565:	66 89 c1             	mov    %ax,%cx
  110568:	8b 45 f8             	mov    -0x8(%ebp),%eax
  11056b:	31 d2                	xor    %edx,%edx
  11056d:	66 89 c2             	mov    %ax,%dx
  110570:	8a 45 fc             	mov    -0x4(%ebp),%al
  110573:	25 ff 00 00 00       	and    $0xff,%eax
  110578:	51                   	push   %ecx
  110579:	6a 00                	push   $0x0
  11057b:	52                   	push   %edx
  11057c:	50                   	push   %eax
  11057d:	e8 b7 fe ff ff       	call   110439 <idt_set_gate>
  110582:	83 c4 10             	add    $0x10,%esp
  110585:	90                   	nop
  110586:	89 ec                	mov    %ebp,%esp
  110588:	5d                   	pop    %ebp
  110589:	c3                   	ret    

0011058a <idt_remove_gate>:
  11058a:	55                   	push   %ebp
  11058b:	89 e5                	mov    %esp,%ebp
  11058d:	83 ec 04             	sub    $0x4,%esp
  110590:	8b 45 08             	mov    0x8(%ebp),%eax
  110593:	88 45 fc             	mov    %al,-0x4(%ebp)
  110596:	8a 45 fc             	mov    -0x4(%ebp),%al
  110599:	25 ff 00 00 00       	and    $0xff,%eax
  11059e:	6a 00                	push   $0x0
  1105a0:	6a 00                	push   $0x0
  1105a2:	6a 00                	push   $0x0
  1105a4:	50                   	push   %eax
  1105a5:	e8 8f fe ff ff       	call   110439 <idt_set_gate>
  1105aa:	83 c4 10             	add    $0x10,%esp
  1105ad:	90                   	nop
  1105ae:	89 ec                	mov    %ebp,%esp
  1105b0:	5d                   	pop    %ebp
  1105b1:	c3                   	ret    

001105b2 <irq_generic_handler>:
  1105b2:	55                   	push   %ebp
  1105b3:	89 e5                	mov    %esp,%ebp
  1105b5:	83 ec 18             	sub    $0x18,%esp
  1105b8:	8b 45 08             	mov    0x8(%ebp),%eax
  1105bb:	88 45 f4             	mov    %al,-0xc(%ebp)
  1105be:	8a 45 f4             	mov    -0xc(%ebp),%al
  1105c1:	25 ff 00 00 00       	and    $0xff,%eax
  1105c6:	8b 04 85 20 ed 12 00 	mov    0x12ed20(,%eax,4),%eax
  1105cd:	ff d0                	call   *%eax
  1105cf:	90                   	nop
  1105d0:	89 ec                	mov    %ebp,%esp
  1105d2:	5d                   	pop    %ebp
  1105d3:	c3                   	ret    

001105d4 <irq_set_handler>:
  1105d4:	55                   	push   %ebp
  1105d5:	89 e5                	mov    %esp,%ebp
  1105d7:	83 ec 04             	sub    $0x4,%esp
  1105da:	8b 45 08             	mov    0x8(%ebp),%eax
  1105dd:	88 45 fc             	mov    %al,-0x4(%ebp)
  1105e0:	8a 45 fc             	mov    -0x4(%ebp),%al
  1105e3:	25 ff 00 00 00       	and    $0xff,%eax
  1105e8:	8b 14 85 bc a0 11 00 	mov    0x11a0bc(,%eax,4),%edx
  1105ef:	8a 45 fc             	mov    -0x4(%ebp),%al
  1105f2:	83 c0 20             	add    $0x20,%eax
  1105f5:	25 ff 00 00 00       	and    $0xff,%eax
  1105fa:	6a 00                	push   $0x0
  1105fc:	52                   	push   %edx
  1105fd:	50                   	push   %eax
  1105fe:	e8 a0 fe ff ff       	call   1104a3 <idt_interrupt_gate>
  110603:	83 c4 0c             	add    $0xc,%esp
  110606:	8a 45 fc             	mov    -0x4(%ebp),%al
  110609:	25 ff 00 00 00       	and    $0xff,%eax
  11060e:	8b 55 0c             	mov    0xc(%ebp),%edx
  110611:	89 14 85 20 ed 12 00 	mov    %edx,0x12ed20(,%eax,4)
  110618:	90                   	nop
  110619:	89 ec                	mov    %ebp,%esp
  11061b:	5d                   	pop    %ebp
  11061c:	c3                   	ret    

0011061d <irq_eoi>:
  11061d:	55                   	push   %ebp
  11061e:	89 e5                	mov    %esp,%ebp
  110620:	83 ec 04             	sub    $0x4,%esp
  110623:	8b 45 08             	mov    0x8(%ebp),%eax
  110626:	88 45 fc             	mov    %al,-0x4(%ebp)
  110629:	6a 20                	push   $0x20
  11062b:	6a 20                	push   $0x20
  11062d:	e8 cb fd ff ff       	call   1103fd <outb>
  110632:	83 c4 08             	add    $0x8,%esp
  110635:	80 7d fc 07          	cmpb   $0x7,-0x4(%ebp)
  110639:	76 0f                	jbe    11064a <irq_eoi+0x2d>
  11063b:	68 a0 00 00 00       	push   $0xa0
  110640:	6a 20                	push   $0x20
  110642:	e8 b6 fd ff ff       	call   1103fd <outb>
  110647:	83 c4 08             	add    $0x8,%esp
  11064a:	90                   	nop
  11064b:	89 ec                	mov    %ebp,%esp
  11064d:	5d                   	pop    %ebp
  11064e:	c3                   	ret    

0011064f <irq_mask>:
  11064f:	55                   	push   %ebp
  110650:	89 e5                	mov    %esp,%ebp
  110652:	83 ec 18             	sub    $0x18,%esp
  110655:	8b 55 08             	mov    0x8(%ebp),%edx
  110658:	8b 45 0c             	mov    0xc(%ebp),%eax
  11065b:	88 55 ec             	mov    %dl,-0x14(%ebp)
  11065e:	88 45 e8             	mov    %al,-0x18(%ebp)
  110661:	80 7d ec 07          	cmpb   $0x7,-0x14(%ebp)
  110665:	0f 96 c0             	setbe  %al
  110668:	88 45 ff             	mov    %al,-0x1(%ebp)
  11066b:	80 7d ff 00          	cmpb   $0x0,-0x1(%ebp)
  11066f:	74 04                	je     110675 <irq_mask+0x26>
  110671:	b0 21                	mov    $0x21,%al
  110673:	eb 02                	jmp    110677 <irq_mask+0x28>
  110675:	b0 a1                	mov    $0xa1,%al
  110677:	88 45 fe             	mov    %al,-0x2(%ebp)
  11067a:	8a 45 fe             	mov    -0x2(%ebp),%al
  11067d:	25 ff 00 00 00       	and    $0xff,%eax
  110682:	50                   	push   %eax
  110683:	e8 94 fd ff ff       	call   11041c <inb>
  110688:	83 c4 04             	add    $0x4,%esp
  11068b:	88 45 fd             	mov    %al,-0x3(%ebp)
  11068e:	80 7d ff 00          	cmpb   $0x0,-0x1(%ebp)
  110692:	74 15                	je     1106a9 <irq_mask+0x5a>
  110694:	8a 45 ec             	mov    -0x14(%ebp),%al
  110697:	25 ff 00 00 00       	and    $0xff,%eax
  11069c:	ba 01 00 00 00       	mov    $0x1,%edx
  1106a1:	88 c1                	mov    %al,%cl
  1106a3:	d3 e2                	shl    %cl,%edx
  1106a5:	89 d0                	mov    %edx,%eax
  1106a7:	eb 16                	jmp    1106bf <irq_mask+0x70>
  1106a9:	8a 45 ec             	mov    -0x14(%ebp),%al
  1106ac:	25 ff 00 00 00       	and    $0xff,%eax
  1106b1:	83 e8 08             	sub    $0x8,%eax
  1106b4:	ba 01 00 00 00       	mov    $0x1,%edx
  1106b9:	88 c1                	mov    %al,%cl
  1106bb:	d3 e2                	shl    %cl,%edx
  1106bd:	89 d0                	mov    %edx,%eax
  1106bf:	88 45 fc             	mov    %al,-0x4(%ebp)
  1106c2:	8a 45 fe             	mov    -0x2(%ebp),%al
  1106c5:	31 d2                	xor    %edx,%edx
  1106c7:	88 c2                	mov    %al,%dl
  1106c9:	80 7d e8 00          	cmpb   $0x0,-0x18(%ebp)
  1106cd:	74 0d                	je     1106dc <irq_mask+0x8d>
  1106cf:	8a 45 fd             	mov    -0x3(%ebp),%al
  1106d2:	0b 45 fc             	or     -0x4(%ebp),%eax
  1106d5:	25 ff 00 00 00       	and    $0xff,%eax
  1106da:	eb 11                	jmp    1106ed <irq_mask+0x9e>
  1106dc:	8a 45 fc             	mov    -0x4(%ebp),%al
  1106df:	f7 d0                	not    %eax
  1106e1:	88 c1                	mov    %al,%cl
  1106e3:	8a 45 fd             	mov    -0x3(%ebp),%al
  1106e6:	21 c8                	and    %ecx,%eax
  1106e8:	25 ff 00 00 00       	and    $0xff,%eax
  1106ed:	52                   	push   %edx
  1106ee:	50                   	push   %eax
  1106ef:	e8 09 fd ff ff       	call   1103fd <outb>
  1106f4:	83 c4 08             	add    $0x8,%esp
  1106f7:	90                   	nop
  1106f8:	89 ec                	mov    %ebp,%esp
  1106fa:	5d                   	pop    %ebp
  1106fb:	c3                   	ret    

001106fc <irq_generic_handler_entry>:
  1106fc:	50                   	push   %eax
  1106fd:	53                   	push   %ebx
  1106fe:	51                   	push   %ecx
  1106ff:	52                   	push   %edx
  110700:	56                   	push   %esi
  110701:	57                   	push   %edi
  110702:	ff 74 24 18          	push   0x18(%esp)
  110706:	fc                   	cld    
  110707:	e8 a6 fe ff ff       	call   1105b2 <irq_generic_handler>
  11070c:	83 c4 04             	add    $0x4,%esp
  11070f:	5f                   	pop    %edi
  110710:	5e                   	pop    %esi
  110711:	5a                   	pop    %edx
  110712:	59                   	pop    %ecx
  110713:	5b                   	pop    %ebx
  110714:	58                   	pop    %eax
  110715:	83 c4 04             	add    $0x4,%esp
  110718:	cf                   	iret   

00110719 <irq_handler_0>:
  110719:	6a 00                	push   $0x0
  11071b:	eb df                	jmp    1106fc <irq_generic_handler_entry>

0011071d <irq_handler_1>:
  11071d:	6a 01                	push   $0x1
  11071f:	eb db                	jmp    1106fc <irq_generic_handler_entry>

00110721 <irq_handler_2>:
  110721:	6a 02                	push   $0x2
  110723:	eb d7                	jmp    1106fc <irq_generic_handler_entry>

00110725 <irq_handler_3>:
  110725:	6a 03                	push   $0x3
  110727:	eb d3                	jmp    1106fc <irq_generic_handler_entry>

00110729 <irq_handler_4>:
  110729:	6a 04                	push   $0x4
  11072b:	eb cf                	jmp    1106fc <irq_generic_handler_entry>

0011072d <irq_handler_5>:
  11072d:	6a 05                	push   $0x5
  11072f:	eb cb                	jmp    1106fc <irq_generic_handler_entry>

00110731 <irq_handler_6>:
  110731:	6a 06                	push   $0x6
  110733:	eb c7                	jmp    1106fc <irq_generic_handler_entry>

00110735 <irq_handler_7>:
  110735:	6a 07                	push   $0x7
  110737:	eb c3                	jmp    1106fc <irq_generic_handler_entry>

00110739 <irq_handler_8>:
  110739:	6a 08                	push   $0x8
  11073b:	eb bf                	jmp    1106fc <irq_generic_handler_entry>

0011073d <irq_handler_9>:
  11073d:	6a 09                	push   $0x9
  11073f:	eb bb                	jmp    1106fc <irq_generic_handler_entry>

00110741 <irq_handler_10>:
  110741:	6a 0a                	push   $0xa
  110743:	eb b7                	jmp    1106fc <irq_generic_handler_entry>

00110745 <irq_handler_11>:
  110745:	6a 0b                	push   $0xb
  110747:	eb b3                	jmp    1106fc <irq_generic_handler_entry>

00110749 <irq_handler_12>:
  110749:	6a 0c                	push   $0xc
  11074b:	eb af                	jmp    1106fc <irq_generic_handler_entry>

0011074d <irq_handler_13>:
  11074d:	6a 0d                	push   $0xd
  11074f:	eb ab                	jmp    1106fc <irq_generic_handler_entry>

00110751 <irq_handler_14>:
  110751:	6a 0e                	push   $0xe
  110753:	eb a7                	jmp    1106fc <irq_generic_handler_entry>

00110755 <irq_handler_15>:
  110755:	6a 0f                	push   $0xf
  110757:	eb a3                	jmp    1106fc <irq_generic_handler_entry>

00110759 <outb>:
  110759:	55                   	push   %ebp
  11075a:	89 e5                	mov    %esp,%ebp
  11075c:	83 ec 08             	sub    $0x8,%esp
  11075f:	8b 55 08             	mov    0x8(%ebp),%edx
  110762:	8b 45 0c             	mov    0xc(%ebp),%eax
  110765:	88 55 fc             	mov    %dl,-0x4(%ebp)
  110768:	66 89 45 f8          	mov    %ax,-0x8(%ebp)
  11076c:	8a 45 fc             	mov    -0x4(%ebp),%al
  11076f:	8b 55 f8             	mov    -0x8(%ebp),%edx
  110772:	ee                   	out    %al,(%dx)
  110773:	90                   	nop
  110774:	89 ec                	mov    %ebp,%esp
  110776:	5d                   	pop    %ebp
  110777:	c3                   	ret    

00110778 <pit_set_frequency>:
  110778:	55                   	push   %ebp
  110779:	89 e5                	mov    %esp,%ebp
  11077b:	83 ec 10             	sub    $0x10,%esp
  11077e:	66 c7 45 fe 37 5d    	movw   $0x5d37,-0x2(%ebp)
  110784:	6a 43                	push   $0x43
  110786:	6a 34                	push   $0x34
  110788:	e8 cc ff ff ff       	call   110759 <outb>
  11078d:	83 c4 08             	add    $0x8,%esp
  110790:	66 8b 45 fe          	mov    -0x2(%ebp),%ax
  110794:	25 ff 00 00 00       	and    $0xff,%eax
  110799:	6a 40                	push   $0x40
  11079b:	50                   	push   %eax
  11079c:	e8 b8 ff ff ff       	call   110759 <outb>
  1107a1:	83 c4 08             	add    $0x8,%esp
  1107a4:	66 8b 45 fe          	mov    -0x2(%ebp),%ax
  1107a8:	66 c1 e8 08          	shr    $0x8,%ax
  1107ac:	25 ff 00 00 00       	and    $0xff,%eax
  1107b1:	6a 40                	push   $0x40
  1107b3:	50                   	push   %eax
  1107b4:	e8 a0 ff ff ff       	call   110759 <outb>
  1107b9:	83 c4 08             	add    $0x8,%esp
  1107bc:	90                   	nop
  1107bd:	89 ec                	mov    %ebp,%esp
  1107bf:	5d                   	pop    %ebp
  1107c0:	c3                   	ret    

001107c1 <pit_interrupt_handler>:
  1107c1:	55                   	push   %ebp
  1107c2:	89 e5                	mov    %esp,%ebp
  1107c4:	83 ec 08             	sub    $0x8,%esp
  1107c7:	83 ec 0c             	sub    $0xc,%esp
  1107ca:	6a 00                	push   $0x0
  1107cc:	e8 4c fe ff ff       	call   11061d <irq_eoi>
  1107d1:	83 c4 10             	add    $0x10,%esp
  1107d4:	a1 60 ed 12 00       	mov    0x12ed60,%eax
  1107d9:	40                   	inc    %eax
  1107da:	a3 60 ed 12 00       	mov    %eax,0x12ed60
  1107df:	a1 64 ed 12 00       	mov    0x12ed64,%eax
  1107e4:	85 c0                	test   %eax,%eax
  1107e6:	74 14                	je     1107fc <pit_interrupt_handler+0x3b>
  1107e8:	a1 64 ed 12 00       	mov    0x12ed64,%eax
  1107ed:	8b 15 60 ed 12 00    	mov    0x12ed60,%edx
  1107f3:	83 ec 0c             	sub    $0xc,%esp
  1107f6:	52                   	push   %edx
  1107f7:	ff d0                	call   *%eax
  1107f9:	83 c4 10             	add    $0x10,%esp
  1107fc:	90                   	nop
  1107fd:	89 ec                	mov    %ebp,%esp
  1107ff:	5d                   	pop    %ebp
  110800:	c3                   	ret    

00110801 <pit_init>:
  110801:	55                   	push   %ebp
  110802:	89 e5                	mov    %esp,%ebp
  110804:	83 ec 08             	sub    $0x8,%esp
  110807:	83 ec 0c             	sub    $0xc,%esp
  11080a:	68 10 72 11 00       	push   $0x117210
  11080f:	e8 bc ea ff ff       	call   10f2d0 <puts>
  110814:	83 c4 10             	add    $0x10,%esp
  110817:	e8 5c ff ff ff       	call   110778 <pit_set_frequency>
  11081c:	83 ec 08             	sub    $0x8,%esp
  11081f:	68 c1 07 11 00       	push   $0x1107c1
  110824:	6a 00                	push   $0x0
  110826:	e8 a9 fd ff ff       	call   1105d4 <irq_set_handler>
  11082b:	83 c4 10             	add    $0x10,%esp
  11082e:	83 ec 08             	sub    $0x8,%esp
  110831:	6a 00                	push   $0x0
  110833:	6a 00                	push   $0x0
  110835:	e8 15 fe ff ff       	call   11064f <irq_mask>
  11083a:	83 c4 10             	add    $0x10,%esp
  11083d:	90                   	nop
  11083e:	89 ec                	mov    %ebp,%esp
  110840:	5d                   	pop    %ebp
  110841:	c3                   	ret    

00110842 <pit_clock_get>:
  110842:	55                   	push   %ebp
  110843:	89 e5                	mov    %esp,%ebp
  110845:	a1 60 ed 12 00       	mov    0x12ed60,%eax
  11084a:	5d                   	pop    %ebp
  11084b:	c3                   	ret    

0011084c <pit_clock_settings>:
  11084c:	55                   	push   %ebp
  11084d:	89 e5                	mov    %esp,%ebp
  11084f:	8b 45 08             	mov    0x8(%ebp),%eax
  110852:	c7 00 dd 34 12 00    	movl   $0x1234dd,(%eax)
  110858:	8b 45 0c             	mov    0xc(%ebp),%eax
  11085b:	c7 00 37 5d 00 00    	movl   $0x5d37,(%eax)
  110861:	90                   	nop
  110862:	5d                   	pop    %ebp
  110863:	c3                   	ret    

00110864 <pit_set_handler>:
  110864:	55                   	push   %ebp
  110865:	89 e5                	mov    %esp,%ebp
  110867:	8b 45 08             	mov    0x8(%ebp),%eax
  11086a:	a3 64 ed 12 00       	mov    %eax,0x12ed64
  11086f:	90                   	nop
  110870:	5d                   	pop    %ebp
  110871:	c3                   	ret    

00110872 <time_update>:
  110872:	55                   	push   %ebp
  110873:	89 e5                	mov    %esp,%ebp
  110875:	83 ec 08             	sub    $0x8,%esp
  110878:	83 ec 08             	sub    $0x8,%esp
  11087b:	6a 00                	push   $0x0
  11087d:	6a 00                	push   $0x0
  11087f:	e8 be fa ff ff       	call   110342 <get_cmos_reg_bcd>
  110884:	83 c4 10             	add    $0x10,%esp
  110887:	a2 68 ed 12 00       	mov    %al,0x12ed68
  11088c:	83 ec 08             	sub    $0x8,%esp
  11088f:	6a 00                	push   $0x0
  110891:	6a 02                	push   $0x2
  110893:	e8 aa fa ff ff       	call   110342 <get_cmos_reg_bcd>
  110898:	83 c4 10             	add    $0x10,%esp
  11089b:	a2 69 ed 12 00       	mov    %al,0x12ed69
  1108a0:	83 ec 08             	sub    $0x8,%esp
  1108a3:	6a 00                	push   $0x0
  1108a5:	6a 04                	push   $0x4
  1108a7:	e8 96 fa ff ff       	call   110342 <get_cmos_reg_bcd>
  1108ac:	83 c4 10             	add    $0x10,%esp
  1108af:	a2 6a ed 12 00       	mov    %al,0x12ed6a
  1108b4:	83 ec 08             	sub    $0x8,%esp
  1108b7:	6a 00                	push   $0x0
  1108b9:	6a 07                	push   $0x7
  1108bb:	e8 82 fa ff ff       	call   110342 <get_cmos_reg_bcd>
  1108c0:	83 c4 10             	add    $0x10,%esp
  1108c3:	a2 6b ed 12 00       	mov    %al,0x12ed6b
  1108c8:	83 ec 08             	sub    $0x8,%esp
  1108cb:	6a 00                	push   $0x0
  1108cd:	6a 08                	push   $0x8
  1108cf:	e8 6e fa ff ff       	call   110342 <get_cmos_reg_bcd>
  1108d4:	83 c4 10             	add    $0x10,%esp
  1108d7:	48                   	dec    %eax
  1108d8:	a2 6c ed 12 00       	mov    %al,0x12ed6c
  1108dd:	90                   	nop
  1108de:	89 ec                	mov    %ebp,%esp
  1108e0:	5d                   	pop    %ebp
  1108e1:	c3                   	ret    

001108e2 <rtc_set_frequency>:
  1108e2:	55                   	push   %ebp
  1108e3:	89 e5                	mov    %esp,%ebp
  1108e5:	83 ec 18             	sub    $0x18,%esp
  1108e8:	83 ec 08             	sub    $0x8,%esp
  1108eb:	6a 01                	push   $0x1
  1108ed:	6a 0a                	push   $0xa
  1108ef:	e8 06 fa ff ff       	call   1102fa <get_cmos_reg>
  1108f4:	83 c4 10             	add    $0x10,%esp
  1108f7:	88 45 f7             	mov    %al,-0x9(%ebp)
  1108fa:	8a 45 f7             	mov    -0x9(%ebp),%al
  1108fd:	83 c8 0f             	or     $0xf,%eax
  110900:	25 ff 00 00 00       	and    $0xff,%eax
  110905:	83 ec 04             	sub    $0x4,%esp
  110908:	6a 01                	push   $0x1
  11090a:	50                   	push   %eax
  11090b:	6a 0a                	push   $0xa
  11090d:	e8 7d fa ff ff       	call   11038f <set_cmos_reg>
  110912:	83 c4 10             	add    $0x10,%esp
  110915:	90                   	nop
  110916:	89 ec                	mov    %ebp,%esp
  110918:	5d                   	pop    %ebp
  110919:	c3                   	ret    

0011091a <rtc_enable_interrupt>:
  11091a:	55                   	push   %ebp
  11091b:	89 e5                	mov    %esp,%ebp
  11091d:	83 ec 18             	sub    $0x18,%esp
  110920:	83 ec 08             	sub    $0x8,%esp
  110923:	6a 01                	push   $0x1
  110925:	6a 0b                	push   $0xb
  110927:	e8 ce f9 ff ff       	call   1102fa <get_cmos_reg>
  11092c:	83 c4 10             	add    $0x10,%esp
  11092f:	88 45 f7             	mov    %al,-0x9(%ebp)
  110932:	8a 45 f7             	mov    -0x9(%ebp),%al
  110935:	83 c8 40             	or     $0x40,%eax
  110938:	25 ff 00 00 00       	and    $0xff,%eax
  11093d:	83 ec 04             	sub    $0x4,%esp
  110940:	6a 01                	push   $0x1
  110942:	50                   	push   %eax
  110943:	6a 0b                	push   $0xb
  110945:	e8 45 fa ff ff       	call   11038f <set_cmos_reg>
  11094a:	83 c4 10             	add    $0x10,%esp
  11094d:	90                   	nop
  11094e:	89 ec                	mov    %ebp,%esp
  110950:	5d                   	pop    %ebp
  110951:	c3                   	ret    

00110952 <rtc_interrupt_handler>:
  110952:	55                   	push   %ebp
  110953:	89 e5                	mov    %esp,%ebp
  110955:	83 ec 08             	sub    $0x8,%esp
  110958:	83 ec 08             	sub    $0x8,%esp
  11095b:	6a 00                	push   $0x0
  11095d:	6a 0c                	push   $0xc
  11095f:	e8 96 f9 ff ff       	call   1102fa <get_cmos_reg>
  110964:	83 c4 10             	add    $0x10,%esp
  110967:	e8 06 ff ff ff       	call   110872 <time_update>
  11096c:	83 ec 0c             	sub    $0xc,%esp
  11096f:	6a 08                	push   $0x8
  110971:	e8 a7 fc ff ff       	call   11061d <irq_eoi>
  110976:	83 c4 10             	add    $0x10,%esp
  110979:	90                   	nop
  11097a:	89 ec                	mov    %ebp,%esp
  11097c:	5d                   	pop    %ebp
  11097d:	c3                   	ret    

0011097e <rtc_init>:
  11097e:	55                   	push   %ebp
  11097f:	89 e5                	mov    %esp,%ebp
  110981:	83 ec 08             	sub    $0x8,%esp
  110984:	e8 59 ff ff ff       	call   1108e2 <rtc_set_frequency>
  110989:	e8 8c ff ff ff       	call   11091a <rtc_enable_interrupt>
  11098e:	83 ec 08             	sub    $0x8,%esp
  110991:	68 52 09 11 00       	push   $0x110952
  110996:	6a 08                	push   $0x8
  110998:	e8 37 fc ff ff       	call   1105d4 <irq_set_handler>
  11099d:	83 c4 10             	add    $0x10,%esp
  1109a0:	83 ec 08             	sub    $0x8,%esp
  1109a3:	6a 00                	push   $0x0
  1109a5:	6a 02                	push   $0x2
  1109a7:	e8 a3 fc ff ff       	call   11064f <irq_mask>
  1109ac:	83 c4 10             	add    $0x10,%esp
  1109af:	83 ec 08             	sub    $0x8,%esp
  1109b2:	6a 00                	push   $0x0
  1109b4:	6a 08                	push   $0x8
  1109b6:	e8 94 fc ff ff       	call   11064f <irq_mask>
  1109bb:	83 c4 10             	add    $0x10,%esp
  1109be:	e8 d9 f8 ff ff       	call   11029c <cmos_nmi_enable>
  1109c3:	e8 aa fe ff ff       	call   110872 <time_update>
  1109c8:	90                   	nop
  1109c9:	89 ec                	mov    %ebp,%esp
  1109cb:	5d                   	pop    %ebp
  1109cc:	c3                   	ret    

001109cd <outb>:
  1109cd:	55                   	push   %ebp
  1109ce:	89 e5                	mov    %esp,%ebp
  1109d0:	83 ec 08             	sub    $0x8,%esp
  1109d3:	8b 55 08             	mov    0x8(%ebp),%edx
  1109d6:	8b 45 0c             	mov    0xc(%ebp),%eax
  1109d9:	88 55 fc             	mov    %dl,-0x4(%ebp)
  1109dc:	66 89 45 f8          	mov    %ax,-0x8(%ebp)
  1109e0:	8a 45 fc             	mov    -0x4(%ebp),%al
  1109e3:	8b 55 f8             	mov    -0x8(%ebp),%edx
  1109e6:	ee                   	out    %al,(%dx)
  1109e7:	90                   	nop
  1109e8:	89 ec                	mov    %ebp,%esp
  1109ea:	5d                   	pop    %ebp
  1109eb:	c3                   	ret    

001109ec <inb>:
  1109ec:	55                   	push   %ebp
  1109ed:	89 e5                	mov    %esp,%ebp
  1109ef:	83 ec 14             	sub    $0x14,%esp
  1109f2:	8b 45 08             	mov    0x8(%ebp),%eax
  1109f5:	66 89 45 ec          	mov    %ax,-0x14(%ebp)
  1109f9:	8b 45 ec             	mov    -0x14(%ebp),%eax
  1109fc:	89 c2                	mov    %eax,%edx
  1109fe:	ec                   	in     (%dx),%al
  1109ff:	88 45 ff             	mov    %al,-0x1(%ebp)
  110a02:	8a 45 ff             	mov    -0x1(%ebp),%al
  110a05:	89 ec                	mov    %ebp,%esp
  110a07:	5d                   	pop    %ebp
  110a08:	c3                   	ret    

00110a09 <init_serial>:
  110a09:	55                   	push   %ebp
  110a0a:	89 e5                	mov    %esp,%ebp
  110a0c:	a1 70 ed 12 00       	mov    0x12ed70,%eax
  110a11:	85 c0                	test   %eax,%eax
  110a13:	75 69                	jne    110a7e <init_serial+0x75>
  110a15:	68 fc 03 00 00       	push   $0x3fc
  110a1a:	6a 0f                	push   $0xf
  110a1c:	e8 ac ff ff ff       	call   1109cd <outb>
  110a21:	83 c4 08             	add    $0x8,%esp
  110a24:	68 f9 03 00 00       	push   $0x3f9
  110a29:	6a 00                	push   $0x0
  110a2b:	e8 9d ff ff ff       	call   1109cd <outb>
  110a30:	83 c4 08             	add    $0x8,%esp
  110a33:	68 fb 03 00 00       	push   $0x3fb
  110a38:	68 83 00 00 00       	push   $0x83
  110a3d:	e8 8b ff ff ff       	call   1109cd <outb>
  110a42:	83 c4 08             	add    $0x8,%esp
  110a45:	68 f8 03 00 00       	push   $0x3f8
  110a4a:	6a 01                	push   $0x1
  110a4c:	e8 7c ff ff ff       	call   1109cd <outb>
  110a51:	83 c4 08             	add    $0x8,%esp
  110a54:	68 f9 03 00 00       	push   $0x3f9
  110a59:	6a 00                	push   $0x0
  110a5b:	e8 6d ff ff ff       	call   1109cd <outb>
  110a60:	83 c4 08             	add    $0x8,%esp
  110a63:	68 fb 03 00 00       	push   $0x3fb
  110a68:	6a 03                	push   $0x3
  110a6a:	e8 5e ff ff ff       	call   1109cd <outb>
  110a6f:	83 c4 08             	add    $0x8,%esp
  110a72:	c7 05 70 ed 12 00 01 	movl   $0x1,0x12ed70
  110a79:	00 00 00 
  110a7c:	eb 01                	jmp    110a7f <init_serial+0x76>
  110a7e:	90                   	nop
  110a7f:	89 ec                	mov    %ebp,%esp
  110a81:	5d                   	pop    %ebp
  110a82:	c3                   	ret    

00110a83 <write_com1>:
  110a83:	55                   	push   %ebp
  110a84:	89 e5                	mov    %esp,%ebp
  110a86:	e8 7e ff ff ff       	call   110a09 <init_serial>
  110a8b:	90                   	nop
  110a8c:	68 fd 03 00 00       	push   $0x3fd
  110a91:	e8 56 ff ff ff       	call   1109ec <inb>
  110a96:	83 c4 04             	add    $0x4,%esp
  110a99:	25 ff 00 00 00       	and    $0xff,%eax
  110a9e:	83 e0 20             	and    $0x20,%eax
  110aa1:	85 c0                	test   %eax,%eax
  110aa3:	74 e7                	je     110a8c <write_com1+0x9>
  110aa5:	8b 45 08             	mov    0x8(%ebp),%eax
  110aa8:	25 ff 00 00 00       	and    $0xff,%eax
  110aad:	68 f8 03 00 00       	push   $0x3f8
  110ab2:	50                   	push   %eax
  110ab3:	e8 15 ff ff ff       	call   1109cd <outb>
  110ab8:	83 c4 08             	add    $0x8,%esp
  110abb:	90                   	nop
  110abc:	89 ec                	mov    %ebp,%esp
  110abe:	5d                   	pop    %ebp
  110abf:	c3                   	ret    

00110ac0 <read_com1>:
  110ac0:	55                   	push   %ebp
  110ac1:	89 e5                	mov    %esp,%ebp
  110ac3:	83 ec 10             	sub    $0x10,%esp
  110ac6:	e8 3e ff ff ff       	call   110a09 <init_serial>
  110acb:	68 fd 03 00 00       	push   $0x3fd
  110ad0:	e8 17 ff ff ff       	call   1109ec <inb>
  110ad5:	83 c4 04             	add    $0x4,%esp
  110ad8:	25 ff 00 00 00       	and    $0xff,%eax
  110add:	89 45 fc             	mov    %eax,-0x4(%ebp)
  110ae0:	8b 45 fc             	mov    -0x4(%ebp),%eax
  110ae3:	83 e0 1e             	and    $0x1e,%eax
  110ae6:	85 c0                	test   %eax,%eax
  110ae8:	75 e1                	jne    110acb <read_com1+0xb>
  110aea:	8b 45 fc             	mov    -0x4(%ebp),%eax
  110aed:	83 e0 01             	and    $0x1,%eax
  110af0:	85 c0                	test   %eax,%eax
  110af2:	74 d7                	je     110acb <read_com1+0xb>
  110af4:	68 f8 03 00 00       	push   $0x3f8
  110af9:	e8 ee fe ff ff       	call   1109ec <inb>
  110afe:	83 c4 04             	add    $0x4,%esp
  110b01:	25 ff 00 00 00       	and    $0xff,%eax
  110b06:	89 45 fc             	mov    %eax,-0x4(%ebp)
  110b09:	8b 45 fc             	mov    -0x4(%ebp),%eax
  110b0c:	89 ec                	mov    %ebp,%esp
  110b0e:	5d                   	pop    %ebp
  110b0f:	c3                   	ret    

00110b10 <syscall_init>:
  110b10:	55                   	push   %ebp
  110b11:	89 e5                	mov    %esp,%ebp
  110b13:	83 ec 08             	sub    $0x8,%esp
  110b16:	83 ec 0c             	sub    $0xc,%esp
  110b19:	68 24 72 11 00       	push   $0x117224
  110b1e:	e8 ad e7 ff ff       	call   10f2d0 <puts>
  110b23:	83 c4 10             	add    $0x10,%esp
  110b26:	b8 5b 0b 11 00       	mov    $0x110b5b,%eax
  110b2b:	83 ec 04             	sub    $0x4,%esp
  110b2e:	6a 03                	push   $0x3
  110b30:	50                   	push   %eax
  110b31:	6a 31                	push   $0x31
  110b33:	e8 6b f9 ff ff       	call   1104a3 <idt_interrupt_gate>
  110b38:	83 c4 10             	add    $0x10,%esp
  110b3b:	90                   	nop
  110b3c:	89 ec                	mov    %ebp,%esp
  110b3e:	5d                   	pop    %ebp
  110b3f:	c3                   	ret    

00110b40 <syscall_debug>:
  110b40:	55                   	push   %ebp
  110b41:	89 e5                	mov    %esp,%ebp
  110b43:	83 ec 08             	sub    $0x8,%esp
  110b46:	83 ec 0c             	sub    $0xc,%esp
  110b49:	68 3c 72 11 00       	push   $0x11723c
  110b4e:	e8 7d e7 ff ff       	call   10f2d0 <puts>
  110b53:	83 c4 10             	add    $0x10,%esp
  110b56:	90                   	nop
  110b57:	89 ec                	mov    %ebp,%esp
  110b59:	5d                   	pop    %ebp
  110b5a:	c3                   	ret    

00110b5b <syscall_handler>:
  110b5b:	57                   	push   %edi
  110b5c:	56                   	push   %esi
  110b5d:	52                   	push   %edx
  110b5e:	51                   	push   %ecx
  110b5f:	53                   	push   %ebx
  110b60:	8d 1d 00 a1 11 00    	lea    0x11a100,%ebx
  110b66:	8b 1c 83             	mov    (%ebx,%eax,4),%ebx
  110b69:	e8 d2 ff ff ff       	call   110b40 <syscall_debug>
  110b6e:	ff d3                	call   *%ebx
  110b70:	5b                   	pop    %ebx
  110b71:	59                   	pop    %ecx
  110b72:	5a                   	pop    %edx
  110b73:	5e                   	pop    %esi
  110b74:	5f                   	pop    %edi
  110b75:	cf                   	iret   

00110b76 <process_context_switch>:
  110b76:	8b 44 24 04          	mov    0x4(%esp),%eax
  110b7a:	89 18                	mov    %ebx,(%eax)
  110b7c:	89 60 04             	mov    %esp,0x4(%eax)
  110b7f:	89 68 08             	mov    %ebp,0x8(%eax)
  110b82:	89 70 0c             	mov    %esi,0xc(%eax)
  110b85:	89 78 10             	mov    %edi,0x10(%eax)
  110b88:	8b 44 24 08          	mov    0x8(%esp),%eax
  110b8c:	8b 18                	mov    (%eax),%ebx
  110b8e:	8b 60 04             	mov    0x4(%eax),%esp
  110b91:	8b 68 08             	mov    0x8(%eax),%ebp
  110b94:	8b 70 0c             	mov    0xc(%eax),%esi
  110b97:	8b 78 10             	mov    0x10(%eax),%edi
  110b9a:	c3                   	ret    

00110b9b <process_implicit_exit>:
  110b9b:	50                   	push   %eax
  110b9c:	e8 cd 05 00 00       	call   11116e <process_internal_exit>

00110ba1 <process_overall_add>:
  110ba1:	55                   	push   %ebp
  110ba2:	89 e5                	mov    %esp,%ebp
  110ba4:	8b 15 74 ed 12 00    	mov    0x12ed74,%edx
  110baa:	8b 45 08             	mov    0x8(%ebp),%eax
  110bad:	89 50 04             	mov    %edx,0x4(%eax)
  110bb0:	8b 45 08             	mov    0x8(%ebp),%eax
  110bb3:	c7 00 00 00 00 00    	movl   $0x0,(%eax)
  110bb9:	a1 74 ed 12 00       	mov    0x12ed74,%eax
  110bbe:	85 c0                	test   %eax,%eax
  110bc0:	74 0a                	je     110bcc <process_overall_add+0x2b>
  110bc2:	a1 74 ed 12 00       	mov    0x12ed74,%eax
  110bc7:	8b 55 08             	mov    0x8(%ebp),%edx
  110bca:	89 10                	mov    %edx,(%eax)
  110bcc:	a1 78 ed 12 00       	mov    0x12ed78,%eax
  110bd1:	8d 50 01             	lea    0x1(%eax),%edx
  110bd4:	89 15 78 ed 12 00    	mov    %edx,0x12ed78
  110bda:	8b 55 08             	mov    0x8(%ebp),%edx
  110bdd:	89 42 48             	mov    %eax,0x48(%edx)
  110be0:	8b 45 08             	mov    0x8(%ebp),%eax
  110be3:	a3 74 ed 12 00       	mov    %eax,0x12ed74
  110be8:	90                   	nop
  110be9:	5d                   	pop    %ebp
  110bea:	c3                   	ret    

00110beb <process_overall_remove>:
  110beb:	55                   	push   %ebp
  110bec:	89 e5                	mov    %esp,%ebp
  110bee:	8b 45 08             	mov    0x8(%ebp),%eax
  110bf1:	8b 40 04             	mov    0x4(%eax),%eax
  110bf4:	85 c0                	test   %eax,%eax
  110bf6:	74 0d                	je     110c05 <process_overall_remove+0x1a>
  110bf8:	8b 45 08             	mov    0x8(%ebp),%eax
  110bfb:	8b 40 04             	mov    0x4(%eax),%eax
  110bfe:	8b 55 08             	mov    0x8(%ebp),%edx
  110c01:	8b 12                	mov    (%edx),%edx
  110c03:	89 10                	mov    %edx,(%eax)
  110c05:	8b 45 08             	mov    0x8(%ebp),%eax
  110c08:	8b 00                	mov    (%eax),%eax
  110c0a:	85 c0                	test   %eax,%eax
  110c0c:	74 0e                	je     110c1c <process_overall_remove+0x31>
  110c0e:	8b 45 08             	mov    0x8(%ebp),%eax
  110c11:	8b 00                	mov    (%eax),%eax
  110c13:	8b 55 08             	mov    0x8(%ebp),%edx
  110c16:	8b 52 04             	mov    0x4(%edx),%edx
  110c19:	89 50 04             	mov    %edx,0x4(%eax)
  110c1c:	8b 45 08             	mov    0x8(%ebp),%eax
  110c1f:	8b 00                	mov    (%eax),%eax
  110c21:	85 c0                	test   %eax,%eax
  110c23:	75 0b                	jne    110c30 <process_overall_remove+0x45>
  110c25:	8b 45 08             	mov    0x8(%ebp),%eax
  110c28:	8b 40 04             	mov    0x4(%eax),%eax
  110c2b:	a3 74 ed 12 00       	mov    %eax,0x12ed74
  110c30:	90                   	nop
  110c31:	5d                   	pop    %ebp
  110c32:	c3                   	ret    

00110c33 <process_from_pid>:
  110c33:	55                   	push   %ebp
  110c34:	89 e5                	mov    %esp,%ebp
  110c36:	83 ec 10             	sub    $0x10,%esp
  110c39:	a1 74 ed 12 00       	mov    0x12ed74,%eax
  110c3e:	89 45 fc             	mov    %eax,-0x4(%ebp)
  110c41:	eb 19                	jmp    110c5c <process_from_pid+0x29>
  110c43:	8b 45 fc             	mov    -0x4(%ebp),%eax
  110c46:	8b 40 48             	mov    0x48(%eax),%eax
  110c49:	39 45 08             	cmp    %eax,0x8(%ebp)
  110c4c:	75 05                	jne    110c53 <process_from_pid+0x20>
  110c4e:	8b 45 fc             	mov    -0x4(%ebp),%eax
  110c51:	eb 14                	jmp    110c67 <process_from_pid+0x34>
  110c53:	8b 45 fc             	mov    -0x4(%ebp),%eax
  110c56:	8b 40 04             	mov    0x4(%eax),%eax
  110c59:	89 45 fc             	mov    %eax,-0x4(%ebp)
  110c5c:	83 7d fc 00          	cmpl   $0x0,-0x4(%ebp)
  110c60:	75 e1                	jne    110c43 <process_from_pid+0x10>
  110c62:	b8 00 00 00 00       	mov    $0x0,%eax
  110c67:	89 ec                	mov    %ebp,%esp
  110c69:	5d                   	pop    %ebp
  110c6a:	c3                   	ret    

00110c6b <process_alloc>:
  110c6b:	55                   	push   %ebp
  110c6c:	89 e5                	mov    %esp,%ebp
  110c6e:	83 ec 28             	sub    $0x28,%esp
  110c71:	83 ec 0c             	sub    $0xc,%esp
  110c74:	68 d0 00 00 00       	push   $0xd0
  110c79:	e8 62 15 00 00       	call   1121e0 <kalloc>
  110c7e:	83 c4 10             	add    $0x10,%esp
  110c81:	89 45 f4             	mov    %eax,-0xc(%ebp)
  110c84:	83 7d f4 00          	cmpl   $0x0,-0xc(%ebp)
  110c88:	75 0a                	jne    110c94 <process_alloc+0x29>
  110c8a:	b8 00 00 00 00       	mov    $0x0,%eax
  110c8f:	e9 19 01 00 00       	jmp    110dad <process_alloc+0x142>
  110c94:	c7 45 f0 80 00 00 00 	movl   $0x80,-0x10(%ebp)
  110c9b:	c7 45 ec 0c 00 00 00 	movl   $0xc,-0x14(%ebp)
  110ca2:	8b 45 0c             	mov    0xc(%ebp),%eax
  110ca5:	8b 4d ec             	mov    -0x14(%ebp),%ecx
  110ca8:	8b 55 f0             	mov    -0x10(%ebp),%edx
  110cab:	01 d1                	add    %edx,%ecx
  110cad:	ba 00 00 00 00       	mov    $0x0,%edx
  110cb2:	01 c8                	add    %ecx,%eax
  110cb4:	73 05                	jae    110cbb <process_alloc+0x50>
  110cb6:	ba 01 00 00 00       	mov    $0x1,%edx
  110cbb:	89 45 0c             	mov    %eax,0xc(%ebp)
  110cbe:	89 d0                	mov    %edx,%eax
  110cc0:	83 e0 01             	and    $0x1,%eax
  110cc3:	84 c0                	test   %al,%al
  110cc5:	74 18                	je     110cdf <process_alloc+0x74>
  110cc7:	83 ec 0c             	sub    $0xc,%esp
  110cca:	ff 75 f4             	push   -0xc(%ebp)
  110ccd:	e8 62 15 00 00       	call   112234 <kfree>
  110cd2:	83 c4 10             	add    $0x10,%esp
  110cd5:	b8 00 00 00 00       	mov    $0x0,%eax
  110cda:	e9 ce 00 00 00       	jmp    110dad <process_alloc+0x142>
  110cdf:	8b 45 0c             	mov    0xc(%ebp),%eax
  110ce2:	83 ec 0c             	sub    $0xc,%esp
  110ce5:	50                   	push   %eax
  110ce6:	e8 f5 14 00 00       	call   1121e0 <kalloc>
  110ceb:	83 c4 10             	add    $0x10,%esp
  110cee:	89 45 e8             	mov    %eax,-0x18(%ebp)
  110cf1:	83 7d e8 00          	cmpl   $0x0,-0x18(%ebp)
  110cf5:	75 18                	jne    110d0f <process_alloc+0xa4>
  110cf7:	83 ec 0c             	sub    $0xc,%esp
  110cfa:	ff 75 f4             	push   -0xc(%ebp)
  110cfd:	e8 32 15 00 00       	call   112234 <kfree>
  110d02:	83 c4 10             	add    $0x10,%esp
  110d05:	b8 00 00 00 00       	mov    $0x0,%eax
  110d0a:	e9 9e 00 00 00       	jmp    110dad <process_alloc+0x142>
  110d0f:	8b 45 f4             	mov    -0xc(%ebp),%eax
  110d12:	8b 55 e8             	mov    -0x18(%ebp),%edx
  110d15:	89 50 40             	mov    %edx,0x40(%eax)
  110d18:	8b 55 0c             	mov    0xc(%ebp),%edx
  110d1b:	8b 45 f4             	mov    -0xc(%ebp),%eax
  110d1e:	89 50 44             	mov    %edx,0x44(%eax)
  110d21:	8b 55 0c             	mov    0xc(%ebp),%edx
  110d24:	8b 45 e8             	mov    -0x18(%ebp),%eax
  110d27:	01 d0                	add    %edx,%eax
  110d29:	89 45 e4             	mov    %eax,-0x1c(%ebp)
  110d2c:	8b 45 ec             	mov    -0x14(%ebp),%eax
  110d2f:	f7 d8                	neg    %eax
  110d31:	89 c2                	mov    %eax,%edx
  110d33:	8b 45 e4             	mov    -0x1c(%ebp),%eax
  110d36:	01 d0                	add    %edx,%eax
  110d38:	89 45 e0             	mov    %eax,-0x20(%ebp)
  110d3b:	8b 55 08             	mov    0x8(%ebp),%edx
  110d3e:	8b 45 e0             	mov    -0x20(%ebp),%eax
  110d41:	89 10                	mov    %edx,(%eax)
  110d43:	8b 45 e0             	mov    -0x20(%ebp),%eax
  110d46:	83 c0 04             	add    $0x4,%eax
  110d49:	ba 9b 0b 11 00       	mov    $0x110b9b,%edx
  110d4e:	89 10                	mov    %edx,(%eax)
  110d50:	8b 45 e0             	mov    -0x20(%ebp),%eax
  110d53:	8d 50 08             	lea    0x8(%eax),%edx
  110d56:	8b 45 18             	mov    0x18(%ebp),%eax
  110d59:	89 02                	mov    %eax,(%edx)
  110d5b:	8b 55 e0             	mov    -0x20(%ebp),%edx
  110d5e:	8b 45 f4             	mov    -0xc(%ebp),%eax
  110d61:	89 50 18             	mov    %edx,0x18(%eax)
  110d64:	8b 45 f4             	mov    -0xc(%ebp),%eax
  110d67:	83 c0 4c             	add    $0x4c,%eax
  110d6a:	83 ec 08             	sub    $0x8,%esp
  110d6d:	ff 75 14             	push   0x14(%ebp)
  110d70:	50                   	push   %eax
  110d71:	e8 c3 eb ff ff       	call   10f939 <strcpy>
  110d76:	83 c4 10             	add    $0x10,%esp
  110d79:	83 ec 0c             	sub    $0xc,%esp
  110d7c:	ff 75 f4             	push   -0xc(%ebp)
  110d7f:	e8 1d fe ff ff       	call   110ba1 <process_overall_add>
  110d84:	83 c4 10             	add    $0x10,%esp
  110d87:	8b 45 f4             	mov    -0xc(%ebp),%eax
  110d8a:	8b 55 10             	mov    0x10(%ebp),%edx
  110d8d:	89 90 cc 00 00 00    	mov    %edx,0xcc(%eax)
  110d93:	8b 45 f4             	mov    -0xc(%ebp),%eax
  110d96:	8b 55 1c             	mov    0x1c(%ebp),%edx
  110d99:	89 50 28             	mov    %edx,0x28(%eax)
  110d9c:	83 ec 0c             	sub    $0xc,%esp
  110d9f:	ff 75 f4             	push   -0xc(%ebp)
  110da2:	e8 73 0f 00 00       	call   111d1a <process_sched_ring_insert>
  110da7:	83 c4 10             	add    $0x10,%esp
  110daa:	8b 45 f4             	mov    -0xc(%ebp),%eax
  110dad:	89 ec                	mov    %ebp,%esp
  110daf:	5d                   	pop    %ebp
  110db0:	c3                   	ret    

00110db1 <process_free>:
  110db1:	55                   	push   %ebp
  110db2:	89 e5                	mov    %esp,%ebp
  110db4:	83 ec 18             	sub    $0x18,%esp
  110db7:	8b 45 08             	mov    0x8(%ebp),%eax
  110dba:	8b 40 28             	mov    0x28(%eax),%eax
  110dbd:	83 f8 05             	cmp    $0x5,%eax
  110dc0:	74 0d                	je     110dcf <process_free+0x1e>
  110dc2:	83 ec 0c             	sub    $0xc,%esp
  110dc5:	68 50 72 11 00       	push   $0x117250
  110dca:	e8 74 e3 ff ff       	call   10f143 <panic>
  110dcf:	83 ec 0c             	sub    $0xc,%esp
  110dd2:	ff 75 08             	push   0x8(%ebp)
  110dd5:	e8 11 fe ff ff       	call   110beb <process_overall_remove>
  110dda:	83 c4 10             	add    $0x10,%esp
  110ddd:	8b 45 08             	mov    0x8(%ebp),%eax
  110de0:	8b 40 08             	mov    0x8(%eax),%eax
  110de3:	89 45 ec             	mov    %eax,-0x14(%ebp)
  110de6:	83 7d ec 00          	cmpl   $0x0,-0x14(%ebp)
  110dea:	74 36                	je     110e22 <process_free+0x71>
  110dec:	8b 45 ec             	mov    -0x14(%ebp),%eax
  110def:	83 c0 0c             	add    $0xc,%eax
  110df2:	89 45 f4             	mov    %eax,-0xc(%ebp)
  110df5:	eb 22                	jmp    110e19 <process_free+0x68>
  110df7:	8b 45 f4             	mov    -0xc(%ebp),%eax
  110dfa:	8b 00                	mov    (%eax),%eax
  110dfc:	39 45 08             	cmp    %eax,0x8(%ebp)
  110dff:	75 0d                	jne    110e0e <process_free+0x5d>
  110e01:	8b 45 08             	mov    0x8(%ebp),%eax
  110e04:	8b 50 10             	mov    0x10(%eax),%edx
  110e07:	8b 45 f4             	mov    -0xc(%ebp),%eax
  110e0a:	89 10                	mov    %edx,(%eax)
  110e0c:	eb 14                	jmp    110e22 <process_free+0x71>
  110e0e:	8b 45 f4             	mov    -0xc(%ebp),%eax
  110e11:	8b 00                	mov    (%eax),%eax
  110e13:	83 c0 10             	add    $0x10,%eax
  110e16:	89 45 f4             	mov    %eax,-0xc(%ebp)
  110e19:	8b 45 f4             	mov    -0xc(%ebp),%eax
  110e1c:	8b 00                	mov    (%eax),%eax
  110e1e:	85 c0                	test   %eax,%eax
  110e20:	75 d5                	jne    110df7 <process_free+0x46>
  110e22:	8b 45 08             	mov    0x8(%ebp),%eax
  110e25:	8b 40 0c             	mov    0xc(%eax),%eax
  110e28:	89 45 f0             	mov    %eax,-0x10(%ebp)
  110e2b:	eb 13                	jmp    110e40 <process_free+0x8f>
  110e2d:	8b 45 f0             	mov    -0x10(%ebp),%eax
  110e30:	c7 40 08 00 00 00 00 	movl   $0x0,0x8(%eax)
  110e37:	8b 45 f0             	mov    -0x10(%ebp),%eax
  110e3a:	8b 40 10             	mov    0x10(%eax),%eax
  110e3d:	89 45 f0             	mov    %eax,-0x10(%ebp)
  110e40:	83 7d f0 00          	cmpl   $0x0,-0x10(%ebp)
  110e44:	75 e7                	jne    110e2d <process_free+0x7c>
  110e46:	8b 45 08             	mov    0x8(%ebp),%eax
  110e49:	8b 40 40             	mov    0x40(%eax),%eax
  110e4c:	83 ec 0c             	sub    $0xc,%esp
  110e4f:	50                   	push   %eax
  110e50:	e8 df 13 00 00       	call   112234 <kfree>
  110e55:	83 c4 10             	add    $0x10,%esp
  110e58:	83 ec 0c             	sub    $0xc,%esp
  110e5b:	ff 75 08             	push   0x8(%ebp)
  110e5e:	e8 d1 13 00 00       	call   112234 <kfree>
  110e63:	83 c4 10             	add    $0x10,%esp
  110e66:	90                   	nop
  110e67:	89 ec                	mov    %ebp,%esp
  110e69:	5d                   	pop    %ebp
  110e6a:	c3                   	ret    

00110e6b <process_internal_kill>:
  110e6b:	55                   	push   %ebp
  110e6c:	89 e5                	mov    %esp,%ebp
  110e6e:	83 ec 38             	sub    $0x38,%esp
  110e71:	8b 45 10             	mov    0x10(%ebp),%eax
  110e74:	88 45 d4             	mov    %al,-0x2c(%ebp)
  110e77:	c7 45 f4 00 00 00 00 	movl   $0x0,-0xc(%ebp)
  110e7e:	8b 45 08             	mov    0x8(%ebp),%eax
  110e81:	8b 40 08             	mov    0x8(%eax),%eax
  110e84:	89 45 ec             	mov    %eax,-0x14(%ebp)
  110e87:	80 7d d4 00          	cmpb   $0x0,-0x2c(%ebp)
  110e8b:	74 68                	je     110ef5 <process_internal_kill+0x8a>
  110e8d:	83 7d ec 00          	cmpl   $0x0,-0x14(%ebp)
  110e91:	74 62                	je     110ef5 <process_internal_kill+0x8a>
  110e93:	8b 45 ec             	mov    -0x14(%ebp),%eax
  110e96:	8b 40 28             	mov    0x28(%eax),%eax
  110e99:	83 f8 02             	cmp    $0x2,%eax
  110e9c:	75 57                	jne    110ef5 <process_internal_kill+0x8a>
  110e9e:	8b 45 ec             	mov    -0x14(%ebp),%eax
  110ea1:	8b 40 2c             	mov    0x2c(%eax),%eax
  110ea4:	89 45 e8             	mov    %eax,-0x18(%ebp)
  110ea7:	83 7d e8 00          	cmpl   $0x0,-0x18(%ebp)
  110eab:	78 0b                	js     110eb8 <process_internal_kill+0x4d>
  110ead:	8b 45 08             	mov    0x8(%ebp),%eax
  110eb0:	8b 40 48             	mov    0x48(%eax),%eax
  110eb3:	39 45 e8             	cmp    %eax,-0x18(%ebp)
  110eb6:	75 3d                	jne    110ef5 <process_internal_kill+0x8a>
  110eb8:	8b 45 ec             	mov    -0x14(%ebp),%eax
  110ebb:	c7 40 28 01 00 00 00 	movl   $0x1,0x28(%eax)
  110ec2:	8b 45 ec             	mov    -0x14(%ebp),%eax
  110ec5:	8b 55 08             	mov    0x8(%ebp),%edx
  110ec8:	89 50 34             	mov    %edx,0x34(%eax)
  110ecb:	83 ec 0c             	sub    $0xc,%esp
  110ece:	ff 75 ec             	push   -0x14(%ebp)
  110ed1:	e8 44 0e 00 00       	call   111d1a <process_sched_ring_insert>
  110ed6:	83 c4 10             	add    $0x10,%esp
  110ed9:	8b 45 ec             	mov    -0x14(%ebp),%eax
  110edc:	8b 90 cc 00 00 00    	mov    0xcc(%eax),%edx
  110ee2:	8b 45 08             	mov    0x8(%ebp),%eax
  110ee5:	8b 80 cc 00 00 00    	mov    0xcc(%eax),%eax
  110eeb:	39 c2                	cmp    %eax,%edx
  110eed:	7e 06                	jle    110ef5 <process_internal_kill+0x8a>
  110eef:	8b 45 ec             	mov    -0x14(%ebp),%eax
  110ef2:	89 45 f4             	mov    %eax,-0xc(%ebp)
  110ef5:	8b 45 08             	mov    0x8(%ebp),%eax
  110ef8:	8b 40 28             	mov    0x28(%eax),%eax
  110efb:	85 c0                	test   %eax,%eax
  110efd:	74 0b                	je     110f0a <process_internal_kill+0x9f>
  110eff:	8b 45 08             	mov    0x8(%ebp),%eax
  110f02:	8b 40 28             	mov    0x28(%eax),%eax
  110f05:	83 f8 01             	cmp    $0x1,%eax
  110f08:	75 1f                	jne    110f29 <process_internal_kill+0xbe>
  110f0a:	83 ec 0c             	sub    $0xc,%esp
  110f0d:	ff 75 08             	push   0x8(%ebp)
  110f10:	e8 9f 0e 00 00       	call   111db4 <process_sched_ring_remove>
  110f15:	83 c4 10             	add    $0x10,%esp
  110f18:	89 45 e4             	mov    %eax,-0x1c(%ebp)
  110f1b:	83 7d f4 00          	cmpl   $0x0,-0xc(%ebp)
  110f1f:	75 52                	jne    110f73 <process_internal_kill+0x108>
  110f21:	8b 45 e4             	mov    -0x1c(%ebp),%eax
  110f24:	89 45 f4             	mov    %eax,-0xc(%ebp)
  110f27:	eb 4a                	jmp    110f73 <process_internal_kill+0x108>
  110f29:	8b 45 08             	mov    0x8(%ebp),%eax
  110f2c:	8b 40 28             	mov    0x28(%eax),%eax
  110f2f:	83 f8 03             	cmp    $0x3,%eax
  110f32:	75 10                	jne    110f44 <process_internal_kill+0xd9>
  110f34:	83 ec 0c             	sub    $0xc,%esp
  110f37:	ff 75 08             	push   0x8(%ebp)
  110f3a:	e8 9e 11 00 00       	call   1120dd <process_time_queue_remove>
  110f3f:	83 c4 10             	add    $0x10,%esp
  110f42:	eb 30                	jmp    110f74 <process_internal_kill+0x109>
  110f44:	8b 45 08             	mov    0x8(%ebp),%eax
  110f47:	8b 40 28             	mov    0x28(%eax),%eax
  110f4a:	83 f8 04             	cmp    $0x4,%eax
  110f4d:	75 10                	jne    110f5f <process_internal_kill+0xf4>
  110f4f:	83 ec 0c             	sub    $0xc,%esp
  110f52:	ff 75 08             	push   0x8(%ebp)
  110f55:	e8 a6 0d 00 00       	call   111d00 <process_queue_kill_process>
  110f5a:	83 c4 10             	add    $0x10,%esp
  110f5d:	eb 15                	jmp    110f74 <process_internal_kill+0x109>
  110f5f:	8b 45 08             	mov    0x8(%ebp),%eax
  110f62:	8b 40 28             	mov    0x28(%eax),%eax
  110f65:	83 ec 08             	sub    $0x8,%esp
  110f68:	50                   	push   %eax
  110f69:	68 80 72 11 00       	push   $0x117280
  110f6e:	e8 d0 e1 ff ff       	call   10f143 <panic>
  110f73:	90                   	nop
  110f74:	8b 45 08             	mov    0x8(%ebp),%eax
  110f77:	8b 40 0c             	mov    0xc(%eax),%eax
  110f7a:	89 45 f0             	mov    %eax,-0x10(%ebp)
  110f7d:	eb 34                	jmp    110fb3 <process_internal_kill+0x148>
  110f7f:	8b 45 f0             	mov    -0x10(%ebp),%eax
  110f82:	8b 40 28             	mov    0x28(%eax),%eax
  110f85:	83 f8 05             	cmp    $0x5,%eax
  110f88:	74 12                	je     110f9c <process_internal_kill+0x131>
  110f8a:	83 ec 04             	sub    $0x4,%esp
  110f8d:	6a 00                	push   $0x0
  110f8f:	6a 00                	push   $0x0
  110f91:	ff 75 f0             	push   -0x10(%ebp)
  110f94:	e8 d2 fe ff ff       	call   110e6b <process_internal_kill>
  110f99:	83 c4 10             	add    $0x10,%esp
  110f9c:	83 ec 0c             	sub    $0xc,%esp
  110f9f:	ff 75 f0             	push   -0x10(%ebp)
  110fa2:	e8 0a fe ff ff       	call   110db1 <process_free>
  110fa7:	83 c4 10             	add    $0x10,%esp
  110faa:	8b 45 f0             	mov    -0x10(%ebp),%eax
  110fad:	8b 40 10             	mov    0x10(%eax),%eax
  110fb0:	89 45 f0             	mov    %eax,-0x10(%ebp)
  110fb3:	83 7d f0 00          	cmpl   $0x0,-0x10(%ebp)
  110fb7:	75 c6                	jne    110f7f <process_internal_kill+0x114>
  110fb9:	8b 45 08             	mov    0x8(%ebp),%eax
  110fbc:	c7 40 0c 00 00 00 00 	movl   $0x0,0xc(%eax)
  110fc3:	8b 45 08             	mov    0x8(%ebp),%eax
  110fc6:	c7 40 28 05 00 00 00 	movl   $0x5,0x28(%eax)
  110fcd:	8b 45 08             	mov    0x8(%ebp),%eax
  110fd0:	8b 55 0c             	mov    0xc(%ebp),%edx
  110fd3:	89 50 2c             	mov    %edx,0x2c(%eax)
  110fd6:	a1 c0 11 13 00       	mov    0x1311c0,%eax
  110fdb:	39 45 08             	cmp    %eax,0x8(%ebp)
  110fde:	75 0e                	jne    110fee <process_internal_kill+0x183>
  110fe0:	83 ec 0c             	sub    $0xc,%esp
  110fe3:	ff 75 f4             	push   -0xc(%ebp)
  110fe6:	e8 bc 0e 00 00       	call   111ea7 <process_sched_advance>
  110feb:	83 c4 10             	add    $0x10,%esp
  110fee:	90                   	nop
  110fef:	89 ec                	mov    %ebp,%esp
  110ff1:	5d                   	pop    %ebp
  110ff2:	c3                   	ret    

00110ff3 <process_pit_handler>:
  110ff3:	55                   	push   %ebp
  110ff4:	89 e5                	mov    %esp,%ebp
  110ff6:	83 ec 08             	sub    $0x8,%esp
  110ff9:	83 ec 0c             	sub    $0xc,%esp
  110ffc:	ff 75 08             	push   0x8(%ebp)
  110fff:	e8 54 10 00 00       	call   112058 <process_sched_pit_handler>
  111004:	83 c4 10             	add    $0x10,%esp
  111007:	83 ec 0c             	sub    $0xc,%esp
  11100a:	ff 75 08             	push   0x8(%ebp)
  11100d:	e8 18 11 00 00       	call   11212a <process_time_pit_handler>
  111012:	83 c4 10             	add    $0x10,%esp
  111015:	90                   	nop
  111016:	89 ec                	mov    %ebp,%esp
  111018:	5d                   	pop    %ebp
  111019:	c3                   	ret    

0011101a <process_idle>:
  11101a:	55                   	push   %ebp
  11101b:	89 e5                	mov    %esp,%ebp
  11101d:	83 ec 08             	sub    $0x8,%esp
  111020:	83 ec 08             	sub    $0x8,%esp
  111023:	6a 00                	push   $0x0
  111025:	ff 75 10             	push   0x10(%ebp)
  111028:	68 c0 72 11 00       	push   $0x1172c0
  11102d:	6a 00                	push   $0x0
  11102f:	ff 75 0c             	push   0xc(%ebp)
  111032:	ff 75 08             	push   0x8(%ebp)
  111035:	e8 31 fc ff ff       	call   110c6b <process_alloc>
  11103a:	83 c4 20             	add    $0x20,%esp
  11103d:	a3 c0 11 13 00       	mov    %eax,0x1311c0
  111042:	a1 c0 11 13 00       	mov    0x1311c0,%eax
  111047:	c7 40 08 00 00 00 00 	movl   $0x0,0x8(%eax)
  11104e:	a1 c0 11 13 00       	mov    0x1311c0,%eax
  111053:	c7 40 0c 00 00 00 00 	movl   $0x0,0xc(%eax)
  11105a:	a1 c0 11 13 00       	mov    0x1311c0,%eax
  11105f:	c7 40 10 00 00 00 00 	movl   $0x0,0x10(%eax)
  111066:	83 ec 0c             	sub    $0xc,%esp
  111069:	68 f3 0f 11 00       	push   $0x110ff3
  11106e:	e8 f1 f7 ff ff       	call   110864 <pit_set_handler>
  111073:	83 c4 10             	add    $0x10,%esp
  111076:	a1 c0 11 13 00       	mov    0x1311c0,%eax
  11107b:	83 c0 14             	add    $0x14,%eax
  11107e:	83 ec 08             	sub    $0x8,%esp
  111081:	50                   	push   %eax
  111082:	68 7c ed 12 00       	push   $0x12ed7c
  111087:	e8 ea fa ff ff       	call   110b76 <process_context_switch>
  11108c:	83 c4 10             	add    $0x10,%esp
  11108f:	90                   	nop
  111090:	89 ec                	mov    %ebp,%esp
  111092:	5d                   	pop    %ebp
  111093:	c3                   	ret    

00111094 <process_start>:
  111094:	55                   	push   %ebp
  111095:	89 e5                	mov    %esp,%ebp
  111097:	83 ec 18             	sub    $0x18,%esp
  11109a:	a1 c0 11 13 00       	mov    0x1311c0,%eax
  11109f:	85 c0                	test   %eax,%eax
  1110a1:	75 0a                	jne    1110ad <process_start+0x19>
  1110a3:	b8 ff ff ff ff       	mov    $0xffffffff,%eax
  1110a8:	e9 ac 00 00 00       	jmp    111159 <process_start+0xc5>
  1110ad:	83 7d 10 00          	cmpl   $0x0,0x10(%ebp)
  1110b1:	78 09                	js     1110bc <process_start+0x28>
  1110b3:	81 7d 10 ff 00 00 00 	cmpl   $0xff,0x10(%ebp)
  1110ba:	7e 0a                	jle    1110c6 <process_start+0x32>
  1110bc:	b8 ff ff ff ff       	mov    $0xffffffff,%eax
  1110c1:	e9 93 00 00 00       	jmp    111159 <process_start+0xc5>
  1110c6:	83 ec 08             	sub    $0x8,%esp
  1110c9:	6a 01                	push   $0x1
  1110cb:	ff 75 18             	push   0x18(%ebp)
  1110ce:	ff 75 14             	push   0x14(%ebp)
  1110d1:	ff 75 10             	push   0x10(%ebp)
  1110d4:	ff 75 0c             	push   0xc(%ebp)
  1110d7:	ff 75 08             	push   0x8(%ebp)
  1110da:	e8 8c fb ff ff       	call   110c6b <process_alloc>
  1110df:	83 c4 20             	add    $0x20,%esp
  1110e2:	89 45 f4             	mov    %eax,-0xc(%ebp)
  1110e5:	83 7d f4 00          	cmpl   $0x0,-0xc(%ebp)
  1110e9:	75 07                	jne    1110f2 <process_start+0x5e>
  1110eb:	b8 ff ff ff ff       	mov    $0xffffffff,%eax
  1110f0:	eb 67                	jmp    111159 <process_start+0xc5>
  1110f2:	8b 15 c0 11 13 00    	mov    0x1311c0,%edx
  1110f8:	8b 45 f4             	mov    -0xc(%ebp),%eax
  1110fb:	89 50 08             	mov    %edx,0x8(%eax)
  1110fe:	8b 45 f4             	mov    -0xc(%ebp),%eax
  111101:	c7 40 0c 00 00 00 00 	movl   $0x0,0xc(%eax)
  111108:	a1 c0 11 13 00       	mov    0x1311c0,%eax
  11110d:	8b 50 0c             	mov    0xc(%eax),%edx
  111110:	8b 45 f4             	mov    -0xc(%ebp),%eax
  111113:	89 50 10             	mov    %edx,0x10(%eax)
  111116:	a1 c0 11 13 00       	mov    0x1311c0,%eax
  11111b:	8b 55 f4             	mov    -0xc(%ebp),%edx
  11111e:	89 50 0c             	mov    %edx,0xc(%eax)
  111121:	8b 45 f4             	mov    -0xc(%ebp),%eax
  111124:	8b 90 cc 00 00 00    	mov    0xcc(%eax),%edx
  11112a:	a1 c0 11 13 00       	mov    0x1311c0,%eax
  11112f:	8b 80 cc 00 00 00    	mov    0xcc(%eax),%eax
  111135:	39 c2                	cmp    %eax,%edx
  111137:	7e 1a                	jle    111153 <process_start+0xbf>
  111139:	a1 c0 11 13 00       	mov    0x1311c0,%eax
  11113e:	c7 40 28 01 00 00 00 	movl   $0x1,0x28(%eax)
  111145:	83 ec 0c             	sub    $0xc,%esp
  111148:	ff 75 f4             	push   -0xc(%ebp)
  11114b:	e8 57 0d 00 00       	call   111ea7 <process_sched_advance>
  111150:	83 c4 10             	add    $0x10,%esp
  111153:	8b 45 f4             	mov    -0xc(%ebp),%eax
  111156:	8b 40 48             	mov    0x48(%eax),%eax
  111159:	89 ec                	mov    %ebp,%esp
  11115b:	5d                   	pop    %ebp
  11115c:	c3                   	ret    

0011115d <process_exit>:
  11115d:	55                   	push   %ebp
  11115e:	89 e5                	mov    %esp,%ebp
  111160:	83 ec 08             	sub    $0x8,%esp
  111163:	83 ec 0c             	sub    $0xc,%esp
  111166:	ff 75 08             	push   0x8(%ebp)
  111169:	e8 00 00 00 00       	call   11116e <process_internal_exit>

0011116e <process_internal_exit>:
  11116e:	55                   	push   %ebp
  11116f:	89 e5                	mov    %esp,%ebp
  111171:	83 ec 08             	sub    $0x8,%esp
  111174:	a1 c0 11 13 00       	mov    0x1311c0,%eax
  111179:	83 ec 04             	sub    $0x4,%esp
  11117c:	6a 01                	push   $0x1
  11117e:	ff 75 08             	push   0x8(%ebp)
  111181:	50                   	push   %eax
  111182:	e8 e4 fc ff ff       	call   110e6b <process_internal_kill>
  111187:	83 c4 10             	add    $0x10,%esp
  11118a:	eb fe                	jmp    11118a <process_internal_exit+0x1c>

0011118c <process_pid>:
  11118c:	55                   	push   %ebp
  11118d:	89 e5                	mov    %esp,%ebp
  11118f:	a1 c0 11 13 00       	mov    0x1311c0,%eax
  111194:	8b 40 48             	mov    0x48(%eax),%eax
  111197:	5d                   	pop    %ebp
  111198:	c3                   	ret    

00111199 <process_name>:
  111199:	55                   	push   %ebp
  11119a:	89 e5                	mov    %esp,%ebp
  11119c:	a1 c0 11 13 00       	mov    0x1311c0,%eax
  1111a1:	83 c0 4c             	add    $0x4c,%eax
  1111a4:	5d                   	pop    %ebp
  1111a5:	c3                   	ret    

001111a6 <process_priority>:
  1111a6:	55                   	push   %ebp
  1111a7:	89 e5                	mov    %esp,%ebp
  1111a9:	83 ec 18             	sub    $0x18,%esp
  1111ac:	83 ec 0c             	sub    $0xc,%esp
  1111af:	ff 75 08             	push   0x8(%ebp)
  1111b2:	e8 7c fa ff ff       	call   110c33 <process_from_pid>
  1111b7:	83 c4 10             	add    $0x10,%esp
  1111ba:	89 45 f4             	mov    %eax,-0xc(%ebp)
  1111bd:	83 7d f4 00          	cmpl   $0x0,-0xc(%ebp)
  1111c1:	75 07                	jne    1111ca <process_priority+0x24>
  1111c3:	b8 ff ff ff ff       	mov    $0xffffffff,%eax
  1111c8:	eb 09                	jmp    1111d3 <process_priority+0x2d>
  1111ca:	8b 45 f4             	mov    -0xc(%ebp),%eax
  1111cd:	8b 80 cc 00 00 00    	mov    0xcc(%eax),%eax
  1111d3:	89 ec                	mov    %ebp,%esp
  1111d5:	5d                   	pop    %ebp
  1111d6:	c3                   	ret    

001111d7 <process_set_priority>:
  1111d7:	55                   	push   %ebp
  1111d8:	89 e5                	mov    %esp,%ebp
  1111da:	83 ec 18             	sub    $0x18,%esp
  1111dd:	83 7d 0c 00          	cmpl   $0x0,0xc(%ebp)
  1111e1:	78 09                	js     1111ec <process_set_priority+0x15>
  1111e3:	81 7d 0c ff 00 00 00 	cmpl   $0xff,0xc(%ebp)
  1111ea:	7e 0a                	jle    1111f6 <process_set_priority+0x1f>
  1111ec:	b8 ff ff ff ff       	mov    $0xffffffff,%eax
  1111f1:	e9 97 00 00 00       	jmp    11128d <process_set_priority+0xb6>
  1111f6:	83 ec 0c             	sub    $0xc,%esp
  1111f9:	ff 75 08             	push   0x8(%ebp)
  1111fc:	e8 32 fa ff ff       	call   110c33 <process_from_pid>
  111201:	83 c4 10             	add    $0x10,%esp
  111204:	89 45 f4             	mov    %eax,-0xc(%ebp)
  111207:	83 7d f4 00          	cmpl   $0x0,-0xc(%ebp)
  11120b:	74 0b                	je     111218 <process_set_priority+0x41>
  11120d:	8b 45 f4             	mov    -0xc(%ebp),%eax
  111210:	8b 40 28             	mov    0x28(%eax),%eax
  111213:	83 f8 05             	cmp    $0x5,%eax
  111216:	75 07                	jne    11121f <process_set_priority+0x48>
  111218:	b8 ff ff ff ff       	mov    $0xffffffff,%eax
  11121d:	eb 6e                	jmp    11128d <process_set_priority+0xb6>
  11121f:	8b 45 f4             	mov    -0xc(%ebp),%eax
  111222:	8b 80 cc 00 00 00    	mov    0xcc(%eax),%eax
  111228:	89 45 f0             	mov    %eax,-0x10(%ebp)
  11122b:	8b 45 0c             	mov    0xc(%ebp),%eax
  11122e:	3b 45 f0             	cmp    -0x10(%ebp),%eax
  111231:	75 05                	jne    111238 <process_set_priority+0x61>
  111233:	8b 45 f0             	mov    -0x10(%ebp),%eax
  111236:	eb 55                	jmp    11128d <process_set_priority+0xb6>
  111238:	8b 45 f4             	mov    -0xc(%ebp),%eax
  11123b:	8b 40 28             	mov    0x28(%eax),%eax
  11123e:	85 c0                	test   %eax,%eax
  111240:	74 0b                	je     11124d <process_set_priority+0x76>
  111242:	8b 45 f4             	mov    -0xc(%ebp),%eax
  111245:	8b 40 28             	mov    0x28(%eax),%eax
  111248:	83 f8 01             	cmp    $0x1,%eax
  11124b:	75 13                	jne    111260 <process_set_priority+0x89>
  11124d:	83 ec 08             	sub    $0x8,%esp
  111250:	ff 75 0c             	push   0xc(%ebp)
  111253:	ff 75 f4             	push   -0xc(%ebp)
  111256:	e8 16 0d 00 00       	call   111f71 <process_sched_set_priority>
  11125b:	83 c4 10             	add    $0x10,%esp
  11125e:	eb 2a                	jmp    11128a <process_set_priority+0xb3>
  111260:	8b 45 f4             	mov    -0xc(%ebp),%eax
  111263:	8b 40 28             	mov    0x28(%eax),%eax
  111266:	83 f8 04             	cmp    $0x4,%eax
  111269:	75 13                	jne    11127e <process_set_priority+0xa7>
  11126b:	83 ec 08             	sub    $0x8,%esp
  11126e:	ff 75 0c             	push   0xc(%ebp)
  111271:	ff 75 f4             	push   -0xc(%ebp)
  111274:	e8 4f 0a 00 00       	call   111cc8 <process_queue_set_priority>
  111279:	83 c4 10             	add    $0x10,%esp
  11127c:	eb 0c                	jmp    11128a <process_set_priority+0xb3>
  11127e:	8b 45 f4             	mov    -0xc(%ebp),%eax
  111281:	8b 55 0c             	mov    0xc(%ebp),%edx
  111284:	89 90 cc 00 00 00    	mov    %edx,0xcc(%eax)
  11128a:	8b 45 f0             	mov    -0x10(%ebp),%eax
  11128d:	89 ec                	mov    %ebp,%esp
  11128f:	5d                   	pop    %ebp
  111290:	c3                   	ret    

00111291 <process_wait>:
  111291:	55                   	push   %ebp
  111292:	89 e5                	mov    %esp,%ebp
  111294:	83 ec 18             	sub    $0x18,%esp
  111297:	a1 c0 11 13 00       	mov    0x1311c0,%eax
  11129c:	8b 40 0c             	mov    0xc(%eax),%eax
  11129f:	89 45 f4             	mov    %eax,-0xc(%ebp)
  1112a2:	83 7d f4 00          	cmpl   $0x0,-0xc(%ebp)
  1112a6:	75 2f                	jne    1112d7 <process_wait+0x46>
  1112a8:	b8 ff ff ff ff       	mov    $0xffffffff,%eax
  1112ad:	e9 bb 00 00 00       	jmp    11136d <process_wait+0xdc>
  1112b2:	83 7d 08 00          	cmpl   $0x0,0x8(%ebp)
  1112b6:	79 0b                	jns    1112c3 <process_wait+0x32>
  1112b8:	8b 45 f4             	mov    -0xc(%ebp),%eax
  1112bb:	8b 40 28             	mov    0x28(%eax),%eax
  1112be:	83 f8 05             	cmp    $0x5,%eax
  1112c1:	74 1d                	je     1112e0 <process_wait+0x4f>
  1112c3:	8b 45 f4             	mov    -0xc(%ebp),%eax
  1112c6:	8b 40 48             	mov    0x48(%eax),%eax
  1112c9:	39 45 08             	cmp    %eax,0x8(%ebp)
  1112cc:	74 11                	je     1112df <process_wait+0x4e>
  1112ce:	8b 45 f4             	mov    -0xc(%ebp),%eax
  1112d1:	8b 40 10             	mov    0x10(%eax),%eax
  1112d4:	89 45 f4             	mov    %eax,-0xc(%ebp)
  1112d7:	83 7d f4 00          	cmpl   $0x0,-0xc(%ebp)
  1112db:	75 d5                	jne    1112b2 <process_wait+0x21>
  1112dd:	eb 01                	jmp    1112e0 <process_wait+0x4f>
  1112df:	90                   	nop
  1112e0:	83 7d f4 00          	cmpl   $0x0,-0xc(%ebp)
  1112e4:	75 0d                	jne    1112f3 <process_wait+0x62>
  1112e6:	83 7d 08 00          	cmpl   $0x0,0x8(%ebp)
  1112ea:	78 07                	js     1112f3 <process_wait+0x62>
  1112ec:	b8 ff ff ff ff       	mov    $0xffffffff,%eax
  1112f1:	eb 7a                	jmp    11136d <process_wait+0xdc>
  1112f3:	83 7d f4 00          	cmpl   $0x0,-0xc(%ebp)
  1112f7:	74 0b                	je     111304 <process_wait+0x73>
  1112f9:	8b 45 f4             	mov    -0xc(%ebp),%eax
  1112fc:	8b 40 28             	mov    0x28(%eax),%eax
  1112ff:	83 f8 05             	cmp    $0x5,%eax
  111302:	74 44                	je     111348 <process_wait+0xb7>
  111304:	a1 c0 11 13 00       	mov    0x1311c0,%eax
  111309:	83 ec 0c             	sub    $0xc,%esp
  11130c:	50                   	push   %eax
  11130d:	e8 a2 0a 00 00       	call   111db4 <process_sched_ring_remove>
  111312:	83 c4 10             	add    $0x10,%esp
  111315:	89 45 f0             	mov    %eax,-0x10(%ebp)
  111318:	a1 c0 11 13 00       	mov    0x1311c0,%eax
  11131d:	c7 40 28 02 00 00 00 	movl   $0x2,0x28(%eax)
  111324:	a1 c0 11 13 00       	mov    0x1311c0,%eax
  111329:	8b 55 08             	mov    0x8(%ebp),%edx
  11132c:	89 50 2c             	mov    %edx,0x2c(%eax)
  11132f:	83 ec 0c             	sub    $0xc,%esp
  111332:	ff 75 f0             	push   -0x10(%ebp)
  111335:	e8 6d 0b 00 00       	call   111ea7 <process_sched_advance>
  11133a:	83 c4 10             	add    $0x10,%esp
  11133d:	a1 c0 11 13 00       	mov    0x1311c0,%eax
  111342:	8b 40 34             	mov    0x34(%eax),%eax
  111345:	89 45 f4             	mov    %eax,-0xc(%ebp)
  111348:	83 7d 0c 00          	cmpl   $0x0,0xc(%ebp)
  11134c:	74 0b                	je     111359 <process_wait+0xc8>
  11134e:	8b 45 f4             	mov    -0xc(%ebp),%eax
  111351:	8b 50 2c             	mov    0x2c(%eax),%edx
  111354:	8b 45 0c             	mov    0xc(%ebp),%eax
  111357:	89 10                	mov    %edx,(%eax)
  111359:	83 ec 0c             	sub    $0xc,%esp
  11135c:	ff 75 f4             	push   -0xc(%ebp)
  11135f:	e8 4d fa ff ff       	call   110db1 <process_free>
  111364:	83 c4 10             	add    $0x10,%esp
  111367:	8b 45 f4             	mov    -0xc(%ebp),%eax
  11136a:	8b 40 48             	mov    0x48(%eax),%eax
  11136d:	89 ec                	mov    %ebp,%esp
  11136f:	5d                   	pop    %ebp
  111370:	c3                   	ret    

00111371 <process_kill>:
  111371:	55                   	push   %ebp
  111372:	89 e5                	mov    %esp,%ebp
  111374:	83 ec 18             	sub    $0x18,%esp
  111377:	83 7d 08 00          	cmpl   $0x0,0x8(%ebp)
  11137b:	75 07                	jne    111384 <process_kill+0x13>
  11137d:	b8 ff ff ff ff       	mov    $0xffffffff,%eax
  111382:	eb 57                	jmp    1113db <process_kill+0x6a>
  111384:	a1 c0 11 13 00       	mov    0x1311c0,%eax
  111389:	8b 40 48             	mov    0x48(%eax),%eax
  11138c:	39 45 08             	cmp    %eax,0x8(%ebp)
  11138f:	75 0a                	jne    11139b <process_kill+0x2a>
  111391:	83 ec 0c             	sub    $0xc,%esp
  111394:	6a 00                	push   $0x0
  111396:	e8 d3 fd ff ff       	call   11116e <process_internal_exit>
  11139b:	83 ec 0c             	sub    $0xc,%esp
  11139e:	ff 75 08             	push   0x8(%ebp)
  1113a1:	e8 8d f8 ff ff       	call   110c33 <process_from_pid>
  1113a6:	83 c4 10             	add    $0x10,%esp
  1113a9:	89 45 f4             	mov    %eax,-0xc(%ebp)
  1113ac:	83 7d f4 00          	cmpl   $0x0,-0xc(%ebp)
  1113b0:	74 0b                	je     1113bd <process_kill+0x4c>
  1113b2:	8b 45 f4             	mov    -0xc(%ebp),%eax
  1113b5:	8b 40 28             	mov    0x28(%eax),%eax
  1113b8:	83 f8 05             	cmp    $0x5,%eax
  1113bb:	75 07                	jne    1113c4 <process_kill+0x53>
  1113bd:	b8 ff ff ff ff       	mov    $0xffffffff,%eax
  1113c2:	eb 17                	jmp    1113db <process_kill+0x6a>
  1113c4:	83 ec 04             	sub    $0x4,%esp
  1113c7:	6a 01                	push   $0x1
  1113c9:	6a 00                	push   $0x0
  1113cb:	ff 75 f4             	push   -0xc(%ebp)
  1113ce:	e8 98 fa ff ff       	call   110e6b <process_internal_kill>
  1113d3:	83 c4 10             	add    $0x10,%esp
  1113d6:	b8 00 00 00 00       	mov    $0x0,%eax
  1113db:	89 ec                	mov    %ebp,%esp
  1113dd:	5d                   	pop    %ebp
  1113de:	c3                   	ret    

001113df <process_wait_clock>:
  1113df:	55                   	push   %ebp
  1113e0:	89 e5                	mov    %esp,%ebp
  1113e2:	83 ec 18             	sub    $0x18,%esp
  1113e5:	e8 58 f4 ff ff       	call   110842 <pit_clock_get>
  1113ea:	39 45 08             	cmp    %eax,0x8(%ebp)
  1113ed:	77 1b                	ja     11140a <process_wait_clock+0x2b>
  1113ef:	a1 c0 11 13 00       	mov    0x1311c0,%eax
  1113f4:	c7 40 28 01 00 00 00 	movl   $0x1,0x28(%eax)
  1113fb:	83 ec 0c             	sub    $0xc,%esp
  1113fe:	6a 00                	push   $0x0
  111400:	e8 a2 0a 00 00       	call   111ea7 <process_sched_advance>
  111405:	83 c4 10             	add    $0x10,%esp
  111408:	eb 4a                	jmp    111454 <process_wait_clock+0x75>
  11140a:	a1 c0 11 13 00       	mov    0x1311c0,%eax
  11140f:	83 ec 0c             	sub    $0xc,%esp
  111412:	50                   	push   %eax
  111413:	e8 9c 09 00 00       	call   111db4 <process_sched_ring_remove>
  111418:	83 c4 10             	add    $0x10,%esp
  11141b:	89 45 f4             	mov    %eax,-0xc(%ebp)
  11141e:	a1 c0 11 13 00       	mov    0x1311c0,%eax
  111423:	c7 40 28 03 00 00 00 	movl   $0x3,0x28(%eax)
  11142a:	a1 c0 11 13 00       	mov    0x1311c0,%eax
  11142f:	8b 55 08             	mov    0x8(%ebp),%edx
  111432:	89 50 30             	mov    %edx,0x30(%eax)
  111435:	a1 c0 11 13 00       	mov    0x1311c0,%eax
  11143a:	83 ec 0c             	sub    $0xc,%esp
  11143d:	50                   	push   %eax
  11143e:	e8 39 0c 00 00       	call   11207c <process_time_queue_add>
  111443:	83 c4 10             	add    $0x10,%esp
  111446:	83 ec 0c             	sub    $0xc,%esp
  111449:	ff 75 f4             	push   -0xc(%ebp)
  11144c:	e8 56 0a 00 00       	call   111ea7 <process_sched_advance>
  111451:	83 c4 10             	add    $0x10,%esp
  111454:	90                   	nop
  111455:	89 ec                	mov    %ebp,%esp
  111457:	5d                   	pop    %ebp
  111458:	c3                   	ret    

00111459 <process_debug>:
  111459:	55                   	push   %ebp
  11145a:	89 e5                	mov    %esp,%ebp
  11145c:	83 ec 08             	sub    $0x8,%esp
  11145f:	8b 45 08             	mov    0x8(%ebp),%eax
  111462:	8b 40 48             	mov    0x48(%eax),%eax
  111465:	83 ec 08             	sub    $0x8,%esp
  111468:	50                   	push   %eax
  111469:	68 c5 72 11 00       	push   $0x1172c5
  11146e:	e8 0c de ff ff       	call   10f27f <printf>
  111473:	83 c4 10             	add    $0x10,%esp
  111476:	8b 45 08             	mov    0x8(%ebp),%eax
  111479:	83 c0 4c             	add    $0x4c,%eax
  11147c:	83 ec 08             	sub    $0x8,%esp
  11147f:	50                   	push   %eax
  111480:	68 db 72 11 00       	push   $0x1172db
  111485:	e8 f5 dd ff ff       	call   10f27f <printf>
  11148a:	83 c4 10             	add    $0x10,%esp
  11148d:	8b 45 08             	mov    0x8(%ebp),%eax
  111490:	8b 40 28             	mov    0x28(%eax),%eax
  111493:	83 ec 08             	sub    $0x8,%esp
  111496:	50                   	push   %eax
  111497:	68 e8 72 11 00       	push   $0x1172e8
  11149c:	e8 de dd ff ff       	call   10f27f <printf>
  1114a1:	83 c4 10             	add    $0x10,%esp
  1114a4:	83 ec 0c             	sub    $0xc,%esp
  1114a7:	68 f5 72 11 00       	push   $0x1172f5
  1114ac:	e8 1f de ff ff       	call   10f2d0 <puts>
  1114b1:	83 c4 10             	add    $0x10,%esp
  1114b4:	8b 45 08             	mov    0x8(%ebp),%eax
  1114b7:	8b 40 14             	mov    0x14(%eax),%eax
  1114ba:	83 ec 08             	sub    $0x8,%esp
  1114bd:	50                   	push   %eax
  1114be:	68 fe 72 11 00       	push   $0x1172fe
  1114c3:	e8 b7 dd ff ff       	call   10f27f <printf>
  1114c8:	83 c4 10             	add    $0x10,%esp
  1114cb:	8b 45 08             	mov    0x8(%ebp),%eax
  1114ce:	8b 40 18             	mov    0x18(%eax),%eax
  1114d1:	83 ec 08             	sub    $0x8,%esp
  1114d4:	50                   	push   %eax
  1114d5:	68 0c 73 11 00       	push   $0x11730c
  1114da:	e8 a0 dd ff ff       	call   10f27f <printf>
  1114df:	83 c4 10             	add    $0x10,%esp
  1114e2:	8b 45 08             	mov    0x8(%ebp),%eax
  1114e5:	8b 40 1c             	mov    0x1c(%eax),%eax
  1114e8:	83 ec 08             	sub    $0x8,%esp
  1114eb:	50                   	push   %eax
  1114ec:	68 1a 73 11 00       	push   $0x11731a
  1114f1:	e8 89 dd ff ff       	call   10f27f <printf>
  1114f6:	83 c4 10             	add    $0x10,%esp
  1114f9:	8b 45 08             	mov    0x8(%ebp),%eax
  1114fc:	8b 40 20             	mov    0x20(%eax),%eax
  1114ff:	83 ec 08             	sub    $0x8,%esp
  111502:	50                   	push   %eax
  111503:	68 28 73 11 00       	push   $0x117328
  111508:	e8 72 dd ff ff       	call   10f27f <printf>
  11150d:	83 c4 10             	add    $0x10,%esp
  111510:	8b 45 08             	mov    0x8(%ebp),%eax
  111513:	8b 40 24             	mov    0x24(%eax),%eax
  111516:	83 ec 08             	sub    $0x8,%esp
  111519:	50                   	push   %eax
  11151a:	68 36 73 11 00       	push   $0x117336
  11151f:	e8 5b dd ff ff       	call   10f27f <printf>
  111524:	83 c4 10             	add    $0x10,%esp
  111527:	90                   	nop
  111528:	89 ec                	mov    %ebp,%esp
  11152a:	5d                   	pop    %ebp
  11152b:	c3                   	ret    

0011152c <process_queue_from_qid>:
  11152c:	55                   	push   %ebp
  11152d:	89 e5                	mov    %esp,%ebp
  11152f:	83 ec 10             	sub    $0x10,%esp
  111532:	83 7d 08 00          	cmpl   $0x0,0x8(%ebp)
  111536:	78 09                	js     111541 <process_queue_from_qid+0x15>
  111538:	81 7d 08 ff 00 00 00 	cmpl   $0xff,0x8(%ebp)
  11153f:	7e 07                	jle    111548 <process_queue_from_qid+0x1c>
  111541:	b8 00 00 00 00       	mov    $0x0,%eax
  111546:	eb 22                	jmp    11156a <process_queue_from_qid+0x3e>
  111548:	8b 45 08             	mov    0x8(%ebp),%eax
  11154b:	c1 e0 05             	shl    $0x5,%eax
  11154e:	05 a0 ed 12 00       	add    $0x12eda0,%eax
  111553:	89 45 fc             	mov    %eax,-0x4(%ebp)
  111556:	8b 45 fc             	mov    -0x4(%ebp),%eax
  111559:	8b 40 08             	mov    0x8(%eax),%eax
  11155c:	85 c0                	test   %eax,%eax
  11155e:	75 07                	jne    111567 <process_queue_from_qid+0x3b>
  111560:	b8 00 00 00 00       	mov    $0x0,%eax
  111565:	eb 03                	jmp    11156a <process_queue_from_qid+0x3e>
  111567:	8b 45 fc             	mov    -0x4(%ebp),%eax
  11156a:	89 ec                	mov    %ebp,%esp
  11156c:	5d                   	pop    %ebp
  11156d:	c3                   	ret    

0011156e <process_queue_add_process>:
  11156e:	55                   	push   %ebp
  11156f:	89 e5                	mov    %esp,%ebp
  111571:	8b 45 0c             	mov    0xc(%ebp),%eax
  111574:	c7 40 2c 00 00 00 00 	movl   $0x0,0x2c(%eax)
  11157b:	8b 45 08             	mov    0x8(%ebp),%eax
  11157e:	8b 50 1c             	mov    0x1c(%eax),%edx
  111581:	8b 45 0c             	mov    0xc(%ebp),%eax
  111584:	89 50 30             	mov    %edx,0x30(%eax)
  111587:	8b 45 08             	mov    0x8(%ebp),%eax
  11158a:	8b 40 1c             	mov    0x1c(%eax),%eax
  11158d:	85 c0                	test   %eax,%eax
  11158f:	74 0c                	je     11159d <process_queue_add_process+0x2f>
  111591:	8b 45 08             	mov    0x8(%ebp),%eax
  111594:	8b 40 1c             	mov    0x1c(%eax),%eax
  111597:	8b 55 0c             	mov    0xc(%ebp),%edx
  11159a:	89 50 2c             	mov    %edx,0x2c(%eax)
  11159d:	8b 45 08             	mov    0x8(%ebp),%eax
  1115a0:	8b 55 0c             	mov    0xc(%ebp),%edx
  1115a3:	89 50 1c             	mov    %edx,0x1c(%eax)
  1115a6:	90                   	nop
  1115a7:	5d                   	pop    %ebp
  1115a8:	c3                   	ret    

001115a9 <process_queue_remove_process>:
  1115a9:	55                   	push   %ebp
  1115aa:	89 e5                	mov    %esp,%ebp
  1115ac:	83 ec 10             	sub    $0x10,%esp
  1115af:	8b 45 0c             	mov    0xc(%ebp),%eax
  1115b2:	8b 40 2c             	mov    0x2c(%eax),%eax
  1115b5:	85 c0                	test   %eax,%eax
  1115b7:	75 25                	jne    1115de <process_queue_remove_process+0x35>
  1115b9:	8b 45 0c             	mov    0xc(%ebp),%eax
  1115bc:	8b 50 30             	mov    0x30(%eax),%edx
  1115bf:	8b 45 08             	mov    0x8(%ebp),%eax
  1115c2:	89 50 1c             	mov    %edx,0x1c(%eax)
  1115c5:	8b 45 08             	mov    0x8(%ebp),%eax
  1115c8:	8b 40 1c             	mov    0x1c(%eax),%eax
  1115cb:	85 c0                	test   %eax,%eax
  1115cd:	74 39                	je     111608 <process_queue_remove_process+0x5f>
  1115cf:	8b 45 08             	mov    0x8(%ebp),%eax
  1115d2:	8b 40 1c             	mov    0x1c(%eax),%eax
  1115d5:	c7 40 2c 00 00 00 00 	movl   $0x0,0x2c(%eax)
  1115dc:	eb 2a                	jmp    111608 <process_queue_remove_process+0x5f>
  1115de:	8b 45 0c             	mov    0xc(%ebp),%eax
  1115e1:	8b 40 2c             	mov    0x2c(%eax),%eax
  1115e4:	89 45 fc             	mov    %eax,-0x4(%ebp)
  1115e7:	8b 45 0c             	mov    0xc(%ebp),%eax
  1115ea:	8b 40 30             	mov    0x30(%eax),%eax
  1115ed:	89 45 f8             	mov    %eax,-0x8(%ebp)
  1115f0:	8b 45 fc             	mov    -0x4(%ebp),%eax
  1115f3:	8b 55 f8             	mov    -0x8(%ebp),%edx
  1115f6:	89 50 30             	mov    %edx,0x30(%eax)
  1115f9:	83 7d f8 00          	cmpl   $0x0,-0x8(%ebp)
  1115fd:	74 09                	je     111608 <process_queue_remove_process+0x5f>
  1115ff:	8b 45 f8             	mov    -0x8(%ebp),%eax
  111602:	8b 55 fc             	mov    -0x4(%ebp),%edx
  111605:	89 50 2c             	mov    %edx,0x2c(%eax)
  111608:	90                   	nop
  111609:	89 ec                	mov    %ebp,%esp
  11160b:	5d                   	pop    %ebp
  11160c:	c3                   	ret    

0011160d <process_queue_wait>:
  11160d:	55                   	push   %ebp
  11160e:	89 e5                	mov    %esp,%ebp
  111610:	83 ec 18             	sub    $0x18,%esp
  111613:	a1 c0 11 13 00       	mov    0x1311c0,%eax
  111618:	83 ec 0c             	sub    $0xc,%esp
  11161b:	50                   	push   %eax
  11161c:	e8 93 07 00 00       	call   111db4 <process_sched_ring_remove>
  111621:	83 c4 10             	add    $0x10,%esp
  111624:	89 45 f4             	mov    %eax,-0xc(%ebp)
  111627:	a1 c0 11 13 00       	mov    0x1311c0,%eax
  11162c:	c7 40 28 04 00 00 00 	movl   $0x4,0x28(%eax)
  111633:	a1 c0 11 13 00       	mov    0x1311c0,%eax
  111638:	8b 55 0c             	mov    0xc(%ebp),%edx
  11163b:	89 50 38             	mov    %edx,0x38(%eax)
  11163e:	a1 c0 11 13 00       	mov    0x1311c0,%eax
  111643:	8b 55 08             	mov    0x8(%ebp),%edx
  111646:	89 50 34             	mov    %edx,0x34(%eax)
  111649:	a1 c0 11 13 00       	mov    0x1311c0,%eax
  11164e:	83 ec 08             	sub    $0x8,%esp
  111651:	50                   	push   %eax
  111652:	ff 75 08             	push   0x8(%ebp)
  111655:	e8 14 ff ff ff       	call   11156e <process_queue_add_process>
  11165a:	83 c4 10             	add    $0x10,%esp
  11165d:	83 ec 0c             	sub    $0xc,%esp
  111660:	ff 75 f4             	push   -0xc(%ebp)
  111663:	e8 3f 08 00 00       	call   111ea7 <process_sched_advance>
  111668:	83 c4 10             	add    $0x10,%esp
  11166b:	a1 c0 11 13 00       	mov    0x1311c0,%eax
  111670:	8a 40 3c             	mov    0x3c(%eax),%al
  111673:	89 ec                	mov    %ebp,%esp
  111675:	5d                   	pop    %ebp
  111676:	c3                   	ret    

00111677 <process_queue_pop_next>:
  111677:	55                   	push   %ebp
  111678:	89 e5                	mov    %esp,%ebp
  11167a:	83 ec 10             	sub    $0x10,%esp
  11167d:	8b 45 08             	mov    0x8(%ebp),%eax
  111680:	8b 40 1c             	mov    0x1c(%eax),%eax
  111683:	89 45 fc             	mov    %eax,-0x4(%ebp)
  111686:	c7 45 f8 00 00 00 00 	movl   $0x0,-0x8(%ebp)
  11168d:	eb 2b                	jmp    1116ba <process_queue_pop_next+0x43>
  11168f:	83 7d f8 00          	cmpl   $0x0,-0x8(%ebp)
  111693:	74 16                	je     1116ab <process_queue_pop_next+0x34>
  111695:	8b 45 f8             	mov    -0x8(%ebp),%eax
  111698:	8b 90 cc 00 00 00    	mov    0xcc(%eax),%edx
  11169e:	8b 45 fc             	mov    -0x4(%ebp),%eax
  1116a1:	8b 80 cc 00 00 00    	mov    0xcc(%eax),%eax
  1116a7:	39 c2                	cmp    %eax,%edx
  1116a9:	7f 06                	jg     1116b1 <process_queue_pop_next+0x3a>
  1116ab:	8b 45 fc             	mov    -0x4(%ebp),%eax
  1116ae:	89 45 f8             	mov    %eax,-0x8(%ebp)
  1116b1:	8b 45 fc             	mov    -0x4(%ebp),%eax
  1116b4:	8b 40 30             	mov    0x30(%eax),%eax
  1116b7:	89 45 fc             	mov    %eax,-0x4(%ebp)
  1116ba:	83 7d fc 00          	cmpl   $0x0,-0x4(%ebp)
  1116be:	75 cf                	jne    11168f <process_queue_pop_next+0x18>
  1116c0:	83 7d f8 00          	cmpl   $0x0,-0x8(%ebp)
  1116c4:	74 0e                	je     1116d4 <process_queue_pop_next+0x5d>
  1116c6:	ff 75 f8             	push   -0x8(%ebp)
  1116c9:	ff 75 08             	push   0x8(%ebp)
  1116cc:	e8 d8 fe ff ff       	call   1115a9 <process_queue_remove_process>
  1116d1:	83 c4 08             	add    $0x8,%esp
  1116d4:	8b 45 f8             	mov    -0x8(%ebp),%eax
  1116d7:	89 ec                	mov    %ebp,%esp
  1116d9:	5d                   	pop    %ebp
  1116da:	c3                   	ret    

001116db <process_queue_resume_reset>:
  1116db:	55                   	push   %ebp
  1116dc:	89 e5                	mov    %esp,%ebp
  1116de:	83 ec 18             	sub    $0x18,%esp
  1116e1:	8b 45 08             	mov    0x8(%ebp),%eax
  1116e4:	8b 40 1c             	mov    0x1c(%eax),%eax
  1116e7:	89 45 f4             	mov    %eax,-0xc(%ebp)
  1116ea:	c7 45 f0 00 00 00 00 	movl   $0x0,-0x10(%ebp)
  1116f1:	eb 50                	jmp    111743 <process_queue_resume_reset+0x68>
  1116f3:	83 7d f0 00          	cmpl   $0x0,-0x10(%ebp)
  1116f7:	74 16                	je     11170f <process_queue_resume_reset+0x34>
  1116f9:	8b 45 f0             	mov    -0x10(%ebp),%eax
  1116fc:	8b 90 cc 00 00 00    	mov    0xcc(%eax),%edx
  111702:	8b 45 f4             	mov    -0xc(%ebp),%eax
  111705:	8b 80 cc 00 00 00    	mov    0xcc(%eax),%eax
  11170b:	39 c2                	cmp    %eax,%edx
  11170d:	7d 06                	jge    111715 <process_queue_resume_reset+0x3a>
  11170f:	8b 45 f4             	mov    -0xc(%ebp),%eax
  111712:	89 45 f0             	mov    %eax,-0x10(%ebp)
  111715:	8b 45 f4             	mov    -0xc(%ebp),%eax
  111718:	8b 40 30             	mov    0x30(%eax),%eax
  11171b:	89 45 ec             	mov    %eax,-0x14(%ebp)
  11171e:	8b 45 f4             	mov    -0xc(%ebp),%eax
  111721:	c7 40 28 01 00 00 00 	movl   $0x1,0x28(%eax)
  111728:	8b 45 f4             	mov    -0xc(%ebp),%eax
  11172b:	c6 40 3c 01          	movb   $0x1,0x3c(%eax)
  11172f:	83 ec 0c             	sub    $0xc,%esp
  111732:	ff 75 f4             	push   -0xc(%ebp)
  111735:	e8 e0 05 00 00       	call   111d1a <process_sched_ring_insert>
  11173a:	83 c4 10             	add    $0x10,%esp
  11173d:	8b 45 ec             	mov    -0x14(%ebp),%eax
  111740:	89 45 f4             	mov    %eax,-0xc(%ebp)
  111743:	83 7d f4 00          	cmpl   $0x0,-0xc(%ebp)
  111747:	75 aa                	jne    1116f3 <process_queue_resume_reset+0x18>
  111749:	8b 45 08             	mov    0x8(%ebp),%eax
  11174c:	c7 40 1c 00 00 00 00 	movl   $0x0,0x1c(%eax)
  111753:	83 7d f0 00          	cmpl   $0x0,-0x10(%ebp)
  111757:	74 32                	je     11178b <process_queue_resume_reset+0xb0>
  111759:	8b 45 f0             	mov    -0x10(%ebp),%eax
  11175c:	8b 90 cc 00 00 00    	mov    0xcc(%eax),%edx
  111762:	a1 c0 11 13 00       	mov    0x1311c0,%eax
  111767:	8b 80 cc 00 00 00    	mov    0xcc(%eax),%eax
  11176d:	39 c2                	cmp    %eax,%edx
  11176f:	7e 1a                	jle    11178b <process_queue_resume_reset+0xb0>
  111771:	a1 c0 11 13 00       	mov    0x1311c0,%eax
  111776:	c7 40 28 01 00 00 00 	movl   $0x1,0x28(%eax)
  11177d:	83 ec 0c             	sub    $0xc,%esp
  111780:	ff 75 f0             	push   -0x10(%ebp)
  111783:	e8 1f 07 00 00       	call   111ea7 <process_sched_advance>
  111788:	83 c4 10             	add    $0x10,%esp
  11178b:	90                   	nop
  11178c:	89 ec                	mov    %ebp,%esp
  11178e:	5d                   	pop    %ebp
  11178f:	c3                   	ret    

00111790 <process_queue_raw_write>:
  111790:	55                   	push   %ebp
  111791:	89 e5                	mov    %esp,%ebp
  111793:	8b 45 08             	mov    0x8(%ebp),%eax
  111796:	8b 50 08             	mov    0x8(%eax),%edx
  111799:	8b 45 08             	mov    0x8(%ebp),%eax
  11179c:	8b 40 18             	mov    0x18(%eax),%eax
  11179f:	c1 e0 02             	shl    $0x2,%eax
  1117a2:	01 c2                	add    %eax,%edx
  1117a4:	8b 45 0c             	mov    0xc(%ebp),%eax
  1117a7:	89 02                	mov    %eax,(%edx)
  1117a9:	8b 45 08             	mov    0x8(%ebp),%eax
  1117ac:	8b 40 18             	mov    0x18(%eax),%eax
  1117af:	8d 50 01             	lea    0x1(%eax),%edx
  1117b2:	8b 45 08             	mov    0x8(%ebp),%eax
  1117b5:	89 50 18             	mov    %edx,0x18(%eax)
  1117b8:	8b 45 08             	mov    0x8(%ebp),%eax
  1117bb:	8b 50 18             	mov    0x18(%eax),%edx
  1117be:	8b 45 08             	mov    0x8(%ebp),%eax
  1117c1:	8b 40 0c             	mov    0xc(%eax),%eax
  1117c4:	39 c2                	cmp    %eax,%edx
  1117c6:	75 0a                	jne    1117d2 <process_queue_raw_write+0x42>
  1117c8:	8b 45 08             	mov    0x8(%ebp),%eax
  1117cb:	c7 40 18 00 00 00 00 	movl   $0x0,0x18(%eax)
  1117d2:	8b 45 08             	mov    0x8(%ebp),%eax
  1117d5:	8b 40 10             	mov    0x10(%eax),%eax
  1117d8:	8d 48 01             	lea    0x1(%eax),%ecx
  1117db:	8b 55 08             	mov    0x8(%ebp),%edx
  1117de:	89 4a 10             	mov    %ecx,0x10(%edx)
  1117e1:	5d                   	pop    %ebp
  1117e2:	c3                   	ret    

001117e3 <process_queue_raw_read>:
  1117e3:	55                   	push   %ebp
  1117e4:	89 e5                	mov    %esp,%ebp
  1117e6:	83 7d 0c 00          	cmpl   $0x0,0xc(%ebp)
  1117ea:	74 18                	je     111804 <process_queue_raw_read+0x21>
  1117ec:	8b 45 08             	mov    0x8(%ebp),%eax
  1117ef:	8b 50 08             	mov    0x8(%eax),%edx
  1117f2:	8b 45 08             	mov    0x8(%ebp),%eax
  1117f5:	8b 40 14             	mov    0x14(%eax),%eax
  1117f8:	c1 e0 02             	shl    $0x2,%eax
  1117fb:	01 d0                	add    %edx,%eax
  1117fd:	8b 10                	mov    (%eax),%edx
  1117ff:	8b 45 0c             	mov    0xc(%ebp),%eax
  111802:	89 10                	mov    %edx,(%eax)
  111804:	8b 45 08             	mov    0x8(%ebp),%eax
  111807:	8b 40 14             	mov    0x14(%eax),%eax
  11180a:	8d 50 01             	lea    0x1(%eax),%edx
  11180d:	8b 45 08             	mov    0x8(%ebp),%eax
  111810:	89 50 14             	mov    %edx,0x14(%eax)
  111813:	8b 45 08             	mov    0x8(%ebp),%eax
  111816:	8b 50 14             	mov    0x14(%eax),%edx
  111819:	8b 45 08             	mov    0x8(%ebp),%eax
  11181c:	8b 40 0c             	mov    0xc(%eax),%eax
  11181f:	39 c2                	cmp    %eax,%edx
  111821:	75 0a                	jne    11182d <process_queue_raw_read+0x4a>
  111823:	8b 45 08             	mov    0x8(%ebp),%eax
  111826:	c7 40 14 00 00 00 00 	movl   $0x0,0x14(%eax)
  11182d:	8b 45 08             	mov    0x8(%ebp),%eax
  111830:	8b 40 10             	mov    0x10(%eax),%eax
  111833:	8d 48 ff             	lea    -0x1(%eax),%ecx
  111836:	8b 55 08             	mov    0x8(%ebp),%edx
  111839:	89 4a 10             	mov    %ecx,0x10(%edx)
  11183c:	5d                   	pop    %ebp
  11183d:	c3                   	ret    

0011183e <process_queue_create>:
  11183e:	55                   	push   %ebp
  11183f:	89 e5                	mov    %esp,%ebp
  111841:	83 ec 18             	sub    $0x18,%esp
  111844:	83 7d 08 00          	cmpl   $0x0,0x8(%ebp)
  111848:	74 15                	je     11185f <process_queue_create+0x21>
  11184a:	a1 a4 0d 13 00       	mov    0x130da4,%eax
  11184f:	85 c0                	test   %eax,%eax
  111851:	75 16                	jne    111869 <process_queue_create+0x2b>
  111853:	a1 a0 0d 13 00       	mov    0x130da0,%eax
  111858:	3d ff 00 00 00       	cmp    $0xff,%eax
  11185d:	76 0a                	jbe    111869 <process_queue_create+0x2b>
  11185f:	b8 ff ff ff ff       	mov    $0xffffffff,%eax
  111864:	e9 ed 00 00 00       	jmp    111956 <process_queue_create+0x118>
  111869:	b8 00 00 00 00       	mov    $0x0,%eax
  11186e:	8b 55 08             	mov    0x8(%ebp),%edx
  111871:	8d 0c 95 00 00 00 00 	lea    0x0(,%edx,4),%ecx
  111878:	8b 55 08             	mov    0x8(%ebp),%edx
  11187b:	c1 ea 1e             	shr    $0x1e,%edx
  11187e:	85 d2                	test   %edx,%edx
  111880:	74 05                	je     111887 <process_queue_create+0x49>
  111882:	b8 01 00 00 00       	mov    $0x1,%eax
  111887:	89 ca                	mov    %ecx,%edx
  111889:	89 55 e8             	mov    %edx,-0x18(%ebp)
  11188c:	83 e0 01             	and    $0x1,%eax
  11188f:	84 c0                	test   %al,%al
  111891:	74 0a                	je     11189d <process_queue_create+0x5f>
  111893:	b8 ff ff ff ff       	mov    $0xffffffff,%eax
  111898:	e9 b9 00 00 00       	jmp    111956 <process_queue_create+0x118>
  11189d:	8b 45 e8             	mov    -0x18(%ebp),%eax
  1118a0:	83 ec 0c             	sub    $0xc,%esp
  1118a3:	50                   	push   %eax
  1118a4:	e8 37 09 00 00       	call   1121e0 <kalloc>
  1118a9:	83 c4 10             	add    $0x10,%esp
  1118ac:	89 45 f0             	mov    %eax,-0x10(%ebp)
  1118af:	83 7d f0 00          	cmpl   $0x0,-0x10(%ebp)
  1118b3:	75 0a                	jne    1118bf <process_queue_create+0x81>
  1118b5:	b8 ff ff ff ff       	mov    $0xffffffff,%eax
  1118ba:	e9 97 00 00 00       	jmp    111956 <process_queue_create+0x118>
  1118bf:	a1 a4 0d 13 00       	mov    0x130da4,%eax
  1118c4:	85 c0                	test   %eax,%eax
  1118c6:	74 1d                	je     1118e5 <process_queue_create+0xa7>
  1118c8:	a1 a4 0d 13 00       	mov    0x130da4,%eax
  1118cd:	89 45 f4             	mov    %eax,-0xc(%ebp)
  1118d0:	8b 45 f4             	mov    -0xc(%ebp),%eax
  1118d3:	8b 00                	mov    (%eax),%eax
  1118d5:	a3 a4 0d 13 00       	mov    %eax,0x130da4
  1118da:	8b 45 f4             	mov    -0xc(%ebp),%eax
  1118dd:	c7 00 00 00 00 00    	movl   $0x0,(%eax)
  1118e3:	eb 28                	jmp    11190d <process_queue_create+0xcf>
  1118e5:	a1 a0 0d 13 00       	mov    0x130da0,%eax
  1118ea:	8d 50 01             	lea    0x1(%eax),%edx
  1118ed:	89 15 a0 0d 13 00    	mov    %edx,0x130da0
  1118f3:	89 45 ec             	mov    %eax,-0x14(%ebp)
  1118f6:	8b 45 ec             	mov    -0x14(%ebp),%eax
  1118f9:	c1 e0 05             	shl    $0x5,%eax
  1118fc:	05 a0 ed 12 00       	add    $0x12eda0,%eax
  111901:	89 45 f4             	mov    %eax,-0xc(%ebp)
  111904:	8b 45 f4             	mov    -0xc(%ebp),%eax
  111907:	8b 55 ec             	mov    -0x14(%ebp),%edx
  11190a:	89 50 04             	mov    %edx,0x4(%eax)
  11190d:	8b 45 f4             	mov    -0xc(%ebp),%eax
  111910:	c7 00 00 00 00 00    	movl   $0x0,(%eax)
  111916:	8b 45 f4             	mov    -0xc(%ebp),%eax
  111919:	8b 55 f0             	mov    -0x10(%ebp),%edx
  11191c:	89 50 08             	mov    %edx,0x8(%eax)
  11191f:	8b 45 f4             	mov    -0xc(%ebp),%eax
  111922:	8b 55 08             	mov    0x8(%ebp),%edx
  111925:	89 50 0c             	mov    %edx,0xc(%eax)
  111928:	8b 45 f4             	mov    -0xc(%ebp),%eax
  11192b:	c7 40 10 00 00 00 00 	movl   $0x0,0x10(%eax)
  111932:	8b 45 f4             	mov    -0xc(%ebp),%eax
  111935:	c7 40 14 00 00 00 00 	movl   $0x0,0x14(%eax)
  11193c:	8b 45 f4             	mov    -0xc(%ebp),%eax
  11193f:	c7 40 18 00 00 00 00 	movl   $0x0,0x18(%eax)
  111946:	8b 45 f4             	mov    -0xc(%ebp),%eax
  111949:	c7 40 1c 00 00 00 00 	movl   $0x0,0x1c(%eax)
  111950:	8b 45 f4             	mov    -0xc(%ebp),%eax
  111953:	8b 40 04             	mov    0x4(%eax),%eax
  111956:	89 ec                	mov    %ebp,%esp
  111958:	5d                   	pop    %ebp
  111959:	c3                   	ret    

0011195a <process_queue_delete>:
  11195a:	55                   	push   %ebp
  11195b:	89 e5                	mov    %esp,%ebp
  11195d:	83 ec 18             	sub    $0x18,%esp
  111960:	ff 75 08             	push   0x8(%ebp)
  111963:	e8 c4 fb ff ff       	call   11152c <process_queue_from_qid>
  111968:	83 c4 04             	add    $0x4,%esp
  11196b:	89 45 f4             	mov    %eax,-0xc(%ebp)
  11196e:	83 7d f4 00          	cmpl   $0x0,-0xc(%ebp)
  111972:	75 07                	jne    11197b <process_queue_delete+0x21>
  111974:	b8 ff ff ff ff       	mov    $0xffffffff,%eax
  111979:	eb 42                	jmp    1119bd <process_queue_delete+0x63>
  11197b:	8b 45 f4             	mov    -0xc(%ebp),%eax
  11197e:	8b 40 08             	mov    0x8(%eax),%eax
  111981:	83 ec 0c             	sub    $0xc,%esp
  111984:	50                   	push   %eax
  111985:	e8 aa 08 00 00       	call   112234 <kfree>
  11198a:	83 c4 10             	add    $0x10,%esp
  11198d:	8b 45 f4             	mov    -0xc(%ebp),%eax
  111990:	c7 40 08 00 00 00 00 	movl   $0x0,0x8(%eax)
  111997:	83 ec 0c             	sub    $0xc,%esp
  11199a:	ff 75 f4             	push   -0xc(%ebp)
  11199d:	e8 39 fd ff ff       	call   1116db <process_queue_resume_reset>
  1119a2:	83 c4 10             	add    $0x10,%esp
  1119a5:	8b 15 a4 0d 13 00    	mov    0x130da4,%edx
  1119ab:	8b 45 f4             	mov    -0xc(%ebp),%eax
  1119ae:	89 10                	mov    %edx,(%eax)
  1119b0:	8b 45 f4             	mov    -0xc(%ebp),%eax
  1119b3:	a3 a4 0d 13 00       	mov    %eax,0x130da4
  1119b8:	b8 00 00 00 00       	mov    $0x0,%eax
  1119bd:	89 ec                	mov    %ebp,%esp
  1119bf:	5d                   	pop    %ebp
  1119c0:	c3                   	ret    

001119c1 <process_queue_send>:
  1119c1:	55                   	push   %ebp
  1119c2:	89 e5                	mov    %esp,%ebp
  1119c4:	83 ec 18             	sub    $0x18,%esp
  1119c7:	ff 75 08             	push   0x8(%ebp)
  1119ca:	e8 5d fb ff ff       	call   11152c <process_queue_from_qid>
  1119cf:	83 c4 04             	add    $0x4,%esp
  1119d2:	89 45 f4             	mov    %eax,-0xc(%ebp)
  1119d5:	83 7d f4 00          	cmpl   $0x0,-0xc(%ebp)
  1119d9:	75 0a                	jne    1119e5 <process_queue_send+0x24>
  1119db:	b8 ff ff ff ff       	mov    $0xffffffff,%eax
  1119e0:	e9 cb 00 00 00       	jmp    111ab0 <process_queue_send+0xef>
  1119e5:	8b 45 f4             	mov    -0xc(%ebp),%eax
  1119e8:	8b 50 10             	mov    0x10(%eax),%edx
  1119eb:	8b 45 f4             	mov    -0xc(%ebp),%eax
  1119ee:	8b 40 0c             	mov    0xc(%eax),%eax
  1119f1:	39 c2                	cmp    %eax,%edx
  1119f3:	75 23                	jne    111a18 <process_queue_send+0x57>
  1119f5:	83 ec 08             	sub    $0x8,%esp
  1119f8:	ff 75 0c             	push   0xc(%ebp)
  1119fb:	ff 75 f4             	push   -0xc(%ebp)
  1119fe:	e8 0a fc ff ff       	call   11160d <process_queue_wait>
  111a03:	83 c4 10             	add    $0x10,%esp
  111a06:	84 c0                	test   %al,%al
  111a08:	0f 84 9d 00 00 00    	je     111aab <process_queue_send+0xea>
  111a0e:	b8 ff ff ff ff       	mov    $0xffffffff,%eax
  111a13:	e9 98 00 00 00       	jmp    111ab0 <process_queue_send+0xef>
  111a18:	8b 45 f4             	mov    -0xc(%ebp),%eax
  111a1b:	8b 40 10             	mov    0x10(%eax),%eax
  111a1e:	85 c0                	test   %eax,%eax
  111a20:	75 78                	jne    111a9a <process_queue_send+0xd9>
  111a22:	83 ec 0c             	sub    $0xc,%esp
  111a25:	ff 75 f4             	push   -0xc(%ebp)
  111a28:	e8 4a fc ff ff       	call   111677 <process_queue_pop_next>
  111a2d:	83 c4 10             	add    $0x10,%esp
  111a30:	89 45 f0             	mov    %eax,-0x10(%ebp)
  111a33:	83 7d f0 00          	cmpl   $0x0,-0x10(%ebp)
  111a37:	74 61                	je     111a9a <process_queue_send+0xd9>
  111a39:	8b 45 f0             	mov    -0x10(%ebp),%eax
  111a3c:	c7 40 28 01 00 00 00 	movl   $0x1,0x28(%eax)
  111a43:	8b 45 f0             	mov    -0x10(%ebp),%eax
  111a46:	c6 40 3c 00          	movb   $0x0,0x3c(%eax)
  111a4a:	8b 45 f0             	mov    -0x10(%ebp),%eax
  111a4d:	8b 55 0c             	mov    0xc(%ebp),%edx
  111a50:	89 50 38             	mov    %edx,0x38(%eax)
  111a53:	83 ec 0c             	sub    $0xc,%esp
  111a56:	ff 75 f0             	push   -0x10(%ebp)
  111a59:	e8 bc 02 00 00       	call   111d1a <process_sched_ring_insert>
  111a5e:	83 c4 10             	add    $0x10,%esp
  111a61:	8b 45 f0             	mov    -0x10(%ebp),%eax
  111a64:	8b 90 cc 00 00 00    	mov    0xcc(%eax),%edx
  111a6a:	a1 c0 11 13 00       	mov    0x1311c0,%eax
  111a6f:	8b 80 cc 00 00 00    	mov    0xcc(%eax),%eax
  111a75:	39 c2                	cmp    %eax,%edx
  111a77:	7e 1a                	jle    111a93 <process_queue_send+0xd2>
  111a79:	a1 c0 11 13 00       	mov    0x1311c0,%eax
  111a7e:	c7 40 28 01 00 00 00 	movl   $0x1,0x28(%eax)
  111a85:	83 ec 0c             	sub    $0xc,%esp
  111a88:	ff 75 f0             	push   -0x10(%ebp)
  111a8b:	e8 17 04 00 00       	call   111ea7 <process_sched_advance>
  111a90:	83 c4 10             	add    $0x10,%esp
  111a93:	b8 00 00 00 00       	mov    $0x0,%eax
  111a98:	eb 16                	jmp    111ab0 <process_queue_send+0xef>
  111a9a:	83 ec 08             	sub    $0x8,%esp
  111a9d:	ff 75 0c             	push   0xc(%ebp)
  111aa0:	ff 75 f4             	push   -0xc(%ebp)
  111aa3:	e8 e8 fc ff ff       	call   111790 <process_queue_raw_write>
  111aa8:	83 c4 10             	add    $0x10,%esp
  111aab:	b8 00 00 00 00       	mov    $0x0,%eax
  111ab0:	89 ec                	mov    %ebp,%esp
  111ab2:	5d                   	pop    %ebp
  111ab3:	c3                   	ret    

00111ab4 <process_queue_receive>:
  111ab4:	55                   	push   %ebp
  111ab5:	89 e5                	mov    %esp,%ebp
  111ab7:	83 ec 18             	sub    $0x18,%esp
  111aba:	ff 75 08             	push   0x8(%ebp)
  111abd:	e8 6a fa ff ff       	call   11152c <process_queue_from_qid>
  111ac2:	83 c4 04             	add    $0x4,%esp
  111ac5:	89 45 f4             	mov    %eax,-0xc(%ebp)
  111ac8:	83 7d f4 00          	cmpl   $0x0,-0xc(%ebp)
  111acc:	75 0a                	jne    111ad8 <process_queue_receive+0x24>
  111ace:	b8 ff ff ff ff       	mov    $0xffffffff,%eax
  111ad3:	e9 f6 00 00 00       	jmp    111bce <process_queue_receive+0x11a>
  111ad8:	8b 45 f4             	mov    -0xc(%ebp),%eax
  111adb:	8b 40 10             	mov    0x10(%eax),%eax
  111ade:	85 c0                	test   %eax,%eax
  111ae0:	75 3a                	jne    111b1c <process_queue_receive+0x68>
  111ae2:	83 ec 08             	sub    $0x8,%esp
  111ae5:	6a 00                	push   $0x0
  111ae7:	ff 75 f4             	push   -0xc(%ebp)
  111aea:	e8 1e fb ff ff       	call   11160d <process_queue_wait>
  111aef:	83 c4 10             	add    $0x10,%esp
  111af2:	84 c0                	test   %al,%al
  111af4:	74 0a                	je     111b00 <process_queue_receive+0x4c>
  111af6:	b8 ff ff ff ff       	mov    $0xffffffff,%eax
  111afb:	e9 ce 00 00 00       	jmp    111bce <process_queue_receive+0x11a>
  111b00:	83 7d 0c 00          	cmpl   $0x0,0xc(%ebp)
  111b04:	0f 84 bf 00 00 00    	je     111bc9 <process_queue_receive+0x115>
  111b0a:	a1 c0 11 13 00       	mov    0x1311c0,%eax
  111b0f:	8b 50 38             	mov    0x38(%eax),%edx
  111b12:	8b 45 0c             	mov    0xc(%ebp),%eax
  111b15:	89 10                	mov    %edx,(%eax)
  111b17:	e9 ad 00 00 00       	jmp    111bc9 <process_queue_receive+0x115>
  111b1c:	83 ec 08             	sub    $0x8,%esp
  111b1f:	ff 75 0c             	push   0xc(%ebp)
  111b22:	ff 75 f4             	push   -0xc(%ebp)
  111b25:	e8 b9 fc ff ff       	call   1117e3 <process_queue_raw_read>
  111b2a:	83 c4 10             	add    $0x10,%esp
  111b2d:	8b 55 f4             	mov    -0xc(%ebp),%edx
  111b30:	8b 52 0c             	mov    0xc(%edx),%edx
  111b33:	39 d0                	cmp    %edx,%eax
  111b35:	0f 85 8e 00 00 00    	jne    111bc9 <process_queue_receive+0x115>
  111b3b:	83 ec 0c             	sub    $0xc,%esp
  111b3e:	ff 75 f4             	push   -0xc(%ebp)
  111b41:	e8 31 fb ff ff       	call   111677 <process_queue_pop_next>
  111b46:	83 c4 10             	add    $0x10,%esp
  111b49:	89 45 f0             	mov    %eax,-0x10(%ebp)
  111b4c:	83 7d f0 00          	cmpl   $0x0,-0x10(%ebp)
  111b50:	75 07                	jne    111b59 <process_queue_receive+0xa5>
  111b52:	b8 00 00 00 00       	mov    $0x0,%eax
  111b57:	eb 75                	jmp    111bce <process_queue_receive+0x11a>
  111b59:	8b 45 f0             	mov    -0x10(%ebp),%eax
  111b5c:	8b 40 38             	mov    0x38(%eax),%eax
  111b5f:	83 ec 08             	sub    $0x8,%esp
  111b62:	50                   	push   %eax
  111b63:	ff 75 f4             	push   -0xc(%ebp)
  111b66:	e8 25 fc ff ff       	call   111790 <process_queue_raw_write>
  111b6b:	83 c4 10             	add    $0x10,%esp
  111b6e:	8b 45 f0             	mov    -0x10(%ebp),%eax
  111b71:	c7 40 28 01 00 00 00 	movl   $0x1,0x28(%eax)
  111b78:	8b 45 f0             	mov    -0x10(%ebp),%eax
  111b7b:	c6 40 3c 00          	movb   $0x0,0x3c(%eax)
  111b7f:	8b 45 f0             	mov    -0x10(%ebp),%eax
  111b82:	c7 40 38 ff ff ff ff 	movl   $0xffffffff,0x38(%eax)
  111b89:	83 ec 0c             	sub    $0xc,%esp
  111b8c:	ff 75 f0             	push   -0x10(%ebp)
  111b8f:	e8 86 01 00 00       	call   111d1a <process_sched_ring_insert>
  111b94:	83 c4 10             	add    $0x10,%esp
  111b97:	8b 45 f0             	mov    -0x10(%ebp),%eax
  111b9a:	8b 90 cc 00 00 00    	mov    0xcc(%eax),%edx
  111ba0:	a1 c0 11 13 00       	mov    0x1311c0,%eax
  111ba5:	8b 80 cc 00 00 00    	mov    0xcc(%eax),%eax
  111bab:	39 c2                	cmp    %eax,%edx
  111bad:	7e 1a                	jle    111bc9 <process_queue_receive+0x115>
  111baf:	a1 c0 11 13 00       	mov    0x1311c0,%eax
  111bb4:	c7 40 28 01 00 00 00 	movl   $0x1,0x28(%eax)
  111bbb:	83 ec 0c             	sub    $0xc,%esp
  111bbe:	ff 75 f0             	push   -0x10(%ebp)
  111bc1:	e8 e1 02 00 00       	call   111ea7 <process_sched_advance>
  111bc6:	83 c4 10             	add    $0x10,%esp
  111bc9:	b8 00 00 00 00       	mov    $0x0,%eax
  111bce:	89 ec                	mov    %ebp,%esp
  111bd0:	5d                   	pop    %ebp
  111bd1:	c3                   	ret    

00111bd2 <process_queue_count>:
  111bd2:	55                   	push   %ebp
  111bd3:	89 e5                	mov    %esp,%ebp
  111bd5:	83 ec 10             	sub    $0x10,%esp
  111bd8:	ff 75 08             	push   0x8(%ebp)
  111bdb:	e8 4c f9 ff ff       	call   11152c <process_queue_from_qid>
  111be0:	83 c4 04             	add    $0x4,%esp
  111be3:	89 45 f4             	mov    %eax,-0xc(%ebp)
  111be6:	83 7d f4 00          	cmpl   $0x0,-0xc(%ebp)
  111bea:	75 07                	jne    111bf3 <process_queue_count+0x21>
  111bec:	b8 ff ff ff ff       	mov    $0xffffffff,%eax
  111bf1:	eb 7b                	jmp    111c6e <process_queue_count+0x9c>
  111bf3:	83 7d 0c 00          	cmpl   $0x0,0xc(%ebp)
  111bf7:	75 07                	jne    111c00 <process_queue_count+0x2e>
  111bf9:	b8 00 00 00 00       	mov    $0x0,%eax
  111bfe:	eb 6e                	jmp    111c6e <process_queue_count+0x9c>
  111c00:	c7 45 fc 00 00 00 00 	movl   $0x0,-0x4(%ebp)
  111c07:	8b 45 f4             	mov    -0xc(%ebp),%eax
  111c0a:	8b 40 1c             	mov    0x1c(%eax),%eax
  111c0d:	89 45 f8             	mov    %eax,-0x8(%ebp)
  111c10:	eb 0c                	jmp    111c1e <process_queue_count+0x4c>
  111c12:	ff 45 fc             	incl   -0x4(%ebp)
  111c15:	8b 45 f8             	mov    -0x8(%ebp),%eax
  111c18:	8b 40 30             	mov    0x30(%eax),%eax
  111c1b:	89 45 f8             	mov    %eax,-0x8(%ebp)
  111c1e:	83 7d f8 00          	cmpl   $0x0,-0x8(%ebp)
  111c22:	75 ee                	jne    111c12 <process_queue_count+0x40>
  111c24:	8b 45 f4             	mov    -0xc(%ebp),%eax
  111c27:	8b 40 10             	mov    0x10(%eax),%eax
  111c2a:	85 c0                	test   %eax,%eax
  111c2c:	75 0e                	jne    111c3c <process_queue_count+0x6a>
  111c2e:	8b 45 fc             	mov    -0x4(%ebp),%eax
  111c31:	f7 d8                	neg    %eax
  111c33:	89 c2                	mov    %eax,%edx
  111c35:	8b 45 0c             	mov    0xc(%ebp),%eax
  111c38:	89 10                	mov    %edx,(%eax)
  111c3a:	eb 2d                	jmp    111c69 <process_queue_count+0x97>
  111c3c:	8b 45 f4             	mov    -0xc(%ebp),%eax
  111c3f:	8b 50 10             	mov    0x10(%eax),%edx
  111c42:	8b 45 f4             	mov    -0xc(%ebp),%eax
  111c45:	8b 40 0c             	mov    0xc(%eax),%eax
  111c48:	39 c2                	cmp    %eax,%edx
  111c4a:	75 14                	jne    111c60 <process_queue_count+0x8e>
  111c4c:	8b 45 f4             	mov    -0xc(%ebp),%eax
  111c4f:	8b 50 10             	mov    0x10(%eax),%edx
  111c52:	8b 45 fc             	mov    -0x4(%ebp),%eax
  111c55:	01 d0                	add    %edx,%eax
  111c57:	89 c2                	mov    %eax,%edx
  111c59:	8b 45 0c             	mov    0xc(%ebp),%eax
  111c5c:	89 10                	mov    %edx,(%eax)
  111c5e:	eb 09                	jmp    111c69 <process_queue_count+0x97>
  111c60:	8b 45 0c             	mov    0xc(%ebp),%eax
  111c63:	c7 00 00 00 00 00    	movl   $0x0,(%eax)
  111c69:	b8 00 00 00 00       	mov    $0x0,%eax
  111c6e:	89 ec                	mov    %ebp,%esp
  111c70:	5d                   	pop    %ebp
  111c71:	c3                   	ret    

00111c72 <process_queue_reset>:
  111c72:	55                   	push   %ebp
  111c73:	89 e5                	mov    %esp,%ebp
  111c75:	83 ec 18             	sub    $0x18,%esp
  111c78:	ff 75 08             	push   0x8(%ebp)
  111c7b:	e8 ac f8 ff ff       	call   11152c <process_queue_from_qid>
  111c80:	83 c4 04             	add    $0x4,%esp
  111c83:	89 45 f4             	mov    %eax,-0xc(%ebp)
  111c86:	83 7d f4 00          	cmpl   $0x0,-0xc(%ebp)
  111c8a:	75 07                	jne    111c93 <process_queue_reset+0x21>
  111c8c:	b8 ff ff ff ff       	mov    $0xffffffff,%eax
  111c91:	eb 31                	jmp    111cc4 <process_queue_reset+0x52>
  111c93:	8b 45 f4             	mov    -0xc(%ebp),%eax
  111c96:	c7 40 10 00 00 00 00 	movl   $0x0,0x10(%eax)
  111c9d:	8b 45 f4             	mov    -0xc(%ebp),%eax
  111ca0:	c7 40 14 00 00 00 00 	movl   $0x0,0x14(%eax)
  111ca7:	8b 45 f4             	mov    -0xc(%ebp),%eax
  111caa:	c7 40 18 00 00 00 00 	movl   $0x0,0x18(%eax)
  111cb1:	83 ec 0c             	sub    $0xc,%esp
  111cb4:	ff 75 f4             	push   -0xc(%ebp)
  111cb7:	e8 1f fa ff ff       	call   1116db <process_queue_resume_reset>
  111cbc:	83 c4 10             	add    $0x10,%esp
  111cbf:	b8 00 00 00 00       	mov    $0x0,%eax
  111cc4:	89 ec                	mov    %ebp,%esp
  111cc6:	5d                   	pop    %ebp
  111cc7:	c3                   	ret    

00111cc8 <process_queue_set_priority>:
  111cc8:	55                   	push   %ebp
  111cc9:	89 e5                	mov    %esp,%ebp
  111ccb:	8b 45 08             	mov    0x8(%ebp),%eax
  111cce:	8b 55 0c             	mov    0xc(%ebp),%edx
  111cd1:	89 90 cc 00 00 00    	mov    %edx,0xcc(%eax)
  111cd7:	8b 45 08             	mov    0x8(%ebp),%eax
  111cda:	8b 40 34             	mov    0x34(%eax),%eax
  111cdd:	ff 75 08             	push   0x8(%ebp)
  111ce0:	50                   	push   %eax
  111ce1:	e8 c3 f8 ff ff       	call   1115a9 <process_queue_remove_process>
  111ce6:	83 c4 08             	add    $0x8,%esp
  111ce9:	8b 45 08             	mov    0x8(%ebp),%eax
  111cec:	8b 40 34             	mov    0x34(%eax),%eax
  111cef:	ff 75 08             	push   0x8(%ebp)
  111cf2:	50                   	push   %eax
  111cf3:	e8 76 f8 ff ff       	call   11156e <process_queue_add_process>
  111cf8:	83 c4 08             	add    $0x8,%esp
  111cfb:	90                   	nop
  111cfc:	89 ec                	mov    %ebp,%esp
  111cfe:	5d                   	pop    %ebp
  111cff:	c3                   	ret    

00111d00 <process_queue_kill_process>:
  111d00:	55                   	push   %ebp
  111d01:	89 e5                	mov    %esp,%ebp
  111d03:	8b 45 08             	mov    0x8(%ebp),%eax
  111d06:	8b 40 34             	mov    0x34(%eax),%eax
  111d09:	ff 75 08             	push   0x8(%ebp)
  111d0c:	50                   	push   %eax
  111d0d:	e8 97 f8 ff ff       	call   1115a9 <process_queue_remove_process>
  111d12:	83 c4 08             	add    $0x8,%esp
  111d15:	90                   	nop
  111d16:	89 ec                	mov    %ebp,%esp
  111d18:	5d                   	pop    %ebp
  111d19:	c3                   	ret    

00111d1a <process_sched_ring_insert>:
  111d1a:	55                   	push   %ebp
  111d1b:	89 e5                	mov    %esp,%ebp
  111d1d:	83 ec 18             	sub    $0x18,%esp
  111d20:	8b 45 08             	mov    0x8(%ebp),%eax
  111d23:	8b 40 28             	mov    0x28(%eax),%eax
  111d26:	85 c0                	test   %eax,%eax
  111d28:	74 18                	je     111d42 <process_sched_ring_insert+0x28>
  111d2a:	8b 45 08             	mov    0x8(%ebp),%eax
  111d2d:	8b 40 28             	mov    0x28(%eax),%eax
  111d30:	83 f8 01             	cmp    $0x1,%eax
  111d33:	74 0d                	je     111d42 <process_sched_ring_insert+0x28>
  111d35:	83 ec 0c             	sub    $0xc,%esp
  111d38:	68 44 73 11 00       	push   $0x117344
  111d3d:	e8 01 d4 ff ff       	call   10f143 <panic>
  111d42:	8b 45 08             	mov    0x8(%ebp),%eax
  111d45:	8b 80 cc 00 00 00    	mov    0xcc(%eax),%eax
  111d4b:	8b 04 85 c0 0d 13 00 	mov    0x130dc0(,%eax,4),%eax
  111d52:	89 45 f4             	mov    %eax,-0xc(%ebp)
  111d55:	83 7d f4 00          	cmpl   $0x0,-0xc(%ebp)
  111d59:	74 2f                	je     111d8a <process_sched_ring_insert+0x70>
  111d5b:	8b 45 08             	mov    0x8(%ebp),%eax
  111d5e:	8b 55 f4             	mov    -0xc(%ebp),%edx
  111d61:	89 50 30             	mov    %edx,0x30(%eax)
  111d64:	8b 45 f4             	mov    -0xc(%ebp),%eax
  111d67:	8b 50 2c             	mov    0x2c(%eax),%edx
  111d6a:	8b 45 08             	mov    0x8(%ebp),%eax
  111d6d:	89 50 2c             	mov    %edx,0x2c(%eax)
  111d70:	8b 45 08             	mov    0x8(%ebp),%eax
  111d73:	8b 40 30             	mov    0x30(%eax),%eax
  111d76:	8b 55 08             	mov    0x8(%ebp),%edx
  111d79:	89 50 2c             	mov    %edx,0x2c(%eax)
  111d7c:	8b 45 08             	mov    0x8(%ebp),%eax
  111d7f:	8b 40 2c             	mov    0x2c(%eax),%eax
  111d82:	8b 55 08             	mov    0x8(%ebp),%edx
  111d85:	89 50 30             	mov    %edx,0x30(%eax)
  111d88:	eb 12                	jmp    111d9c <process_sched_ring_insert+0x82>
  111d8a:	8b 45 08             	mov    0x8(%ebp),%eax
  111d8d:	8b 55 08             	mov    0x8(%ebp),%edx
  111d90:	89 50 30             	mov    %edx,0x30(%eax)
  111d93:	8b 45 08             	mov    0x8(%ebp),%eax
  111d96:	8b 55 08             	mov    0x8(%ebp),%edx
  111d99:	89 50 2c             	mov    %edx,0x2c(%eax)
  111d9c:	8b 45 08             	mov    0x8(%ebp),%eax
  111d9f:	8b 80 cc 00 00 00    	mov    0xcc(%eax),%eax
  111da5:	8b 55 08             	mov    0x8(%ebp),%edx
  111da8:	89 14 85 c0 0d 13 00 	mov    %edx,0x130dc0(,%eax,4)
  111daf:	90                   	nop
  111db0:	89 ec                	mov    %ebp,%esp
  111db2:	5d                   	pop    %ebp
  111db3:	c3                   	ret    

00111db4 <process_sched_ring_remove>:
  111db4:	55                   	push   %ebp
  111db5:	89 e5                	mov    %esp,%ebp
  111db7:	83 ec 18             	sub    $0x18,%esp
  111dba:	8b 45 08             	mov    0x8(%ebp),%eax
  111dbd:	8b 40 28             	mov    0x28(%eax),%eax
  111dc0:	85 c0                	test   %eax,%eax
  111dc2:	74 18                	je     111ddc <process_sched_ring_remove+0x28>
  111dc4:	8b 45 08             	mov    0x8(%ebp),%eax
  111dc7:	8b 40 28             	mov    0x28(%eax),%eax
  111dca:	83 f8 01             	cmp    $0x1,%eax
  111dcd:	74 0d                	je     111ddc <process_sched_ring_remove+0x28>
  111dcf:	83 ec 0c             	sub    $0xc,%esp
  111dd2:	68 84 73 11 00       	push   $0x117384
  111dd7:	e8 67 d3 ff ff       	call   10f143 <panic>
  111ddc:	8b 45 08             	mov    0x8(%ebp),%eax
  111ddf:	8b 40 2c             	mov    0x2c(%eax),%eax
  111de2:	89 45 f0             	mov    %eax,-0x10(%ebp)
  111de5:	8b 45 08             	mov    0x8(%ebp),%eax
  111de8:	8b 40 30             	mov    0x30(%eax),%eax
  111deb:	89 45 f4             	mov    %eax,-0xc(%ebp)
  111dee:	83 7d f0 00          	cmpl   $0x0,-0x10(%ebp)
  111df2:	74 06                	je     111dfa <process_sched_ring_remove+0x46>
  111df4:	83 7d f4 00          	cmpl   $0x0,-0xc(%ebp)
  111df8:	75 07                	jne    111e01 <process_sched_ring_remove+0x4d>
  111dfa:	b8 00 00 00 00       	mov    $0x0,%eax
  111dff:	eb 67                	jmp    111e68 <process_sched_ring_remove+0xb4>
  111e01:	8b 45 f4             	mov    -0xc(%ebp),%eax
  111e04:	3b 45 08             	cmp    0x8(%ebp),%eax
  111e07:	75 10                	jne    111e19 <process_sched_ring_remove+0x65>
  111e09:	c7 45 f4 00 00 00 00 	movl   $0x0,-0xc(%ebp)
  111e10:	c7 45 f0 00 00 00 00 	movl   $0x0,-0x10(%ebp)
  111e17:	eb 12                	jmp    111e2b <process_sched_ring_remove+0x77>
  111e19:	8b 45 f0             	mov    -0x10(%ebp),%eax
  111e1c:	8b 55 f4             	mov    -0xc(%ebp),%edx
  111e1f:	89 50 30             	mov    %edx,0x30(%eax)
  111e22:	8b 45 f4             	mov    -0xc(%ebp),%eax
  111e25:	8b 55 f0             	mov    -0x10(%ebp),%edx
  111e28:	89 50 2c             	mov    %edx,0x2c(%eax)
  111e2b:	8b 45 08             	mov    0x8(%ebp),%eax
  111e2e:	8b 80 cc 00 00 00    	mov    0xcc(%eax),%eax
  111e34:	c1 e0 02             	shl    $0x2,%eax
  111e37:	05 c0 0d 13 00       	add    $0x130dc0,%eax
  111e3c:	89 45 ec             	mov    %eax,-0x14(%ebp)
  111e3f:	8b 45 ec             	mov    -0x14(%ebp),%eax
  111e42:	8b 00                	mov    (%eax),%eax
  111e44:	39 45 08             	cmp    %eax,0x8(%ebp)
  111e47:	75 08                	jne    111e51 <process_sched_ring_remove+0x9d>
  111e49:	8b 45 ec             	mov    -0x14(%ebp),%eax
  111e4c:	8b 55 f4             	mov    -0xc(%ebp),%edx
  111e4f:	89 10                	mov    %edx,(%eax)
  111e51:	8b 45 08             	mov    0x8(%ebp),%eax
  111e54:	c7 40 2c 00 00 00 00 	movl   $0x0,0x2c(%eax)
  111e5b:	8b 45 08             	mov    0x8(%ebp),%eax
  111e5e:	c7 40 30 00 00 00 00 	movl   $0x0,0x30(%eax)
  111e65:	8b 45 f4             	mov    -0xc(%ebp),%eax
  111e68:	89 ec                	mov    %ebp,%esp
  111e6a:	5d                   	pop    %ebp
  111e6b:	c3                   	ret    

00111e6c <process_sched_ring_find>:
  111e6c:	55                   	push   %ebp
  111e6d:	89 e5                	mov    %esp,%ebp
  111e6f:	83 ec 10             	sub    $0x10,%esp
  111e72:	8b 45 08             	mov    0x8(%ebp),%eax
  111e75:	48                   	dec    %eax
  111e76:	89 45 fc             	mov    %eax,-0x4(%ebp)
  111e79:	eb 1d                	jmp    111e98 <process_sched_ring_find+0x2c>
  111e7b:	8b 45 fc             	mov    -0x4(%ebp),%eax
  111e7e:	8b 04 85 c0 0d 13 00 	mov    0x130dc0(,%eax,4),%eax
  111e85:	85 c0                	test   %eax,%eax
  111e87:	74 0c                	je     111e95 <process_sched_ring_find+0x29>
  111e89:	8b 45 fc             	mov    -0x4(%ebp),%eax
  111e8c:	8b 04 85 c0 0d 13 00 	mov    0x130dc0(,%eax,4),%eax
  111e93:	eb 0e                	jmp    111ea3 <process_sched_ring_find+0x37>
  111e95:	ff 4d fc             	decl   -0x4(%ebp)
  111e98:	83 7d fc 00          	cmpl   $0x0,-0x4(%ebp)
  111e9c:	79 dd                	jns    111e7b <process_sched_ring_find+0xf>
  111e9e:	b8 00 00 00 00       	mov    $0x0,%eax
  111ea3:	89 ec                	mov    %ebp,%esp
  111ea5:	5d                   	pop    %ebp
  111ea6:	c3                   	ret    

00111ea7 <process_sched_advance>:
  111ea7:	55                   	push   %ebp
  111ea8:	89 e5                	mov    %esp,%ebp
  111eaa:	83 ec 18             	sub    $0x18,%esp
  111ead:	a1 c0 11 13 00       	mov    0x1311c0,%eax
  111eb2:	89 45 f4             	mov    %eax,-0xc(%ebp)
  111eb5:	8b 45 f4             	mov    -0xc(%ebp),%eax
  111eb8:	8b 40 28             	mov    0x28(%eax),%eax
  111ebb:	85 c0                	test   %eax,%eax
  111ebd:	75 0d                	jne    111ecc <process_sched_advance+0x25>
  111ebf:	83 ec 0c             	sub    $0xc,%esp
  111ec2:	68 c4 73 11 00       	push   $0x1173c4
  111ec7:	e8 77 d2 ff ff       	call   10f143 <panic>
  111ecc:	83 7d 08 00          	cmpl   $0x0,0x8(%ebp)
  111ed0:	75 14                	jne    111ee6 <process_sched_advance+0x3f>
  111ed2:	8b 45 f4             	mov    -0xc(%ebp),%eax
  111ed5:	8b 40 28             	mov    0x28(%eax),%eax
  111ed8:	83 f8 01             	cmp    $0x1,%eax
  111edb:	75 09                	jne    111ee6 <process_sched_advance+0x3f>
  111edd:	8b 45 f4             	mov    -0xc(%ebp),%eax
  111ee0:	8b 40 30             	mov    0x30(%eax),%eax
  111ee3:	89 45 08             	mov    %eax,0x8(%ebp)
  111ee6:	83 7d 08 00          	cmpl   $0x0,0x8(%ebp)
  111eea:	75 18                	jne    111f04 <process_sched_advance+0x5d>
  111eec:	8b 45 f4             	mov    -0xc(%ebp),%eax
  111eef:	8b 80 cc 00 00 00    	mov    0xcc(%eax),%eax
  111ef5:	83 ec 0c             	sub    $0xc,%esp
  111ef8:	50                   	push   %eax
  111ef9:	e8 6e ff ff ff       	call   111e6c <process_sched_ring_find>
  111efe:	83 c4 10             	add    $0x10,%esp
  111f01:	89 45 08             	mov    %eax,0x8(%ebp)
  111f04:	8b 45 08             	mov    0x8(%ebp),%eax
  111f07:	c7 40 28 00 00 00 00 	movl   $0x0,0x28(%eax)
  111f0e:	8b 45 f4             	mov    -0xc(%ebp),%eax
  111f11:	3b 45 08             	cmp    0x8(%ebp),%eax
  111f14:	74 56                	je     111f6c <process_sched_advance+0xc5>
  111f16:	8b 45 f4             	mov    -0xc(%ebp),%eax
  111f19:	8b 50 18             	mov    0x18(%eax),%edx
  111f1c:	8b 45 f4             	mov    -0xc(%ebp),%eax
  111f1f:	8b 40 40             	mov    0x40(%eax),%eax
  111f22:	39 c2                	cmp    %eax,%edx
  111f24:	73 25                	jae    111f4b <process_sched_advance+0xa4>
  111f26:	8b 45 f4             	mov    -0xc(%ebp),%eax
  111f29:	8b 40 40             	mov    0x40(%eax),%eax
  111f2c:	89 c2                	mov    %eax,%edx
  111f2e:	8b 45 f4             	mov    -0xc(%ebp),%eax
  111f31:	8b 40 18             	mov    0x18(%eax),%eax
  111f34:	29 c2                	sub    %eax,%edx
  111f36:	8b 45 f4             	mov    -0xc(%ebp),%eax
  111f39:	83 c0 4c             	add    $0x4c,%eax
  111f3c:	83 ec 04             	sub    $0x4,%esp
  111f3f:	52                   	push   %edx
  111f40:	50                   	push   %eax
  111f41:	68 10 74 11 00       	push   $0x117410
  111f46:	e8 f8 d1 ff ff       	call   10f143 <panic>
  111f4b:	8b 45 08             	mov    0x8(%ebp),%eax
  111f4e:	a3 c0 11 13 00       	mov    %eax,0x1311c0
  111f53:	8b 45 08             	mov    0x8(%ebp),%eax
  111f56:	8d 50 14             	lea    0x14(%eax),%edx
  111f59:	8b 45 f4             	mov    -0xc(%ebp),%eax
  111f5c:	83 c0 14             	add    $0x14,%eax
  111f5f:	83 ec 08             	sub    $0x8,%esp
  111f62:	52                   	push   %edx
  111f63:	50                   	push   %eax
  111f64:	e8 0d ec ff ff       	call   110b76 <process_context_switch>
  111f69:	83 c4 10             	add    $0x10,%esp
  111f6c:	90                   	nop
  111f6d:	89 ec                	mov    %ebp,%esp
  111f6f:	5d                   	pop    %ebp
  111f70:	c3                   	ret    

00111f71 <process_sched_set_priority>:
  111f71:	55                   	push   %ebp
  111f72:	89 e5                	mov    %esp,%ebp
  111f74:	83 ec 18             	sub    $0x18,%esp
  111f77:	8b 45 08             	mov    0x8(%ebp),%eax
  111f7a:	8b 40 28             	mov    0x28(%eax),%eax
  111f7d:	85 c0                	test   %eax,%eax
  111f7f:	74 18                	je     111f99 <process_sched_set_priority+0x28>
  111f81:	8b 45 08             	mov    0x8(%ebp),%eax
  111f84:	8b 40 28             	mov    0x28(%eax),%eax
  111f87:	83 f8 01             	cmp    $0x1,%eax
  111f8a:	74 0d                	je     111f99 <process_sched_set_priority+0x28>
  111f8c:	83 ec 0c             	sub    $0xc,%esp
  111f8f:	68 60 74 11 00       	push   $0x117460
  111f94:	e8 aa d1 ff ff       	call   10f143 <panic>
  111f99:	83 ec 0c             	sub    $0xc,%esp
  111f9c:	ff 75 08             	push   0x8(%ebp)
  111f9f:	e8 10 fe ff ff       	call   111db4 <process_sched_ring_remove>
  111fa4:	83 c4 10             	add    $0x10,%esp
  111fa7:	89 45 f4             	mov    %eax,-0xc(%ebp)
  111faa:	8b 45 08             	mov    0x8(%ebp),%eax
  111fad:	8b 80 cc 00 00 00    	mov    0xcc(%eax),%eax
  111fb3:	89 45 f0             	mov    %eax,-0x10(%ebp)
  111fb6:	8b 45 08             	mov    0x8(%ebp),%eax
  111fb9:	8b 55 0c             	mov    0xc(%ebp),%edx
  111fbc:	89 90 cc 00 00 00    	mov    %edx,0xcc(%eax)
  111fc2:	83 ec 0c             	sub    $0xc,%esp
  111fc5:	ff 75 08             	push   0x8(%ebp)
  111fc8:	e8 4d fd ff ff       	call   111d1a <process_sched_ring_insert>
  111fcd:	83 c4 10             	add    $0x10,%esp
  111fd0:	8b 45 0c             	mov    0xc(%ebp),%eax
  111fd3:	3b 45 f0             	cmp    -0x10(%ebp),%eax
  111fd6:	7d 2b                	jge    112003 <process_sched_set_priority+0x92>
  111fd8:	a1 c0 11 13 00       	mov    0x1311c0,%eax
  111fdd:	39 45 08             	cmp    %eax,0x8(%ebp)
  111fe0:	75 6b                	jne    11204d <process_sched_set_priority+0xdc>
  111fe2:	83 7d f4 00          	cmpl   $0x0,-0xc(%ebp)
  111fe6:	75 3b                	jne    112023 <process_sched_set_priority+0xb2>
  111fe8:	83 ec 0c             	sub    $0xc,%esp
  111feb:	ff 75 f0             	push   -0x10(%ebp)
  111fee:	e8 79 fe ff ff       	call   111e6c <process_sched_ring_find>
  111ff3:	83 c4 10             	add    $0x10,%esp
  111ff6:	89 45 f4             	mov    %eax,-0xc(%ebp)
  111ff9:	8b 45 f4             	mov    -0xc(%ebp),%eax
  111ffc:	3b 45 08             	cmp    0x8(%ebp),%eax
  111fff:	75 22                	jne    112023 <process_sched_set_priority+0xb2>
  112001:	eb 51                	jmp    112054 <process_sched_set_priority+0xe3>
  112003:	a1 c0 11 13 00       	mov    0x1311c0,%eax
  112008:	39 45 08             	cmp    %eax,0x8(%ebp)
  11200b:	74 43                	je     112050 <process_sched_set_priority+0xdf>
  11200d:	a1 c0 11 13 00       	mov    0x1311c0,%eax
  112012:	8b 80 cc 00 00 00    	mov    0xcc(%eax),%eax
  112018:	39 45 0c             	cmp    %eax,0xc(%ebp)
  11201b:	7e 36                	jle    112053 <process_sched_set_priority+0xe2>
  11201d:	8b 45 08             	mov    0x8(%ebp),%eax
  112020:	89 45 f4             	mov    %eax,-0xc(%ebp)
  112023:	83 7d f4 00          	cmpl   $0x0,-0xc(%ebp)
  112027:	74 2b                	je     112054 <process_sched_set_priority+0xe3>
  112029:	8b 45 f4             	mov    -0xc(%ebp),%eax
  11202c:	3b 45 08             	cmp    0x8(%ebp),%eax
  11202f:	74 23                	je     112054 <process_sched_set_priority+0xe3>
  112031:	a1 c0 11 13 00       	mov    0x1311c0,%eax
  112036:	c7 40 28 01 00 00 00 	movl   $0x1,0x28(%eax)
  11203d:	83 ec 0c             	sub    $0xc,%esp
  112040:	ff 75 f4             	push   -0xc(%ebp)
  112043:	e8 5f fe ff ff       	call   111ea7 <process_sched_advance>
  112048:	83 c4 10             	add    $0x10,%esp
  11204b:	eb 07                	jmp    112054 <process_sched_set_priority+0xe3>
  11204d:	90                   	nop
  11204e:	eb 04                	jmp    112054 <process_sched_set_priority+0xe3>
  112050:	90                   	nop
  112051:	eb 01                	jmp    112054 <process_sched_set_priority+0xe3>
  112053:	90                   	nop
  112054:	89 ec                	mov    %ebp,%esp
  112056:	5d                   	pop    %ebp
  112057:	c3                   	ret    

00112058 <process_sched_pit_handler>:
  112058:	55                   	push   %ebp
  112059:	89 e5                	mov    %esp,%ebp
  11205b:	83 ec 08             	sub    $0x8,%esp
  11205e:	a1 c0 11 13 00       	mov    0x1311c0,%eax
  112063:	c7 40 28 01 00 00 00 	movl   $0x1,0x28(%eax)
  11206a:	83 ec 0c             	sub    $0xc,%esp
  11206d:	6a 00                	push   $0x0
  11206f:	e8 33 fe ff ff       	call   111ea7 <process_sched_advance>
  112074:	83 c4 10             	add    $0x10,%esp
  112077:	90                   	nop
  112078:	89 ec                	mov    %ebp,%esp
  11207a:	5d                   	pop    %ebp
  11207b:	c3                   	ret    

0011207c <process_time_queue_add>:
  11207c:	55                   	push   %ebp
  11207d:	89 e5                	mov    %esp,%ebp
  11207f:	83 ec 18             	sub    $0x18,%esp
  112082:	8b 45 08             	mov    0x8(%ebp),%eax
  112085:	8b 40 28             	mov    0x28(%eax),%eax
  112088:	83 f8 03             	cmp    $0x3,%eax
  11208b:	74 0d                	je     11209a <process_time_queue_add+0x1e>
  11208d:	83 ec 0c             	sub    $0xc,%esp
  112090:	68 a4 74 11 00       	push   $0x1174a4
  112095:	e8 a9 d0 ff ff       	call   10f143 <panic>
  11209a:	8b 45 08             	mov    0x8(%ebp),%eax
  11209d:	8b 40 30             	mov    0x30(%eax),%eax
  1120a0:	89 45 f4             	mov    %eax,-0xc(%ebp)
  1120a3:	c7 45 f0 c4 11 13 00 	movl   $0x1311c4,-0x10(%ebp)
  1120aa:	eb 0d                	jmp    1120b9 <process_time_queue_add+0x3d>
  1120ac:	8b 45 f0             	mov    -0x10(%ebp),%eax
  1120af:	8b 00                	mov    (%eax),%eax
  1120b1:	8b 40 30             	mov    0x30(%eax),%eax
  1120b4:	39 45 f4             	cmp    %eax,-0xc(%ebp)
  1120b7:	76 0b                	jbe    1120c4 <process_time_queue_add+0x48>
  1120b9:	8b 45 f0             	mov    -0x10(%ebp),%eax
  1120bc:	8b 00                	mov    (%eax),%eax
  1120be:	85 c0                	test   %eax,%eax
  1120c0:	75 ea                	jne    1120ac <process_time_queue_add+0x30>
  1120c2:	eb 01                	jmp    1120c5 <process_time_queue_add+0x49>
  1120c4:	90                   	nop
  1120c5:	8b 45 f0             	mov    -0x10(%ebp),%eax
  1120c8:	8b 10                	mov    (%eax),%edx
  1120ca:	8b 45 08             	mov    0x8(%ebp),%eax
  1120cd:	89 50 2c             	mov    %edx,0x2c(%eax)
  1120d0:	8b 45 f0             	mov    -0x10(%ebp),%eax
  1120d3:	8b 55 08             	mov    0x8(%ebp),%edx
  1120d6:	89 10                	mov    %edx,(%eax)
  1120d8:	90                   	nop
  1120d9:	89 ec                	mov    %ebp,%esp
  1120db:	5d                   	pop    %ebp
  1120dc:	c3                   	ret    

001120dd <process_time_queue_remove>:
  1120dd:	55                   	push   %ebp
  1120de:	89 e5                	mov    %esp,%ebp
  1120e0:	83 ec 18             	sub    $0x18,%esp
  1120e3:	8b 45 08             	mov    0x8(%ebp),%eax
  1120e6:	8b 40 28             	mov    0x28(%eax),%eax
  1120e9:	83 f8 03             	cmp    $0x3,%eax
  1120ec:	74 0d                	je     1120fb <process_time_queue_remove+0x1e>
  1120ee:	83 ec 0c             	sub    $0xc,%esp
  1120f1:	68 e4 74 11 00       	push   $0x1174e4
  1120f6:	e8 48 d0 ff ff       	call   10f143 <panic>
  1120fb:	c7 45 f4 c4 11 13 00 	movl   $0x1311c4,-0xc(%ebp)
  112102:	eb 17                	jmp    11211b <process_time_queue_remove+0x3e>
  112104:	8b 45 f4             	mov    -0xc(%ebp),%eax
  112107:	8b 00                	mov    (%eax),%eax
  112109:	39 45 08             	cmp    %eax,0x8(%ebp)
  11210c:	75 0d                	jne    11211b <process_time_queue_remove+0x3e>
  11210e:	8b 45 08             	mov    0x8(%ebp),%eax
  112111:	8b 50 2c             	mov    0x2c(%eax),%edx
  112114:	8b 45 f4             	mov    -0xc(%ebp),%eax
  112117:	89 10                	mov    %edx,(%eax)
  112119:	eb 0a                	jmp    112125 <process_time_queue_remove+0x48>
  11211b:	8b 45 f4             	mov    -0xc(%ebp),%eax
  11211e:	8b 00                	mov    (%eax),%eax
  112120:	85 c0                	test   %eax,%eax
  112122:	75 e0                	jne    112104 <process_time_queue_remove+0x27>
  112124:	90                   	nop
  112125:	90                   	nop
  112126:	89 ec                	mov    %ebp,%esp
  112128:	5d                   	pop    %ebp
  112129:	c3                   	ret    

0011212a <process_time_pit_handler>:
  11212a:	55                   	push   %ebp
  11212b:	89 e5                	mov    %esp,%ebp
  11212d:	83 ec 18             	sub    $0x18,%esp
  112130:	c7 45 f4 00 00 00 00 	movl   $0x0,-0xc(%ebp)
  112137:	a1 c4 11 13 00       	mov    0x1311c4,%eax
  11213c:	89 45 f0             	mov    %eax,-0x10(%ebp)
  11213f:	eb 49                	jmp    11218a <process_time_pit_handler+0x60>
  112141:	83 7d f4 00          	cmpl   $0x0,-0xc(%ebp)
  112145:	74 16                	je     11215d <process_time_pit_handler+0x33>
  112147:	8b 45 f4             	mov    -0xc(%ebp),%eax
  11214a:	8b 90 cc 00 00 00    	mov    0xcc(%eax),%edx
  112150:	8b 45 f0             	mov    -0x10(%ebp),%eax
  112153:	8b 80 cc 00 00 00    	mov    0xcc(%eax),%eax
  112159:	39 c2                	cmp    %eax,%edx
  11215b:	7d 06                	jge    112163 <process_time_pit_handler+0x39>
  11215d:	8b 45 f0             	mov    -0x10(%ebp),%eax
  112160:	89 45 f4             	mov    %eax,-0xc(%ebp)
  112163:	8b 45 f0             	mov    -0x10(%ebp),%eax
  112166:	8b 40 2c             	mov    0x2c(%eax),%eax
  112169:	89 45 ec             	mov    %eax,-0x14(%ebp)
  11216c:	8b 45 f0             	mov    -0x10(%ebp),%eax
  11216f:	c7 40 28 01 00 00 00 	movl   $0x1,0x28(%eax)
  112176:	83 ec 0c             	sub    $0xc,%esp
  112179:	ff 75 f0             	push   -0x10(%ebp)
  11217c:	e8 99 fb ff ff       	call   111d1a <process_sched_ring_insert>
  112181:	83 c4 10             	add    $0x10,%esp
  112184:	8b 45 ec             	mov    -0x14(%ebp),%eax
  112187:	89 45 f0             	mov    %eax,-0x10(%ebp)
  11218a:	83 7d f0 00          	cmpl   $0x0,-0x10(%ebp)
  11218e:	74 0b                	je     11219b <process_time_pit_handler+0x71>
  112190:	8b 45 f0             	mov    -0x10(%ebp),%eax
  112193:	8b 40 30             	mov    0x30(%eax),%eax
  112196:	39 45 08             	cmp    %eax,0x8(%ebp)
  112199:	73 a6                	jae    112141 <process_time_pit_handler+0x17>
  11219b:	8b 45 f0             	mov    -0x10(%ebp),%eax
  11219e:	a3 c4 11 13 00       	mov    %eax,0x1311c4
  1121a3:	83 7d f4 00          	cmpl   $0x0,-0xc(%ebp)
  1121a7:	74 32                	je     1121db <process_time_pit_handler+0xb1>
  1121a9:	8b 45 f4             	mov    -0xc(%ebp),%eax
  1121ac:	8b 90 cc 00 00 00    	mov    0xcc(%eax),%edx
  1121b2:	a1 c0 11 13 00       	mov    0x1311c0,%eax
  1121b7:	8b 80 cc 00 00 00    	mov    0xcc(%eax),%eax
  1121bd:	39 c2                	cmp    %eax,%edx
  1121bf:	7e 1a                	jle    1121db <process_time_pit_handler+0xb1>
  1121c1:	a1 c0 11 13 00       	mov    0x1311c0,%eax
  1121c6:	c7 40 28 01 00 00 00 	movl   $0x1,0x28(%eax)
  1121cd:	83 ec 0c             	sub    $0xc,%esp
  1121d0:	ff 75 f4             	push   -0xc(%ebp)
  1121d3:	e8 cf fc ff ff       	call   111ea7 <process_sched_advance>
  1121d8:	83 c4 10             	add    $0x10,%esp
  1121db:	90                   	nop
  1121dc:	89 ec                	mov    %ebp,%esp
  1121de:	5d                   	pop    %ebp
  1121df:	c3                   	ret    

001121e0 <kalloc>:
  1121e0:	55                   	push   %ebp
  1121e1:	89 e5                	mov    %esp,%ebp
  1121e3:	83 ec 08             	sub    $0x8,%esp
  1121e6:	83 7d 08 00          	cmpl   $0x0,0x8(%ebp)
  1121ea:	75 07                	jne    1121f3 <kalloc+0x13>
  1121ec:	b8 00 00 00 00       	mov    $0x0,%eax
  1121f1:	eb 3d                	jmp    112230 <kalloc+0x50>
  1121f3:	81 7d 08 ff ff 01 00 	cmpl   $0x1ffff,0x8(%ebp)
  1121fa:	76 10                	jbe    11220c <kalloc+0x2c>
  1121fc:	83 ec 0c             	sub    $0xc,%esp
  1121ff:	ff 75 08             	push   0x8(%ebp)
  112202:	e8 6e 02 00 00       	call   112475 <kalloc_large>
  112207:	83 c4 10             	add    $0x10,%esp
  11220a:	eb 24                	jmp    112230 <kalloc+0x50>
  11220c:	83 7d 08 40          	cmpl   $0x40,0x8(%ebp)
  112210:	77 10                	ja     112222 <kalloc+0x42>
  112212:	83 ec 0c             	sub    $0xc,%esp
  112215:	ff 75 08             	push   0x8(%ebp)
  112218:	e8 3e 05 00 00       	call   11275b <kalloc_small>
  11221d:	83 c4 10             	add    $0x10,%esp
  112220:	eb 0e                	jmp    112230 <kalloc+0x50>
  112222:	83 ec 0c             	sub    $0xc,%esp
  112225:	ff 75 08             	push   0x8(%ebp)
  112228:	e8 ca 03 00 00       	call   1125f7 <kalloc_medium>
  11222d:	83 c4 10             	add    $0x10,%esp
  112230:	89 ec                	mov    %ebp,%esp
  112232:	5d                   	pop    %ebp
  112233:	c3                   	ret    

00112234 <kfree>:
  112234:	55                   	push   %ebp
  112235:	89 e5                	mov    %esp,%ebp
  112237:	83 ec 18             	sub    $0x18,%esp
  11223a:	83 ec 08             	sub    $0x8,%esp
  11223d:	8d 45 ec             	lea    -0x14(%ebp),%eax
  112240:	50                   	push   %eax
  112241:	ff 75 08             	push   0x8(%ebp)
  112244:	e8 dc 00 00 00       	call   112325 <mem_mark_check>
  112249:	83 c4 10             	add    $0x10,%esp
  11224c:	83 f0 01             	xor    $0x1,%eax
  11224f:	84 c0                	test   %al,%al
  112251:	75 5a                	jne    1122ad <kfree+0x79>
  112253:	8b 45 f0             	mov    -0x10(%ebp),%eax
  112256:	83 f8 02             	cmp    $0x2,%eax
  112259:	74 3c                	je     112297 <kfree+0x63>
  11225b:	83 f8 02             	cmp    $0x2,%eax
  11225e:	77 4e                	ja     1122ae <kfree+0x7a>
  112260:	85 c0                	test   %eax,%eax
  112262:	74 07                	je     11226b <kfree+0x37>
  112264:	83 f8 01             	cmp    $0x1,%eax
  112267:	74 18                	je     112281 <kfree+0x4d>
  112269:	eb 43                	jmp    1122ae <kfree+0x7a>
  11226b:	83 ec 04             	sub    $0x4,%esp
  11226e:	ff 75 f4             	push   -0xc(%ebp)
  112271:	ff 75 f0             	push   -0x10(%ebp)
  112274:	ff 75 ec             	push   -0x14(%ebp)
  112277:	e8 6e 05 00 00       	call   1127ea <kfree_small>
  11227c:	83 c4 10             	add    $0x10,%esp
  11227f:	eb 2d                	jmp    1122ae <kfree+0x7a>
  112281:	83 ec 04             	sub    $0x4,%esp
  112284:	ff 75 f4             	push   -0xc(%ebp)
  112287:	ff 75 f0             	push   -0x10(%ebp)
  11228a:	ff 75 ec             	push   -0x14(%ebp)
  11228d:	e8 8c 04 00 00       	call   11271e <kfree_medium>
  112292:	83 c4 10             	add    $0x10,%esp
  112295:	eb 17                	jmp    1122ae <kfree+0x7a>
  112297:	83 ec 04             	sub    $0x4,%esp
  11229a:	ff 75 f4             	push   -0xc(%ebp)
  11229d:	ff 75 f0             	push   -0x10(%ebp)
  1122a0:	ff 75 ec             	push   -0x14(%ebp)
  1122a3:	e8 11 02 00 00       	call   1124b9 <kfree_large>
  1122a8:	83 c4 10             	add    $0x10,%esp
  1122ab:	eb 01                	jmp    1122ae <kfree+0x7a>
  1122ad:	90                   	nop
  1122ae:	89 ec                	mov    %ebp,%esp
  1122b0:	5d                   	pop    %ebp
  1122b1:	c3                   	ret    

001122b2 <hash_ptr>:
  1122b2:	55                   	push   %ebp
  1122b3:	89 e5                	mov    %esp,%ebp
  1122b5:	8b 55 08             	mov    0x8(%ebp),%edx
  1122b8:	89 d0                	mov    %edx,%eax
  1122ba:	c1 e0 04             	shl    $0x4,%eax
  1122bd:	01 d0                	add    %edx,%eax
  1122bf:	f7 d8                	neg    %eax
  1122c1:	5d                   	pop    %ebp
  1122c2:	c3                   	ret    

001122c3 <mem_mark_and_get_user_ptr>:
  1122c3:	55                   	push   %ebp
  1122c4:	89 e5                	mov    %esp,%ebp
  1122c6:	83 ec 10             	sub    $0x10,%esp
  1122c9:	ff 75 08             	push   0x8(%ebp)
  1122cc:	e8 e1 ff ff ff       	call   1122b2 <hash_ptr>
  1122d1:	83 c4 04             	add    $0x4,%esp
  1122d4:	89 45 fc             	mov    %eax,-0x4(%ebp)
  1122d7:	83 65 fc fc          	andl   $0xfffffffc,-0x4(%ebp)
  1122db:	8b 45 10             	mov    0x10(%ebp),%eax
  1122de:	09 45 fc             	or     %eax,-0x4(%ebp)
  1122e1:	8b 45 08             	mov    0x8(%ebp),%eax
  1122e4:	89 45 f8             	mov    %eax,-0x8(%ebp)
  1122e7:	8b 45 f8             	mov    -0x8(%ebp),%eax
  1122ea:	8b 55 0c             	mov    0xc(%ebp),%edx
  1122ed:	89 10                	mov    %edx,(%eax)
  1122ef:	8b 45 f8             	mov    -0x8(%ebp),%eax
  1122f2:	8d 50 04             	lea    0x4(%eax),%edx
  1122f5:	8b 45 fc             	mov    -0x4(%ebp),%eax
  1122f8:	89 02                	mov    %eax,(%edx)
  1122fa:	8b 55 08             	mov    0x8(%ebp),%edx
  1122fd:	8b 45 0c             	mov    0xc(%ebp),%eax
  112300:	01 d0                	add    %edx,%eax
  112302:	83 e8 08             	sub    $0x8,%eax
  112305:	89 45 f4             	mov    %eax,-0xc(%ebp)
  112308:	8b 45 f4             	mov    -0xc(%ebp),%eax
  11230b:	8b 55 fc             	mov    -0x4(%ebp),%edx
  11230e:	89 10                	mov    %edx,(%eax)
  112310:	8b 45 f4             	mov    -0xc(%ebp),%eax
  112313:	8d 50 04             	lea    0x4(%eax),%edx
  112316:	8b 45 0c             	mov    0xc(%ebp),%eax
  112319:	89 02                	mov    %eax,(%edx)
  11231b:	8b 45 08             	mov    0x8(%ebp),%eax
  11231e:	83 c0 08             	add    $0x8,%eax
  112321:	89 ec                	mov    %ebp,%esp
  112323:	5d                   	pop    %ebp
  112324:	c3                   	ret    

00112325 <mem_mark_check>:
  112325:	55                   	push   %ebp
  112326:	89 e5                	mov    %esp,%ebp
  112328:	83 ec 10             	sub    $0x10,%esp
  11232b:	8b 45 08             	mov    0x8(%ebp),%eax
  11232e:	83 e8 08             	sub    $0x8,%eax
  112331:	89 45 fc             	mov    %eax,-0x4(%ebp)
  112334:	8b 45 fc             	mov    -0x4(%ebp),%eax
  112337:	8b 00                	mov    (%eax),%eax
  112339:	89 45 f8             	mov    %eax,-0x8(%ebp)
  11233c:	8b 45 fc             	mov    -0x4(%ebp),%eax
  11233f:	8b 40 04             	mov    0x4(%eax),%eax
  112342:	89 45 f4             	mov    %eax,-0xc(%ebp)
  112345:	8b 55 fc             	mov    -0x4(%ebp),%edx
  112348:	8b 45 f8             	mov    -0x8(%ebp),%eax
  11234b:	01 d0                	add    %edx,%eax
  11234d:	83 e8 08             	sub    $0x8,%eax
  112350:	89 45 f0             	mov    %eax,-0x10(%ebp)
  112353:	8b 45 f0             	mov    -0x10(%ebp),%eax
  112356:	8b 00                	mov    (%eax),%eax
  112358:	39 45 f4             	cmp    %eax,-0xc(%ebp)
  11235b:	75 0d                	jne    11236a <mem_mark_check+0x45>
  11235d:	8b 45 f0             	mov    -0x10(%ebp),%eax
  112360:	83 c0 04             	add    $0x4,%eax
  112363:	8b 00                	mov    (%eax),%eax
  112365:	39 45 f8             	cmp    %eax,-0x8(%ebp)
  112368:	74 04                	je     11236e <mem_mark_check+0x49>
  11236a:	b0 00                	mov    $0x0,%al
  11236c:	eb 21                	jmp    11238f <mem_mark_check+0x6a>
  11236e:	8b 45 0c             	mov    0xc(%ebp),%eax
  112371:	8b 55 fc             	mov    -0x4(%ebp),%edx
  112374:	89 10                	mov    %edx,(%eax)
  112376:	8b 45 f4             	mov    -0xc(%ebp),%eax
  112379:	83 e0 03             	and    $0x3,%eax
  11237c:	89 c2                	mov    %eax,%edx
  11237e:	8b 45 0c             	mov    0xc(%ebp),%eax
  112381:	89 50 04             	mov    %edx,0x4(%eax)
  112384:	8b 45 0c             	mov    0xc(%ebp),%eax
  112387:	8b 55 f8             	mov    -0x8(%ebp),%edx
  11238a:	89 50 08             	mov    %edx,0x8(%eax)
  11238d:	b0 01                	mov    $0x1,%al
  11238f:	89 ec                	mov    %ebp,%esp
  112391:	5d                   	pop    %ebp
  112392:	c3                   	ret    

00112393 <mem_realloc_small>:
  112393:	55                   	push   %ebp
  112394:	89 e5                	mov    %esp,%ebp
  112396:	83 ec 18             	sub    $0x18,%esp
  112399:	a1 a4 12 13 00       	mov    0x1312a4,%eax
  11239e:	ba 00 28 00 00       	mov    $0x2800,%edx
  1123a3:	88 c1                	mov    %al,%cl
  1123a5:	d3 e2                	shl    %cl,%edx
  1123a7:	89 d0                	mov    %edx,%eax
  1123a9:	89 45 f4             	mov    %eax,-0xc(%ebp)
  1123ac:	83 ec 0c             	sub    $0xc,%esp
  1123af:	ff 75 f4             	push   -0xc(%ebp)
  1123b2:	e8 bd 05 00 00       	call   112974 <page_alloc>
  1123b7:	83 c4 10             	add    $0x10,%esp
  1123ba:	a3 e0 11 13 00       	mov    %eax,0x1311e0
  1123bf:	a1 e0 11 13 00       	mov    0x1311e0,%eax
  1123c4:	85 c0                	test   %eax,%eax
  1123c6:	75 07                	jne    1123cf <mem_realloc_small+0x3c>
  1123c8:	b8 00 00 00 00       	mov    $0x0,%eax
  1123cd:	eb 0e                	jmp    1123dd <mem_realloc_small+0x4a>
  1123cf:	a1 a4 12 13 00       	mov    0x1312a4,%eax
  1123d4:	40                   	inc    %eax
  1123d5:	a3 a4 12 13 00       	mov    %eax,0x1312a4
  1123da:	8b 45 f4             	mov    -0xc(%ebp),%eax
  1123dd:	89 ec                	mov    %ebp,%esp
  1123df:	5d                   	pop    %ebp
  1123e0:	c3                   	ret    

001123e1 <mem_realloc_medium>:
  1123e1:	55                   	push   %ebp
  1123e2:	89 e5                	mov    %esp,%ebp
  1123e4:	83 ec 18             	sub    $0x18,%esp
  1123e7:	a1 a8 12 13 00       	mov    0x1312a8,%eax
  1123ec:	83 c0 11             	add    $0x11,%eax
  1123ef:	89 45 f4             	mov    %eax,-0xc(%ebp)
  1123f2:	a1 a8 12 13 00       	mov    0x1312a8,%eax
  1123f7:	ba 00 00 02 00       	mov    $0x20000,%edx
  1123fc:	88 c1                	mov    %al,%cl
  1123fe:	d3 e2                	shl    %cl,%edx
  112400:	89 d0                	mov    %edx,%eax
  112402:	89 45 f0             	mov    %eax,-0x10(%ebp)
  112405:	8b 45 f0             	mov    -0x10(%ebp),%eax
  112408:	01 c0                	add    %eax,%eax
  11240a:	83 ec 0c             	sub    $0xc,%esp
  11240d:	50                   	push   %eax
  11240e:	e8 61 05 00 00       	call   112974 <page_alloc>
  112413:	83 c4 10             	add    $0x10,%esp
  112416:	8b 55 f4             	mov    -0xc(%ebp),%edx
  112419:	89 04 95 e4 11 13 00 	mov    %eax,0x1311e4(,%edx,4)
  112420:	8b 45 f4             	mov    -0xc(%ebp),%eax
  112423:	8b 04 85 e4 11 13 00 	mov    0x1311e4(,%eax,4),%eax
  11242a:	85 c0                	test   %eax,%eax
  11242c:	75 07                	jne    112435 <mem_realloc_medium+0x54>
  11242e:	b8 00 00 00 00       	mov    $0x0,%eax
  112433:	eb 3c                	jmp    112471 <mem_realloc_medium+0x90>
  112435:	8b 45 f4             	mov    -0xc(%ebp),%eax
  112438:	8b 0c 85 e4 11 13 00 	mov    0x1311e4(,%eax,4),%ecx
  11243f:	8b 45 f4             	mov    -0xc(%ebp),%eax
  112442:	8b 04 85 e4 11 13 00 	mov    0x1311e4(,%eax,4),%eax
  112449:	ba 00 00 00 00       	mov    $0x0,%edx
  11244e:	f7 75 f0             	divl   -0x10(%ebp)
  112451:	8b 45 f0             	mov    -0x10(%ebp),%eax
  112454:	29 d0                	sub    %edx,%eax
  112456:	8d 14 01             	lea    (%ecx,%eax,1),%edx
  112459:	8b 45 f4             	mov    -0xc(%ebp),%eax
  11245c:	89 14 85 e4 11 13 00 	mov    %edx,0x1311e4(,%eax,4)
  112463:	a1 a8 12 13 00       	mov    0x1312a8,%eax
  112468:	40                   	inc    %eax
  112469:	a3 a8 12 13 00       	mov    %eax,0x1312a8
  11246e:	8b 45 f0             	mov    -0x10(%ebp),%eax
  112471:	89 ec                	mov    %ebp,%esp
  112473:	5d                   	pop    %ebp
  112474:	c3                   	ret    

00112475 <kalloc_large>:
  112475:	55                   	push   %ebp
  112476:	89 e5                	mov    %esp,%ebp
  112478:	83 ec 18             	sub    $0x18,%esp
  11247b:	8b 45 08             	mov    0x8(%ebp),%eax
  11247e:	83 c0 10             	add    $0x10,%eax
  112481:	89 45 f4             	mov    %eax,-0xc(%ebp)
  112484:	83 ec 0c             	sub    $0xc,%esp
  112487:	ff 75 f4             	push   -0xc(%ebp)
  11248a:	e8 e5 04 00 00       	call   112974 <page_alloc>
  11248f:	83 c4 10             	add    $0x10,%esp
  112492:	89 45 f0             	mov    %eax,-0x10(%ebp)
  112495:	83 7d f0 00          	cmpl   $0x0,-0x10(%ebp)
  112499:	75 07                	jne    1124a2 <kalloc_large+0x2d>
  11249b:	b8 00 00 00 00       	mov    $0x0,%eax
  1124a0:	eb 13                	jmp    1124b5 <kalloc_large+0x40>
  1124a2:	83 ec 04             	sub    $0x4,%esp
  1124a5:	6a 02                	push   $0x2
  1124a7:	ff 75 f4             	push   -0xc(%ebp)
  1124aa:	ff 75 f0             	push   -0x10(%ebp)
  1124ad:	e8 11 fe ff ff       	call   1122c3 <mem_mark_and_get_user_ptr>
  1124b2:	83 c4 10             	add    $0x10,%esp
  1124b5:	89 ec                	mov    %ebp,%esp
  1124b7:	5d                   	pop    %ebp
  1124b8:	c3                   	ret    

001124b9 <kfree_large>:
  1124b9:	55                   	push   %ebp
  1124ba:	89 e5                	mov    %esp,%ebp
  1124bc:	83 ec 08             	sub    $0x8,%esp
  1124bf:	8b 55 10             	mov    0x10(%ebp),%edx
  1124c2:	8b 45 08             	mov    0x8(%ebp),%eax
  1124c5:	83 ec 08             	sub    $0x8,%esp
  1124c8:	52                   	push   %edx
  1124c9:	50                   	push   %eax
  1124ca:	e8 b9 05 00 00       	call   112a88 <page_free>
  1124cf:	83 c4 10             	add    $0x10,%esp
  1124d2:	90                   	nop
  1124d3:	89 ec                	mov    %ebp,%esp
  1124d5:	5d                   	pop    %ebp
  1124d6:	c3                   	ret    

001124d7 <power2>:
  1124d7:	55                   	push   %ebp
  1124d8:	89 e5                	mov    %esp,%ebp
  1124da:	83 ec 10             	sub    $0x10,%esp
  1124dd:	c7 45 fc 00 00 00 00 	movl   $0x0,-0x4(%ebp)
  1124e4:	ff 4d 08             	decl   0x8(%ebp)
  1124e7:	eb 06                	jmp    1124ef <power2+0x18>
  1124e9:	ff 45 fc             	incl   -0x4(%ebp)
  1124ec:	d1 6d 08             	shrl   0x8(%ebp)
  1124ef:	83 7d 08 00          	cmpl   $0x0,0x8(%ebp)
  1124f3:	75 f4                	jne    1124e9 <power2+0x12>
  1124f5:	8b 45 fc             	mov    -0x4(%ebp),%eax
  1124f8:	ba 01 00 00 00       	mov    $0x1,%edx
  1124fd:	88 c1                	mov    %al,%cl
  1124ff:	d3 e2                	shl    %cl,%edx
  112501:	89 d0                	mov    %edx,%eax
  112503:	39 45 08             	cmp    %eax,0x8(%ebp)
  112506:	76 03                	jbe    11250b <power2+0x34>
  112508:	ff 45 fc             	incl   -0x4(%ebp)
  11250b:	8b 45 fc             	mov    -0x4(%ebp),%eax
  11250e:	89 ec                	mov    %ebp,%esp
  112510:	5d                   	pop    %ebp
  112511:	c3                   	ret    

00112512 <alloc_tzl_chunk>:
  112512:	55                   	push   %ebp
  112513:	89 e5                	mov    %esp,%ebp
  112515:	83 ec 28             	sub    $0x28,%esp
  112518:	8b 45 08             	mov    0x8(%ebp),%eax
  11251b:	8b 04 85 e4 11 13 00 	mov    0x1311e4(,%eax,4),%eax
  112522:	85 c0                	test   %eax,%eax
  112524:	74 07                	je     11252d <alloc_tzl_chunk+0x1b>
  112526:	b0 01                	mov    $0x1,%al
  112528:	e9 c6 00 00 00       	jmp    1125f3 <alloc_tzl_chunk+0xe1>
  11252d:	a1 a8 12 13 00       	mov    0x1312a8,%eax
  112532:	83 c0 11             	add    $0x11,%eax
  112535:	39 45 08             	cmp    %eax,0x8(%ebp)
  112538:	72 30                	jb     11256a <alloc_tzl_chunk+0x58>
  11253a:	8b 45 08             	mov    0x8(%ebp),%eax
  11253d:	83 e8 11             	sub    $0x11,%eax
  112540:	a3 a8 12 13 00       	mov    %eax,0x1312a8
  112545:	e8 97 fe ff ff       	call   1123e1 <mem_realloc_medium>
  11254a:	85 c0                	test   %eax,%eax
  11254c:	75 07                	jne    112555 <alloc_tzl_chunk+0x43>
  11254e:	b0 00                	mov    $0x0,%al
  112550:	e9 9e 00 00 00       	jmp    1125f3 <alloc_tzl_chunk+0xe1>
  112555:	8b 45 08             	mov    0x8(%ebp),%eax
  112558:	8b 04 85 e4 11 13 00 	mov    0x1311e4(,%eax,4),%eax
  11255f:	c7 00 00 00 00 00    	movl   $0x0,(%eax)
  112565:	e9 87 00 00 00       	jmp    1125f1 <alloc_tzl_chunk+0xdf>
  11256a:	8b 45 08             	mov    0x8(%ebp),%eax
  11256d:	ba 01 00 00 00       	mov    $0x1,%edx
  112572:	88 c1                	mov    %al,%cl
  112574:	d3 e2                	shl    %cl,%edx
  112576:	89 d0                	mov    %edx,%eax
  112578:	89 45 f4             	mov    %eax,-0xc(%ebp)
  11257b:	8b 45 08             	mov    0x8(%ebp),%eax
  11257e:	40                   	inc    %eax
  11257f:	83 ec 0c             	sub    $0xc,%esp
  112582:	50                   	push   %eax
  112583:	e8 8a ff ff ff       	call   112512 <alloc_tzl_chunk>
  112588:	83 c4 10             	add    $0x10,%esp
  11258b:	83 f0 01             	xor    $0x1,%eax
  11258e:	84 c0                	test   %al,%al
  112590:	74 04                	je     112596 <alloc_tzl_chunk+0x84>
  112592:	b0 00                	mov    $0x0,%al
  112594:	eb 5d                	jmp    1125f3 <alloc_tzl_chunk+0xe1>
  112596:	8b 45 08             	mov    0x8(%ebp),%eax
  112599:	40                   	inc    %eax
  11259a:	8b 04 85 e4 11 13 00 	mov    0x1311e4(,%eax,4),%eax
  1125a1:	89 45 f0             	mov    %eax,-0x10(%ebp)
  1125a4:	8b 55 f0             	mov    -0x10(%ebp),%edx
  1125a7:	8b 45 f4             	mov    -0xc(%ebp),%eax
  1125aa:	01 d0                	add    %edx,%eax
  1125ac:	89 45 ec             	mov    %eax,-0x14(%ebp)
  1125af:	8b 45 f0             	mov    -0x10(%ebp),%eax
  1125b2:	8b 00                	mov    (%eax),%eax
  1125b4:	89 45 e8             	mov    %eax,-0x18(%ebp)
  1125b7:	8b 45 08             	mov    0x8(%ebp),%eax
  1125ba:	8d 50 01             	lea    0x1(%eax),%edx
  1125bd:	8b 45 e8             	mov    -0x18(%ebp),%eax
  1125c0:	89 04 95 e4 11 13 00 	mov    %eax,0x1311e4(,%edx,4)
  1125c7:	8b 45 08             	mov    0x8(%ebp),%eax
  1125ca:	8b 04 85 e4 11 13 00 	mov    0x1311e4(,%eax,4),%eax
  1125d1:	89 45 e4             	mov    %eax,-0x1c(%ebp)
  1125d4:	8b 45 f0             	mov    -0x10(%ebp),%eax
  1125d7:	8b 55 ec             	mov    -0x14(%ebp),%edx
  1125da:	89 10                	mov    %edx,(%eax)
  1125dc:	8b 45 ec             	mov    -0x14(%ebp),%eax
  1125df:	8b 55 e4             	mov    -0x1c(%ebp),%edx
  1125e2:	89 10                	mov    %edx,(%eax)
  1125e4:	8b 45 08             	mov    0x8(%ebp),%eax
  1125e7:	8b 55 f0             	mov    -0x10(%ebp),%edx
  1125ea:	89 14 85 e4 11 13 00 	mov    %edx,0x1311e4(,%eax,4)
  1125f1:	b0 01                	mov    $0x1,%al
  1125f3:	89 ec                	mov    %ebp,%esp
  1125f5:	5d                   	pop    %ebp
  1125f6:	c3                   	ret    

001125f7 <kalloc_medium>:
  1125f7:	55                   	push   %ebp
  1125f8:	89 e5                	mov    %esp,%ebp
  1125fa:	83 ec 18             	sub    $0x18,%esp
  1125fd:	8b 45 08             	mov    0x8(%ebp),%eax
  112600:	83 c0 10             	add    $0x10,%eax
  112603:	89 45 f4             	mov    %eax,-0xc(%ebp)
  112606:	ff 75 f4             	push   -0xc(%ebp)
  112609:	e8 c9 fe ff ff       	call   1124d7 <power2>
  11260e:	83 c4 04             	add    $0x4,%esp
  112611:	89 45 f0             	mov    %eax,-0x10(%ebp)
  112614:	83 ec 0c             	sub    $0xc,%esp
  112617:	ff 75 f0             	push   -0x10(%ebp)
  11261a:	e8 f3 fe ff ff       	call   112512 <alloc_tzl_chunk>
  11261f:	83 c4 10             	add    $0x10,%esp
  112622:	83 f0 01             	xor    $0x1,%eax
  112625:	84 c0                	test   %al,%al
  112627:	74 07                	je     112630 <kalloc_medium+0x39>
  112629:	b8 00 00 00 00       	mov    $0x0,%eax
  11262e:	eb 35                	jmp    112665 <kalloc_medium+0x6e>
  112630:	8b 45 f0             	mov    -0x10(%ebp),%eax
  112633:	8b 04 85 e4 11 13 00 	mov    0x1311e4(,%eax,4),%eax
  11263a:	89 45 ec             	mov    %eax,-0x14(%ebp)
  11263d:	8b 45 ec             	mov    -0x14(%ebp),%eax
  112640:	8b 00                	mov    (%eax),%eax
  112642:	89 45 e8             	mov    %eax,-0x18(%ebp)
  112645:	8b 45 f0             	mov    -0x10(%ebp),%eax
  112648:	8b 55 e8             	mov    -0x18(%ebp),%edx
  11264b:	89 14 85 e4 11 13 00 	mov    %edx,0x1311e4(,%eax,4)
  112652:	83 ec 04             	sub    $0x4,%esp
  112655:	6a 01                	push   $0x1
  112657:	ff 75 f4             	push   -0xc(%ebp)
  11265a:	ff 75 ec             	push   -0x14(%ebp)
  11265d:	e8 61 fc ff ff       	call   1122c3 <mem_mark_and_get_user_ptr>
  112662:	83 c4 10             	add    $0x10,%esp
  112665:	89 ec                	mov    %ebp,%esp
  112667:	5d                   	pop    %ebp
  112668:	c3                   	ret    

00112669 <free_tzl_chunk>:
  112669:	55                   	push   %ebp
  11266a:	89 e5                	mov    %esp,%ebp
  11266c:	83 ec 18             	sub    $0x18,%esp
  11266f:	8b 45 08             	mov    0x8(%ebp),%eax
  112672:	33 45 0c             	xor    0xc(%ebp),%eax
  112675:	89 45 f0             	mov    %eax,-0x10(%ebp)
  112678:	8b 45 10             	mov    0x10(%ebp),%eax
  11267b:	c1 e0 02             	shl    $0x2,%eax
  11267e:	05 e0 11 13 00       	add    $0x1311e0,%eax
  112683:	83 c0 04             	add    $0x4,%eax
  112686:	89 45 f4             	mov    %eax,-0xc(%ebp)
  112689:	eb 64                	jmp    1126ef <free_tzl_chunk+0x86>
  11268b:	8b 45 f4             	mov    -0xc(%ebp),%eax
  11268e:	8b 00                	mov    (%eax),%eax
  112690:	39 45 f0             	cmp    %eax,-0x10(%ebp)
  112693:	75 52                	jne    1126e7 <free_tzl_chunk+0x7e>
  112695:	8b 45 f0             	mov    -0x10(%ebp),%eax
  112698:	8b 00                	mov    (%eax),%eax
  11269a:	89 45 e8             	mov    %eax,-0x18(%ebp)
  11269d:	8b 45 f4             	mov    -0xc(%ebp),%eax
  1126a0:	8b 55 e8             	mov    -0x18(%ebp),%edx
  1126a3:	89 10                	mov    %edx,(%eax)
  1126a5:	8b 45 f0             	mov    -0x10(%ebp),%eax
  1126a8:	3b 45 08             	cmp    0x8(%ebp),%eax
  1126ab:	73 1d                	jae    1126ca <free_tzl_chunk+0x61>
  1126ad:	8b 45 10             	mov    0x10(%ebp),%eax
  1126b0:	8d 50 01             	lea    0x1(%eax),%edx
  1126b3:	8b 45 0c             	mov    0xc(%ebp),%eax
  1126b6:	01 c0                	add    %eax,%eax
  1126b8:	83 ec 04             	sub    $0x4,%esp
  1126bb:	52                   	push   %edx
  1126bc:	50                   	push   %eax
  1126bd:	ff 75 f0             	push   -0x10(%ebp)
  1126c0:	e8 a4 ff ff ff       	call   112669 <free_tzl_chunk>
  1126c5:	83 c4 10             	add    $0x10,%esp
  1126c8:	eb 50                	jmp    11271a <free_tzl_chunk+0xb1>
  1126ca:	8b 45 10             	mov    0x10(%ebp),%eax
  1126cd:	8d 50 01             	lea    0x1(%eax),%edx
  1126d0:	8b 45 0c             	mov    0xc(%ebp),%eax
  1126d3:	01 c0                	add    %eax,%eax
  1126d5:	83 ec 04             	sub    $0x4,%esp
  1126d8:	52                   	push   %edx
  1126d9:	50                   	push   %eax
  1126da:	ff 75 08             	push   0x8(%ebp)
  1126dd:	e8 87 ff ff ff       	call   112669 <free_tzl_chunk>
  1126e2:	83 c4 10             	add    $0x10,%esp
  1126e5:	eb 33                	jmp    11271a <free_tzl_chunk+0xb1>
  1126e7:	8b 45 f4             	mov    -0xc(%ebp),%eax
  1126ea:	8b 00                	mov    (%eax),%eax
  1126ec:	89 45 f4             	mov    %eax,-0xc(%ebp)
  1126ef:	8b 45 f4             	mov    -0xc(%ebp),%eax
  1126f2:	8b 00                	mov    (%eax),%eax
  1126f4:	85 c0                	test   %eax,%eax
  1126f6:	75 93                	jne    11268b <free_tzl_chunk+0x22>
  1126f8:	8b 45 10             	mov    0x10(%ebp),%eax
  1126fb:	8b 04 85 e4 11 13 00 	mov    0x1311e4(,%eax,4),%eax
  112702:	89 45 ec             	mov    %eax,-0x14(%ebp)
  112705:	8b 45 08             	mov    0x8(%ebp),%eax
  112708:	8b 55 ec             	mov    -0x14(%ebp),%edx
  11270b:	89 10                	mov    %edx,(%eax)
  11270d:	8b 45 10             	mov    0x10(%ebp),%eax
  112710:	8b 55 08             	mov    0x8(%ebp),%edx
  112713:	89 14 85 e4 11 13 00 	mov    %edx,0x1311e4(,%eax,4)
  11271a:	89 ec                	mov    %ebp,%esp
  11271c:	5d                   	pop    %ebp
  11271d:	c3                   	ret    

0011271e <kfree_medium>:
  11271e:	55                   	push   %ebp
  11271f:	89 e5                	mov    %esp,%ebp
  112721:	83 ec 18             	sub    $0x18,%esp
  112724:	8b 45 10             	mov    0x10(%ebp),%eax
  112727:	50                   	push   %eax
  112728:	e8 aa fd ff ff       	call   1124d7 <power2>
  11272d:	83 c4 04             	add    $0x4,%esp
  112730:	89 45 f4             	mov    %eax,-0xc(%ebp)
  112733:	8b 45 f4             	mov    -0xc(%ebp),%eax
  112736:	ba 01 00 00 00       	mov    $0x1,%edx
  11273b:	88 c1                	mov    %al,%cl
  11273d:	d3 e2                	shl    %cl,%edx
  11273f:	89 d0                	mov    %edx,%eax
  112741:	89 c2                	mov    %eax,%edx
  112743:	8b 45 08             	mov    0x8(%ebp),%eax
  112746:	83 ec 04             	sub    $0x4,%esp
  112749:	ff 75 f4             	push   -0xc(%ebp)
  11274c:	52                   	push   %edx
  11274d:	50                   	push   %eax
  11274e:	e8 16 ff ff ff       	call   112669 <free_tzl_chunk>
  112753:	83 c4 10             	add    $0x10,%esp
  112756:	90                   	nop
  112757:	89 ec                	mov    %ebp,%esp
  112759:	5d                   	pop    %ebp
  11275a:	c3                   	ret    

0011275b <kalloc_small>:
  11275b:	55                   	push   %ebp
  11275c:	89 e5                	mov    %esp,%ebp
  11275e:	83 ec 28             	sub    $0x28,%esp
  112761:	a1 e0 11 13 00       	mov    0x1311e0,%eax
  112766:	85 c0                	test   %eax,%eax
  112768:	75 52                	jne    1127bc <kalloc_small+0x61>
  11276a:	e8 24 fc ff ff       	call   112393 <mem_realloc_small>
  11276f:	89 45 ec             	mov    %eax,-0x14(%ebp)
  112772:	83 7d ec 00          	cmpl   $0x0,-0x14(%ebp)
  112776:	75 07                	jne    11277f <kalloc_small+0x24>
  112778:	b8 00 00 00 00       	mov    $0x0,%eax
  11277d:	eb 67                	jmp    1127e6 <kalloc_small+0x8b>
  11277f:	a1 e0 11 13 00       	mov    0x1311e0,%eax
  112784:	89 45 f4             	mov    %eax,-0xc(%ebp)
  112787:	c7 45 f0 50 00 00 00 	movl   $0x50,-0x10(%ebp)
  11278e:	eb 1b                	jmp    1127ab <kalloc_small+0x50>
  112790:	8b 45 f4             	mov    -0xc(%ebp),%eax
  112793:	83 c0 50             	add    $0x50,%eax
  112796:	89 45 e8             	mov    %eax,-0x18(%ebp)
  112799:	8b 45 f4             	mov    -0xc(%ebp),%eax
  11279c:	8b 55 e8             	mov    -0x18(%ebp),%edx
  11279f:	89 10                	mov    %edx,(%eax)
  1127a1:	8b 45 e8             	mov    -0x18(%ebp),%eax
  1127a4:	89 45 f4             	mov    %eax,-0xc(%ebp)
  1127a7:	83 45 f0 50          	addl   $0x50,-0x10(%ebp)
  1127ab:	8b 45 f0             	mov    -0x10(%ebp),%eax
  1127ae:	3b 45 ec             	cmp    -0x14(%ebp),%eax
  1127b1:	72 dd                	jb     112790 <kalloc_small+0x35>
  1127b3:	8b 45 f4             	mov    -0xc(%ebp),%eax
  1127b6:	c7 00 00 00 00 00    	movl   $0x0,(%eax)
  1127bc:	a1 e0 11 13 00       	mov    0x1311e0,%eax
  1127c1:	89 45 e4             	mov    %eax,-0x1c(%ebp)
  1127c4:	8b 45 e4             	mov    -0x1c(%ebp),%eax
  1127c7:	8b 00                	mov    (%eax),%eax
  1127c9:	89 45 e0             	mov    %eax,-0x20(%ebp)
  1127cc:	8b 45 e0             	mov    -0x20(%ebp),%eax
  1127cf:	a3 e0 11 13 00       	mov    %eax,0x1311e0
  1127d4:	83 ec 04             	sub    $0x4,%esp
  1127d7:	6a 00                	push   $0x0
  1127d9:	6a 50                	push   $0x50
  1127db:	ff 75 e4             	push   -0x1c(%ebp)
  1127de:	e8 e0 fa ff ff       	call   1122c3 <mem_mark_and_get_user_ptr>
  1127e3:	83 c4 10             	add    $0x10,%esp
  1127e6:	89 ec                	mov    %ebp,%esp
  1127e8:	5d                   	pop    %ebp
  1127e9:	c3                   	ret    

001127ea <kfree_small>:
  1127ea:	55                   	push   %ebp
  1127eb:	89 e5                	mov    %esp,%ebp
  1127ed:	83 ec 10             	sub    $0x10,%esp
  1127f0:	a1 e0 11 13 00       	mov    0x1311e0,%eax
  1127f5:	89 45 fc             	mov    %eax,-0x4(%ebp)
  1127f8:	8b 45 08             	mov    0x8(%ebp),%eax
  1127fb:	a3 e0 11 13 00       	mov    %eax,0x1311e0
  112800:	a1 e0 11 13 00       	mov    0x1311e0,%eax
  112805:	8b 55 fc             	mov    -0x4(%ebp),%edx
  112808:	89 10                	mov    %edx,(%eax)
  11280a:	90                   	nop
  11280b:	89 ec                	mov    %ebp,%esp
  11280d:	5d                   	pop    %ebp
  11280e:	c3                   	ret    

0011280f <page_set_allocated>:
  11280f:	55                   	push   %ebp
  112810:	89 e5                	mov    %esp,%ebp
  112812:	53                   	push   %ebx
  112813:	83 ec 14             	sub    $0x14,%esp
  112816:	8b 45 0c             	mov    0xc(%ebp),%eax
  112819:	88 45 e8             	mov    %al,-0x18(%ebp)
  11281c:	8b 45 08             	mov    0x8(%ebp),%eax
  11281f:	c1 e8 03             	shr    $0x3,%eax
  112822:	89 45 f8             	mov    %eax,-0x8(%ebp)
  112825:	8b 45 08             	mov    0x8(%ebp),%eax
  112828:	83 e0 07             	and    $0x7,%eax
  11282b:	89 45 f4             	mov    %eax,-0xc(%ebp)
  11282e:	8b 45 f8             	mov    -0x8(%ebp),%eax
  112831:	05 80 56 13 00       	add    $0x135680,%eax
  112836:	89 45 f0             	mov    %eax,-0x10(%ebp)
  112839:	80 7d e8 00          	cmpb   $0x0,-0x18(%ebp)
  11283d:	74 20                	je     11285f <page_set_allocated+0x50>
  11283f:	8b 45 f0             	mov    -0x10(%ebp),%eax
  112842:	8a 00                	mov    (%eax),%al
  112844:	88 c2                	mov    %al,%dl
  112846:	8b 45 f4             	mov    -0xc(%ebp),%eax
  112849:	bb 01 00 00 00       	mov    $0x1,%ebx
  11284e:	88 c1                	mov    %al,%cl
  112850:	d3 e3                	shl    %cl,%ebx
  112852:	89 d8                	mov    %ebx,%eax
  112854:	09 d0                	or     %edx,%eax
  112856:	88 c2                	mov    %al,%dl
  112858:	8b 45 f0             	mov    -0x10(%ebp),%eax
  11285b:	88 10                	mov    %dl,(%eax)
  11285d:	eb 20                	jmp    11287f <page_set_allocated+0x70>
  11285f:	8b 45 f0             	mov    -0x10(%ebp),%eax
  112862:	8a 00                	mov    (%eax),%al
  112864:	88 c2                	mov    %al,%dl
  112866:	8b 45 f4             	mov    -0xc(%ebp),%eax
  112869:	bb 01 00 00 00       	mov    $0x1,%ebx
  11286e:	88 c1                	mov    %al,%cl
  112870:	d3 e3                	shl    %cl,%ebx
  112872:	89 d8                	mov    %ebx,%eax
  112874:	f7 d0                	not    %eax
  112876:	21 d0                	and    %edx,%eax
  112878:	88 c2                	mov    %al,%dl
  11287a:	8b 45 f0             	mov    -0x10(%ebp),%eax
  11287d:	88 10                	mov    %dl,(%eax)
  11287f:	90                   	nop
  112880:	83 c4 14             	add    $0x14,%esp
  112883:	5b                   	pop    %ebx
  112884:	5d                   	pop    %ebp
  112885:	c3                   	ret    

00112886 <page_count_padded>:
  112886:	55                   	push   %ebp
  112887:	89 e5                	mov    %esp,%ebp
  112889:	8b 45 08             	mov    0x8(%ebp),%eax
  11288c:	48                   	dec    %eax
  11288d:	c1 e8 0c             	shr    $0xc,%eax
  112890:	40                   	inc    %eax
  112891:	5d                   	pop    %ebp
  112892:	c3                   	ret    

00112893 <page_init>:
  112893:	55                   	push   %ebp
  112894:	89 e5                	mov    %esp,%ebp
  112896:	83 ec 18             	sub    $0x18,%esp
  112899:	83 ec 0c             	sub    $0xc,%esp
  11289c:	68 28 75 11 00       	push   $0x117528
  1128a1:	e8 2a ca ff ff       	call   10f2d0 <puts>
  1128a6:	83 c4 10             	add    $0x10,%esp
  1128a9:	b8 00 00 00 01       	mov    $0x1000000,%eax
  1128ae:	2d 80 56 13 00       	sub    $0x135680,%eax
  1128b3:	a3 ac 12 13 00       	mov    %eax,0x1312ac
  1128b8:	a1 ac 12 13 00       	mov    0x1312ac,%eax
  1128bd:	c1 e8 14             	shr    $0x14,%eax
  1128c0:	89 c2                	mov    %eax,%edx
  1128c2:	a1 ac 12 13 00       	mov    0x1312ac,%eax
  1128c7:	83 ec 04             	sub    $0x4,%esp
  1128ca:	52                   	push   %edx
  1128cb:	50                   	push   %eax
  1128cc:	68 47 75 11 00       	push   $0x117547
  1128d1:	e8 a9 c9 ff ff       	call   10f27f <printf>
  1128d6:	83 c4 10             	add    $0x10,%esp
  1128d9:	a1 ac 12 13 00       	mov    0x1312ac,%eax
  1128de:	c1 e8 0c             	shr    $0xc,%eax
  1128e1:	a3 b0 12 13 00       	mov    %eax,0x1312b0
  1128e6:	a1 b0 12 13 00       	mov    0x1312b0,%eax
  1128eb:	83 ec 04             	sub    $0x4,%esp
  1128ee:	68 00 10 00 00       	push   $0x1000
  1128f3:	50                   	push   %eax
  1128f4:	68 5f 75 11 00       	push   $0x11755f
  1128f9:	e8 81 c9 ff ff       	call   10f27f <printf>
  1128fe:	83 c4 10             	add    $0x10,%esp
  112901:	a1 b0 12 13 00       	mov    0x1312b0,%eax
  112906:	83 ec 0c             	sub    $0xc,%esp
  112909:	50                   	push   %eax
  11290a:	e8 77 ff ff ff       	call   112886 <page_count_padded>
  11290f:	83 c4 10             	add    $0x10,%esp
  112912:	a3 b4 12 13 00       	mov    %eax,0x1312b4
  112917:	a1 b4 12 13 00       	mov    0x1312b4,%eax
  11291c:	83 ec 08             	sub    $0x8,%esp
  11291f:	50                   	push   %eax
  112920:	68 76 75 11 00       	push   $0x117576
  112925:	e8 55 c9 ff ff       	call   10f27f <printf>
  11292a:	83 c4 10             	add    $0x10,%esp
  11292d:	a1 b4 12 13 00       	mov    0x1312b4,%eax
  112932:	c1 e0 0c             	shl    $0xc,%eax
  112935:	83 ec 04             	sub    $0x4,%esp
  112938:	50                   	push   %eax
  112939:	6a 00                	push   $0x0
  11293b:	68 80 56 13 00       	push   $0x135680
  112940:	e8 e7 cc ff ff       	call   10f62c <memset>
  112945:	83 c4 10             	add    $0x10,%esp
  112948:	c7 45 f4 00 00 00 00 	movl   $0x0,-0xc(%ebp)
  11294f:	eb 13                	jmp    112964 <page_init+0xd1>
  112951:	83 ec 08             	sub    $0x8,%esp
  112954:	6a 01                	push   $0x1
  112956:	ff 75 f4             	push   -0xc(%ebp)
  112959:	e8 b1 fe ff ff       	call   11280f <page_set_allocated>
  11295e:	83 c4 10             	add    $0x10,%esp
  112961:	ff 45 f4             	incl   -0xc(%ebp)
  112964:	a1 b4 12 13 00       	mov    0x1312b4,%eax
  112969:	39 45 f4             	cmp    %eax,-0xc(%ebp)
  11296c:	72 e3                	jb     112951 <page_init+0xbe>
  11296e:	90                   	nop
  11296f:	90                   	nop
  112970:	89 ec                	mov    %ebp,%esp
  112972:	5d                   	pop    %ebp
  112973:	c3                   	ret    

00112974 <page_alloc>:
  112974:	55                   	push   %ebp
  112975:	89 e5                	mov    %esp,%ebp
  112977:	83 ec 38             	sub    $0x38,%esp
  11297a:	83 7d 08 00          	cmpl   $0x0,0x8(%ebp)
  11297e:	75 0f                	jne    11298f <page_alloc+0x1b>
  112980:	83 ec 08             	sub    $0x8,%esp
  112983:	6a 40                	push   $0x40
  112985:	68 8c 75 11 00       	push   $0x11758c
  11298a:	e8 b4 c7 ff ff       	call   10f143 <panic>
  11298f:	83 ec 0c             	sub    $0xc,%esp
  112992:	ff 75 08             	push   0x8(%ebp)
  112995:	e8 ec fe ff ff       	call   112886 <page_count_padded>
  11299a:	83 c4 10             	add    $0x10,%esp
  11299d:	89 45 e0             	mov    %eax,-0x20(%ebp)
  1129a0:	a1 b4 12 13 00       	mov    0x1312b4,%eax
  1129a5:	c1 e8 03             	shr    $0x3,%eax
  1129a8:	89 45 dc             	mov    %eax,-0x24(%ebp)
  1129ab:	a1 b4 12 13 00       	mov    0x1312b4,%eax
  1129b0:	83 e0 07             	and    $0x7,%eax
  1129b3:	89 45 d8             	mov    %eax,-0x28(%ebp)
  1129b6:	8b 45 dc             	mov    -0x24(%ebp),%eax
  1129b9:	05 80 56 13 00       	add    $0x135680,%eax
  1129be:	89 45 f4             	mov    %eax,-0xc(%ebp)
  1129c1:	8b 45 d8             	mov    -0x28(%ebp),%eax
  1129c4:	ba 01 00 00 00       	mov    $0x1,%edx
  1129c9:	88 c1                	mov    %al,%cl
  1129cb:	d3 e2                	shl    %cl,%edx
  1129cd:	89 d0                	mov    %edx,%eax
  1129cf:	88 45 f3             	mov    %al,-0xd(%ebp)
  1129d2:	a1 b4 12 13 00       	mov    0x1312b4,%eax
  1129d7:	89 45 ec             	mov    %eax,-0x14(%ebp)
  1129da:	c7 45 e8 00 00 00 00 	movl   $0x0,-0x18(%ebp)
  1129e1:	c7 45 e4 00 00 00 00 	movl   $0x0,-0x1c(%ebp)
  1129e8:	e9 84 00 00 00       	jmp    112a71 <page_alloc+0xfd>
  1129ed:	8b 45 f4             	mov    -0xc(%ebp),%eax
  1129f0:	8a 00                	mov    (%eax),%al
  1129f2:	22 45 f3             	and    -0xd(%ebp),%al
  1129f5:	84 c0                	test   %al,%al
  1129f7:	75 5c                	jne    112a55 <page_alloc+0xe1>
  1129f9:	83 7d e4 00          	cmpl   $0x0,-0x1c(%ebp)
  1129fd:	75 06                	jne    112a05 <page_alloc+0x91>
  1129ff:	8b 45 ec             	mov    -0x14(%ebp),%eax
  112a02:	89 45 e8             	mov    %eax,-0x18(%ebp)
  112a05:	ff 45 e4             	incl   -0x1c(%ebp)
  112a08:	8b 45 e4             	mov    -0x1c(%ebp),%eax
  112a0b:	3b 45 e0             	cmp    -0x20(%ebp),%eax
  112a0e:	75 4c                	jne    112a5c <page_alloc+0xe8>
  112a10:	8b 45 e8             	mov    -0x18(%ebp),%eax
  112a13:	c1 e0 0c             	shl    $0xc,%eax
  112a16:	05 80 56 13 00       	add    $0x135680,%eax
  112a1b:	89 45 d4             	mov    %eax,-0x2c(%ebp)
  112a1e:	eb 1a                	jmp    112a3a <page_alloc+0xc6>
  112a20:	8b 45 e8             	mov    -0x18(%ebp),%eax
  112a23:	8d 50 01             	lea    0x1(%eax),%edx
  112a26:	89 55 e8             	mov    %edx,-0x18(%ebp)
  112a29:	83 ec 08             	sub    $0x8,%esp
  112a2c:	6a 01                	push   $0x1
  112a2e:	50                   	push   %eax
  112a2f:	e8 db fd ff ff       	call   11280f <page_set_allocated>
  112a34:	83 c4 10             	add    $0x10,%esp
  112a37:	ff 4d e4             	decl   -0x1c(%ebp)
  112a3a:	83 7d e4 00          	cmpl   $0x0,-0x1c(%ebp)
  112a3e:	75 e0                	jne    112a20 <page_alloc+0xac>
  112a40:	8b 15 b8 12 13 00    	mov    0x1312b8,%edx
  112a46:	8b 45 e0             	mov    -0x20(%ebp),%eax
  112a49:	01 d0                	add    %edx,%eax
  112a4b:	a3 b8 12 13 00       	mov    %eax,0x1312b8
  112a50:	8b 45 d4             	mov    -0x2c(%ebp),%eax
  112a53:	eb 2f                	jmp    112a84 <page_alloc+0x110>
  112a55:	c7 45 e4 00 00 00 00 	movl   $0x0,-0x1c(%ebp)
  112a5c:	80 7d f3 80          	cmpb   $0x80,-0xd(%ebp)
  112a60:	75 09                	jne    112a6b <page_alloc+0xf7>
  112a62:	ff 45 f4             	incl   -0xc(%ebp)
  112a65:	c6 45 f3 01          	movb   $0x1,-0xd(%ebp)
  112a69:	eb 03                	jmp    112a6e <page_alloc+0xfa>
  112a6b:	d0 65 f3             	shlb   -0xd(%ebp)
  112a6e:	ff 45 ec             	incl   -0x14(%ebp)
  112a71:	a1 b0 12 13 00       	mov    0x1312b0,%eax
  112a76:	39 45 ec             	cmp    %eax,-0x14(%ebp)
  112a79:	0f 82 6e ff ff ff    	jb     1129ed <page_alloc+0x79>
  112a7f:	b8 00 00 00 00       	mov    $0x0,%eax
  112a84:	89 ec                	mov    %ebp,%esp
  112a86:	5d                   	pop    %ebp
  112a87:	c3                   	ret    

00112a88 <page_free>:
  112a88:	55                   	push   %ebp
  112a89:	89 e5                	mov    %esp,%ebp
  112a8b:	83 ec 18             	sub    $0x18,%esp
  112a8e:	83 7d 08 00          	cmpl   $0x0,0x8(%ebp)
  112a92:	75 12                	jne    112aa6 <page_free+0x1e>
  112a94:	83 ec 08             	sub    $0x8,%esp
  112a97:	68 82 00 00 00       	push   $0x82
  112a9c:	68 bc 75 11 00       	push   $0x1175bc
  112aa1:	e8 9d c6 ff ff       	call   10f143 <panic>
  112aa6:	83 7d 0c 00          	cmpl   $0x0,0xc(%ebp)
  112aaa:	75 12                	jne    112abe <page_free+0x36>
  112aac:	83 ec 08             	sub    $0x8,%esp
  112aaf:	68 83 00 00 00       	push   $0x83
  112ab4:	68 8c 75 11 00       	push   $0x11758c
  112ab9:	e8 85 c6 ff ff       	call   10f143 <panic>
  112abe:	83 ec 0c             	sub    $0xc,%esp
  112ac1:	ff 75 0c             	push   0xc(%ebp)
  112ac4:	e8 bd fd ff ff       	call   112886 <page_count_padded>
  112ac9:	83 c4 10             	add    $0x10,%esp
  112acc:	89 45 f4             	mov    %eax,-0xc(%ebp)
  112acf:	8b 45 08             	mov    0x8(%ebp),%eax
  112ad2:	2d 80 56 13 00       	sub    $0x135680,%eax
  112ad7:	89 45 ec             	mov    %eax,-0x14(%ebp)
  112ada:	8b 45 ec             	mov    -0x14(%ebp),%eax
  112add:	c1 e8 0c             	shr    $0xc,%eax
  112ae0:	89 45 f0             	mov    %eax,-0x10(%ebp)
  112ae3:	eb 1a                	jmp    112aff <page_free+0x77>
  112ae5:	8b 45 f0             	mov    -0x10(%ebp),%eax
  112ae8:	8d 50 01             	lea    0x1(%eax),%edx
  112aeb:	89 55 f0             	mov    %edx,-0x10(%ebp)
  112aee:	83 ec 08             	sub    $0x8,%esp
  112af1:	6a 00                	push   $0x0
  112af3:	50                   	push   %eax
  112af4:	e8 16 fd ff ff       	call   11280f <page_set_allocated>
  112af9:	83 c4 10             	add    $0x10,%esp
  112afc:	ff 4d f4             	decl   -0xc(%ebp)
  112aff:	83 7d f4 00          	cmpl   $0x0,-0xc(%ebp)
  112b03:	75 e0                	jne    112ae5 <page_free+0x5d>
  112b05:	a1 b8 12 13 00       	mov    0x1312b8,%eax
  112b0a:	2b 45 f4             	sub    -0xc(%ebp),%eax
  112b0d:	a3 b8 12 13 00       	mov    %eax,0x1312b8
  112b12:	90                   	nop
  112b13:	89 ec                	mov    %ebp,%esp
  112b15:	5d                   	pop    %ebp
  112b16:	c3                   	ret    

00112b17 <page_alloc_count>:
  112b17:	55                   	push   %ebp
  112b18:	89 e5                	mov    %esp,%ebp
  112b1a:	a1 b8 12 13 00       	mov    0x1312b8,%eax
  112b1f:	5d                   	pop    %ebp
  112b20:	c3                   	ret    

00112b21 <inb>:
  112b21:	55                   	push   %ebp
  112b22:	89 e5                	mov    %esp,%ebp
  112b24:	83 ec 14             	sub    $0x14,%esp
  112b27:	8b 45 08             	mov    0x8(%ebp),%eax
  112b2a:	66 89 45 ec          	mov    %ax,-0x14(%ebp)
  112b2e:	8b 45 ec             	mov    -0x14(%ebp),%eax
  112b31:	89 c2                	mov    %eax,%edx
  112b33:	ec                   	in     (%dx),%al
  112b34:	88 45 ff             	mov    %al,-0x1(%ebp)
  112b37:	8a 45 ff             	mov    -0x1(%ebp),%al
  112b3a:	89 ec                	mov    %ebp,%esp
  112b3c:	5d                   	pop    %ebp
  112b3d:	c3                   	ret    

00112b3e <debugger>:
  112b3e:	55                   	push   %ebp
  112b3f:	89 e5                	mov    %esp,%ebp
  112b41:	83 ec 68             	sub    $0x68,%esp
  112b44:	c7 45 9c ff ff ff ff 	movl   $0xffffffff,-0x64(%ebp)
  112b4b:	8d 45 ac             	lea    -0x54(%ebp),%eax
  112b4e:	89 45 a4             	mov    %eax,-0x5c(%ebp)
  112b51:	83 7d 08 0f          	cmpl   $0xf,0x8(%ebp)
  112b55:	0f 97 c0             	seta   %al
  112b58:	84 c0                	test   %al,%al
  112b5a:	75 50                	jne    112bac <debugger+0x6e>
  112b5c:	8b 45 08             	mov    0x8(%ebp),%eax
  112b5f:	ba 01 00 00 00       	mov    $0x1,%edx
  112b64:	88 c1                	mov    %al,%cl
  112b66:	d3 e2                	shl    %cl,%edx
  112b68:	89 d0                	mov    %edx,%eax
  112b6a:	89 c2                	mov    %eax,%edx
  112b6c:	81 e2 b1 83 00 00    	and    $0x83b1,%edx
  112b72:	85 d2                	test   %edx,%edx
  112b74:	0f 95 c2             	setne  %dl
  112b77:	84 d2                	test   %dl,%dl
  112b79:	75 1f                	jne    112b9a <debugger+0x5c>
  112b7b:	89 c2                	mov    %eax,%edx
  112b7d:	81 e2 00 7c 00 00    	and    $0x7c00,%edx
  112b83:	85 d2                	test   %edx,%edx
  112b85:	0f 95 c2             	setne  %dl
  112b88:	84 d2                	test   %dl,%dl
  112b8a:	75 1a                	jne    112ba6 <debugger+0x68>
  112b8c:	83 e0 0a             	and    $0xa,%eax
  112b8f:	85 c0                	test   %eax,%eax
  112b91:	0f 95 c0             	setne  %al
  112b94:	84 c0                	test   %al,%al
  112b96:	75 08                	jne    112ba0 <debugger+0x62>
  112b98:	eb 12                	jmp    112bac <debugger+0x6e>
  112b9a:	c6 45 a0 08          	movb   $0x8,-0x60(%ebp)
  112b9e:	eb 10                	jmp    112bb0 <debugger+0x72>
  112ba0:	c6 45 a0 05          	movb   $0x5,-0x60(%ebp)
  112ba4:	eb 0a                	jmp    112bb0 <debugger+0x72>
  112ba6:	c6 45 a0 0b          	movb   $0xb,-0x60(%ebp)
  112baa:	eb 04                	jmp    112bb0 <debugger+0x72>
  112bac:	c6 45 a0 04          	movb   $0x4,-0x60(%ebp)
  112bb0:	8b 45 10             	mov    0x10(%ebp),%eax
  112bb3:	8b 40 28             	mov    0x28(%eax),%eax
  112bb6:	89 45 ac             	mov    %eax,-0x54(%ebp)
  112bb9:	8b 45 10             	mov    0x10(%ebp),%eax
  112bbc:	8b 40 2c             	mov    0x2c(%eax),%eax
  112bbf:	89 45 b0             	mov    %eax,-0x50(%ebp)
  112bc2:	8b 45 10             	mov    0x10(%ebp),%eax
  112bc5:	8b 40 30             	mov    0x30(%eax),%eax
  112bc8:	89 45 b4             	mov    %eax,-0x4c(%ebp)
  112bcb:	8b 45 10             	mov    0x10(%ebp),%eax
  112bce:	8b 40 34             	mov    0x34(%eax),%eax
  112bd1:	89 45 b8             	mov    %eax,-0x48(%ebp)
  112bd4:	8b 45 10             	mov    0x10(%ebp),%eax
  112bd7:	8b 40 38             	mov    0x38(%eax),%eax
  112bda:	89 45 bc             	mov    %eax,-0x44(%ebp)
  112bdd:	8b 45 10             	mov    0x10(%ebp),%eax
  112be0:	8b 40 3c             	mov    0x3c(%eax),%eax
  112be3:	89 45 c0             	mov    %eax,-0x40(%ebp)
  112be6:	8b 45 10             	mov    0x10(%ebp),%eax
  112be9:	8b 40 40             	mov    0x40(%eax),%eax
  112bec:	89 45 c4             	mov    %eax,-0x3c(%ebp)
  112bef:	8b 45 10             	mov    0x10(%ebp),%eax
  112bf2:	8b 40 44             	mov    0x44(%eax),%eax
  112bf5:	89 45 c8             	mov    %eax,-0x38(%ebp)
  112bf8:	8b 45 10             	mov    0x10(%ebp),%eax
  112bfb:	8b 40 20             	mov    0x20(%eax),%eax
  112bfe:	89 45 cc             	mov    %eax,-0x34(%ebp)
  112c01:	8b 45 10             	mov    0x10(%ebp),%eax
  112c04:	8b 40 24             	mov    0x24(%eax),%eax
  112c07:	89 45 d0             	mov    %eax,-0x30(%ebp)
  112c0a:	8b 45 10             	mov    0x10(%ebp),%eax
  112c0d:	8b 40 4c             	mov    0x4c(%eax),%eax
  112c10:	89 45 d4             	mov    %eax,-0x2c(%ebp)
  112c13:	8b 45 10             	mov    0x10(%ebp),%eax
  112c16:	8b 40 50             	mov    0x50(%eax),%eax
  112c19:	89 45 d8             	mov    %eax,-0x28(%ebp)
  112c1c:	8b 45 10             	mov    0x10(%ebp),%eax
  112c1f:	8b 40 54             	mov    0x54(%eax),%eax
  112c22:	89 45 dc             	mov    %eax,-0x24(%ebp)
  112c25:	8b 45 10             	mov    0x10(%ebp),%eax
  112c28:	8b 40 48             	mov    0x48(%eax),%eax
  112c2b:	89 45 e0             	mov    %eax,-0x20(%ebp)
  112c2e:	8b 45 10             	mov    0x10(%ebp),%eax
  112c31:	8b 40 58             	mov    0x58(%eax),%eax
  112c34:	89 45 e4             	mov    %eax,-0x1c(%ebp)
  112c37:	8b 45 10             	mov    0x10(%ebp),%eax
  112c3a:	8b 40 5c             	mov    0x5c(%eax),%eax
  112c3d:	89 45 e8             	mov    %eax,-0x18(%ebp)
  112c40:	0f 20 c0             	mov    %cr0,%eax
  112c43:	89 45 f4             	mov    %eax,-0xc(%ebp)
  112c46:	0f 20 e0             	mov    %cr4,%eax
  112c49:	89 45 f0             	mov    %eax,-0x10(%ebp)
  112c4c:	8b 45 10             	mov    0x10(%ebp),%eax
  112c4f:	8b 40 1c             	mov    0x1c(%eax),%eax
  112c52:	83 ec 04             	sub    $0x4,%esp
  112c55:	ff 75 f0             	push   -0x10(%ebp)
  112c58:	50                   	push   %eax
  112c59:	ff 75 f4             	push   -0xc(%ebp)
  112c5c:	e8 c2 1a 00 00       	call   114723 <copy_client_paging_registers>
  112c61:	83 c4 10             	add    $0x10,%esp
  112c64:	83 ec 08             	sub    $0x8,%esp
  112c67:	6a 00                	push   $0x0
  112c69:	8d 45 9c             	lea    -0x64(%ebp),%eax
  112c6c:	50                   	push   %eax
  112c6d:	e8 ab 0c 00 00       	call   11391d <gdb_serial_converse>
  112c72:	83 c4 10             	add    $0x10,%esp
  112c75:	89 45 ec             	mov    %eax,-0x14(%ebp)
  112c78:	83 7d ec 04          	cmpl   $0x4,-0x14(%ebp)
  112c7c:	77 23                	ja     112ca1 <debugger+0x163>
  112c7e:	8b 45 ec             	mov    -0x14(%ebp),%eax
  112c81:	c1 e0 02             	shl    $0x2,%eax
  112c84:	05 f0 75 11 00       	add    $0x1175f0,%eax
  112c89:	8b 00                	mov    (%eax),%eax
  112c8b:	ff e0                	jmp    *%eax
  112c8d:	c7 05 bc 12 13 00 00 	movl   $0x0,0x1312bc
  112c94:	00 00 00 
  112c97:	eb 08                	jmp    112ca1 <debugger+0x163>
  112c99:	e8 f1 b9 ff ff       	call   10e68f <reboot>
  112c9e:	eb 01                	jmp    112ca1 <debugger+0x163>
  112ca0:	90                   	nop
  112ca1:	8b 45 ac             	mov    -0x54(%ebp),%eax
  112ca4:	89 c2                	mov    %eax,%edx
  112ca6:	8b 45 10             	mov    0x10(%ebp),%eax
  112ca9:	89 50 28             	mov    %edx,0x28(%eax)
  112cac:	8b 45 b0             	mov    -0x50(%ebp),%eax
  112caf:	89 c2                	mov    %eax,%edx
  112cb1:	8b 45 10             	mov    0x10(%ebp),%eax
  112cb4:	89 50 2c             	mov    %edx,0x2c(%eax)
  112cb7:	8b 45 b4             	mov    -0x4c(%ebp),%eax
  112cba:	89 c2                	mov    %eax,%edx
  112cbc:	8b 45 10             	mov    0x10(%ebp),%eax
  112cbf:	89 50 30             	mov    %edx,0x30(%eax)
  112cc2:	8b 45 b8             	mov    -0x48(%ebp),%eax
  112cc5:	89 c2                	mov    %eax,%edx
  112cc7:	8b 45 10             	mov    0x10(%ebp),%eax
  112cca:	89 50 34             	mov    %edx,0x34(%eax)
  112ccd:	8b 45 bc             	mov    -0x44(%ebp),%eax
  112cd0:	89 c2                	mov    %eax,%edx
  112cd2:	8b 45 10             	mov    0x10(%ebp),%eax
  112cd5:	89 50 38             	mov    %edx,0x38(%eax)
  112cd8:	8b 45 c0             	mov    -0x40(%ebp),%eax
  112cdb:	89 c2                	mov    %eax,%edx
  112cdd:	8b 45 10             	mov    0x10(%ebp),%eax
  112ce0:	89 50 3c             	mov    %edx,0x3c(%eax)
  112ce3:	8b 45 c4             	mov    -0x3c(%ebp),%eax
  112ce6:	89 c2                	mov    %eax,%edx
  112ce8:	8b 45 10             	mov    0x10(%ebp),%eax
  112ceb:	89 50 40             	mov    %edx,0x40(%eax)
  112cee:	8b 45 c8             	mov    -0x38(%ebp),%eax
  112cf1:	89 c2                	mov    %eax,%edx
  112cf3:	8b 45 10             	mov    0x10(%ebp),%eax
  112cf6:	89 50 44             	mov    %edx,0x44(%eax)
  112cf9:	8b 45 cc             	mov    -0x34(%ebp),%eax
  112cfc:	89 c2                	mov    %eax,%edx
  112cfe:	8b 45 10             	mov    0x10(%ebp),%eax
  112d01:	89 50 20             	mov    %edx,0x20(%eax)
  112d04:	8b 45 d0             	mov    -0x30(%ebp),%eax
  112d07:	89 c2                	mov    %eax,%edx
  112d09:	8b 45 10             	mov    0x10(%ebp),%eax
  112d0c:	89 50 24             	mov    %edx,0x24(%eax)
  112d0f:	8b 45 d4             	mov    -0x2c(%ebp),%eax
  112d12:	89 c2                	mov    %eax,%edx
  112d14:	8b 45 10             	mov    0x10(%ebp),%eax
  112d17:	89 50 4c             	mov    %edx,0x4c(%eax)
  112d1a:	8b 45 d8             	mov    -0x28(%ebp),%eax
  112d1d:	89 c2                	mov    %eax,%edx
  112d1f:	8b 45 10             	mov    0x10(%ebp),%eax
  112d22:	89 50 50             	mov    %edx,0x50(%eax)
  112d25:	8b 45 dc             	mov    -0x24(%ebp),%eax
  112d28:	89 c2                	mov    %eax,%edx
  112d2a:	8b 45 10             	mov    0x10(%ebp),%eax
  112d2d:	89 50 54             	mov    %edx,0x54(%eax)
  112d30:	8b 45 e0             	mov    -0x20(%ebp),%eax
  112d33:	89 c2                	mov    %eax,%edx
  112d35:	8b 45 10             	mov    0x10(%ebp),%eax
  112d38:	89 50 48             	mov    %edx,0x48(%eax)
  112d3b:	8b 45 e4             	mov    -0x1c(%ebp),%eax
  112d3e:	89 c2                	mov    %eax,%edx
  112d40:	8b 45 10             	mov    0x10(%ebp),%eax
  112d43:	89 50 58             	mov    %edx,0x58(%eax)
  112d46:	8b 45 e8             	mov    -0x18(%ebp),%eax
  112d49:	89 c2                	mov    %eax,%edx
  112d4b:	8b 45 10             	mov    0x10(%ebp),%eax
  112d4e:	89 50 5c             	mov    %edx,0x5c(%eax)
  112d51:	90                   	nop
  112d52:	89 ec                	mov    %ebp,%esp
  112d54:	5d                   	pop    %ebp
  112d55:	c3                   	ret    

00112d56 <write_hex>:
  112d56:	55                   	push   %ebp
  112d57:	89 e5                	mov    %esp,%ebp
  112d59:	53                   	push   %ebx
  112d5a:	83 ec 20             	sub    $0x20,%esp
  112d5d:	8b 15 50 a1 11 00    	mov    0x11a150,%edx
  112d63:	8b 45 08             	mov    0x8(%ebp),%eax
  112d66:	8d 48 ff             	lea    -0x1(%eax),%ecx
  112d69:	89 c8                	mov    %ecx,%eax
  112d6b:	c1 e0 02             	shl    $0x2,%eax
  112d6e:	01 c8                	add    %ecx,%eax
  112d70:	c1 e0 04             	shl    $0x4,%eax
  112d73:	89 c3                	mov    %eax,%ebx
  112d75:	8b 4d 0c             	mov    0xc(%ebp),%ecx
  112d78:	8b 45 10             	mov    0x10(%ebp),%eax
  112d7b:	01 c8                	add    %ecx,%eax
  112d7d:	48                   	dec    %eax
  112d7e:	01 d8                	add    %ebx,%eax
  112d80:	01 c0                	add    %eax,%eax
  112d82:	01 d0                	add    %edx,%eax
  112d84:	89 45 f8             	mov    %eax,-0x8(%ebp)
  112d87:	c7 45 f4 00 00 00 00 	movl   $0x0,-0xc(%ebp)
  112d8e:	eb 15                	jmp    112da5 <write_hex+0x4f>
  112d90:	8b 45 f4             	mov    -0xc(%ebp),%eax
  112d93:	83 c0 30             	add    $0x30,%eax
  112d96:	88 c2                	mov    %al,%dl
  112d98:	8d 4d e4             	lea    -0x1c(%ebp),%ecx
  112d9b:	8b 45 f4             	mov    -0xc(%ebp),%eax
  112d9e:	01 c8                	add    %ecx,%eax
  112da0:	88 10                	mov    %dl,(%eax)
  112da2:	ff 45 f4             	incl   -0xc(%ebp)
  112da5:	83 7d f4 09          	cmpl   $0x9,-0xc(%ebp)
  112da9:	7e e5                	jle    112d90 <write_hex+0x3a>
  112dab:	c7 45 f4 00 00 00 00 	movl   $0x0,-0xc(%ebp)
  112db2:	eb 13                	jmp    112dc7 <write_hex+0x71>
  112db4:	8b 45 f4             	mov    -0xc(%ebp),%eax
  112db7:	8d 50 41             	lea    0x41(%eax),%edx
  112dba:	8b 45 f4             	mov    -0xc(%ebp),%eax
  112dbd:	83 c0 0a             	add    $0xa,%eax
  112dc0:	88 54 05 e4          	mov    %dl,-0x1c(%ebp,%eax,1)
  112dc4:	ff 45 f4             	incl   -0xc(%ebp)
  112dc7:	83 7d f4 05          	cmpl   $0x5,-0xc(%ebp)
  112dcb:	7e e7                	jle    112db4 <write_hex+0x5e>
  112dcd:	eb 17                	jmp    112de6 <write_hex+0x90>
  112dcf:	83 6d f8 02          	subl   $0x2,-0x8(%ebp)
  112dd3:	8b 45 14             	mov    0x14(%ebp),%eax
  112dd6:	83 e0 0f             	and    $0xf,%eax
  112dd9:	8a 54 05 e4          	mov    -0x1c(%ebp,%eax,1),%dl
  112ddd:	8b 45 f8             	mov    -0x8(%ebp),%eax
  112de0:	88 10                	mov    %dl,(%eax)
  112de2:	c1 6d 14 04          	shrl   $0x4,0x14(%ebp)
  112de6:	8b 45 10             	mov    0x10(%ebp),%eax
  112de9:	8d 50 ff             	lea    -0x1(%eax),%edx
  112dec:	89 55 10             	mov    %edx,0x10(%ebp)
  112def:	85 c0                	test   %eax,%eax
  112df1:	7f dc                	jg     112dcf <write_hex+0x79>
  112df3:	90                   	nop
  112df4:	90                   	nop
  112df5:	83 c4 20             	add    $0x20,%esp
  112df8:	5b                   	pop    %ebx
  112df9:	5d                   	pop    %ebp
  112dfa:	c3                   	ret    

00112dfb <dump_registers>:
  112dfb:	55                   	push   %ebp
  112dfc:	89 e5                	mov    %esp,%ebp
  112dfe:	53                   	push   %ebx
  112dff:	83 ec 10             	sub    $0x10,%esp
  112e02:	c7 45 f0 00 00 00 00 	movl   $0x0,-0x10(%ebp)
  112e09:	c7 45 f8 00 00 00 00 	movl   $0x0,-0x8(%ebp)
  112e10:	eb 49                	jmp    112e5b <dump_registers+0x60>
  112e12:	c7 45 f4 00 00 00 00 	movl   $0x0,-0xc(%ebp)
  112e19:	eb 34                	jmp    112e4f <dump_registers+0x54>
  112e1b:	8b 45 f0             	mov    -0x10(%ebp),%eax
  112e1e:	8d 50 01             	lea    0x1(%eax),%edx
  112e21:	89 55 f0             	mov    %edx,-0x10(%ebp)
  112e24:	8a 88 70 8a 12 00    	mov    0x128a70(%eax),%cl
  112e2a:	8b 1d 50 a1 11 00    	mov    0x11a150,%ebx
  112e30:	8b 55 f8             	mov    -0x8(%ebp),%edx
  112e33:	89 d0                	mov    %edx,%eax
  112e35:	c1 e0 02             	shl    $0x2,%eax
  112e38:	01 d0                	add    %edx,%eax
  112e3a:	c1 e0 04             	shl    $0x4,%eax
  112e3d:	89 c2                	mov    %eax,%edx
  112e3f:	8b 45 f4             	mov    -0xc(%ebp),%eax
  112e42:	01 d0                	add    %edx,%eax
  112e44:	01 c0                	add    %eax,%eax
  112e46:	01 d8                	add    %ebx,%eax
  112e48:	88 ca                	mov    %cl,%dl
  112e4a:	88 10                	mov    %dl,(%eax)
  112e4c:	ff 45 f4             	incl   -0xc(%ebp)
  112e4f:	83 7d f4 4f          	cmpl   $0x4f,-0xc(%ebp)
  112e53:	7e c6                	jle    112e1b <dump_registers+0x20>
  112e55:	ff 45 f0             	incl   -0x10(%ebp)
  112e58:	ff 45 f8             	incl   -0x8(%ebp)
  112e5b:	83 7d f8 18          	cmpl   $0x18,-0x8(%ebp)
  112e5f:	7e b1                	jle    112e12 <dump_registers+0x17>
  112e61:	c7 45 f8 00 00 00 00 	movl   $0x0,-0x8(%ebp)
  112e68:	eb 1a                	jmp    112e84 <dump_registers+0x89>
  112e6a:	8b 45 f8             	mov    -0x8(%ebp),%eax
  112e6d:	01 c0                	add    %eax,%eax
  112e6f:	40                   	inc    %eax
  112e70:	89 45 f4             	mov    %eax,-0xc(%ebp)
  112e73:	8b 15 50 a1 11 00    	mov    0x11a150,%edx
  112e79:	8b 45 f4             	mov    -0xc(%ebp),%eax
  112e7c:	01 d0                	add    %edx,%eax
  112e7e:	c6 00 30             	movb   $0x30,(%eax)
  112e81:	ff 45 f8             	incl   -0x8(%ebp)
  112e84:	81 7d f8 cf 07 00 00 	cmpl   $0x7cf,-0x8(%ebp)
  112e8b:	7e dd                	jle    112e6a <dump_registers+0x6f>
  112e8d:	c7 45 f8 a1 00 00 00 	movl   $0xa1,-0x8(%ebp)
  112e94:	eb 1a                	jmp    112eb0 <dump_registers+0xb5>
  112e96:	8b 45 f8             	mov    -0x8(%ebp),%eax
  112e99:	01 c0                	add    %eax,%eax
  112e9b:	40                   	inc    %eax
  112e9c:	89 45 f4             	mov    %eax,-0xc(%ebp)
  112e9f:	8b 15 50 a1 11 00    	mov    0x11a150,%edx
  112ea5:	8b 45 f4             	mov    -0xc(%ebp),%eax
  112ea8:	01 d0                	add    %edx,%eax
  112eaa:	c6 00 34             	movb   $0x34,(%eax)
  112ead:	ff 45 f8             	incl   -0x8(%ebp)
  112eb0:	81 7d f8 ee 00 00 00 	cmpl   $0xee,-0x8(%ebp)
  112eb7:	7e dd                	jle    112e96 <dump_registers+0x9b>
  112eb9:	ff 75 08             	push   0x8(%ebp)
  112ebc:	6a 02                	push   $0x2
  112ebe:	6a 15                	push   $0x15
  112ec0:	6a 07                	push   $0x7
  112ec2:	e8 8f fe ff ff       	call   112d56 <write_hex>
  112ec7:	83 c4 10             	add    $0x10,%esp
  112eca:	ff 75 0c             	push   0xc(%ebp)
  112ecd:	6a 08                	push   $0x8
  112ecf:	6a 3c                	push   $0x3c
  112ed1:	6a 07                	push   $0x7
  112ed3:	e8 7e fe ff ff       	call   112d56 <write_hex>
  112ed8:	83 c4 10             	add    $0x10,%esp
  112edb:	8b 45 10             	mov    0x10(%ebp),%eax
  112ede:	50                   	push   %eax
  112edf:	6a 08                	push   $0x8
  112ee1:	6a 15                	push   $0x15
  112ee3:	6a 09                	push   $0x9
  112ee5:	e8 6c fe ff ff       	call   112d56 <write_hex>
  112eea:	83 c4 10             	add    $0x10,%esp
  112eed:	8b 45 10             	mov    0x10(%ebp),%eax
  112ef0:	8b 00                	mov    (%eax),%eax
  112ef2:	50                   	push   %eax
  112ef3:	6a 04                	push   $0x4
  112ef5:	6a 45                	push   $0x45
  112ef7:	6a 09                	push   $0x9
  112ef9:	e8 58 fe ff ff       	call   112d56 <write_hex>
  112efe:	83 c4 10             	add    $0x10,%esp
  112f01:	8b 45 10             	mov    0x10(%ebp),%eax
  112f04:	8b 40 38             	mov    0x38(%eax),%eax
  112f07:	50                   	push   %eax
  112f08:	6a 08                	push   $0x8
  112f0a:	6a 0b                	push   $0xb
  112f0c:	6a 0b                	push   $0xb
  112f0e:	e8 43 fe ff ff       	call   112d56 <write_hex>
  112f13:	83 c4 10             	add    $0x10,%esp
  112f16:	8b 45 10             	mov    0x10(%ebp),%eax
  112f19:	8b 40 50             	mov    0x50(%eax),%eax
  112f1c:	50                   	push   %eax
  112f1d:	6a 04                	push   $0x4
  112f1f:	6a 20                	push   $0x20
  112f21:	6a 0b                	push   $0xb
  112f23:	e8 2e fe ff ff       	call   112d56 <write_hex>
  112f28:	83 c4 10             	add    $0x10,%esp
  112f2b:	8b 45 10             	mov    0x10(%ebp),%eax
  112f2e:	8b 40 04             	mov    0x4(%eax),%eax
  112f31:	50                   	push   %eax
  112f32:	6a 08                	push   $0x8
  112f34:	6a 34                	push   $0x34
  112f36:	6a 0b                	push   $0xb
  112f38:	e8 19 fe ff ff       	call   112d56 <write_hex>
  112f3d:	83 c4 10             	add    $0x10,%esp
  112f40:	8b 45 10             	mov    0x10(%ebp),%eax
  112f43:	8b 40 08             	mov    0x8(%eax),%eax
  112f46:	50                   	push   %eax
  112f47:	6a 04                	push   $0x4
  112f49:	6a 4a                	push   $0x4a
  112f4b:	6a 0b                	push   $0xb
  112f4d:	e8 04 fe ff ff       	call   112d56 <write_hex>
  112f52:	83 c4 10             	add    $0x10,%esp
  112f55:	8b 45 10             	mov    0x10(%ebp),%eax
  112f58:	8b 40 0c             	mov    0xc(%eax),%eax
  112f5b:	50                   	push   %eax
  112f5c:	6a 08                	push   $0x8
  112f5e:	6a 0b                	push   $0xb
  112f60:	6a 0d                	push   $0xd
  112f62:	e8 ef fd ff ff       	call   112d56 <write_hex>
  112f67:	83 c4 10             	add    $0x10,%esp
  112f6a:	8b 45 10             	mov    0x10(%ebp),%eax
  112f6d:	8b 40 10             	mov    0x10(%eax),%eax
  112f70:	50                   	push   %eax
  112f71:	6a 04                	push   $0x4
  112f73:	6a 20                	push   $0x20
  112f75:	6a 0d                	push   $0xd
  112f77:	e8 da fd ff ff       	call   112d56 <write_hex>
  112f7c:	83 c4 10             	add    $0x10,%esp
  112f7f:	8b 45 10             	mov    0x10(%ebp),%eax
  112f82:	8b 40 14             	mov    0x14(%eax),%eax
  112f85:	50                   	push   %eax
  112f86:	6a 08                	push   $0x8
  112f88:	6a 34                	push   $0x34
  112f8a:	6a 0d                	push   $0xd
  112f8c:	e8 c5 fd ff ff       	call   112d56 <write_hex>
  112f91:	83 c4 10             	add    $0x10,%esp
  112f94:	8b 45 10             	mov    0x10(%ebp),%eax
  112f97:	8b 40 18             	mov    0x18(%eax),%eax
  112f9a:	50                   	push   %eax
  112f9b:	6a 04                	push   $0x4
  112f9d:	6a 4a                	push   $0x4a
  112f9f:	6a 0d                	push   $0xd
  112fa1:	e8 b0 fd ff ff       	call   112d56 <write_hex>
  112fa6:	83 c4 10             	add    $0x10,%esp
  112fa9:	8b 45 10             	mov    0x10(%ebp),%eax
  112fac:	8b 40 20             	mov    0x20(%eax),%eax
  112faf:	50                   	push   %eax
  112fb0:	6a 08                	push   $0x8
  112fb2:	6a 0f                	push   $0xf
  112fb4:	6a 0f                	push   $0xf
  112fb6:	e8 9b fd ff ff       	call   112d56 <write_hex>
  112fbb:	83 c4 10             	add    $0x10,%esp
  112fbe:	8b 45 10             	mov    0x10(%ebp),%eax
  112fc1:	8b 40 4c             	mov    0x4c(%eax),%eax
  112fc4:	50                   	push   %eax
  112fc5:	6a 04                	push   $0x4
  112fc7:	6a 29                	push   $0x29
  112fc9:	6a 0f                	push   $0xf
  112fcb:	e8 86 fd ff ff       	call   112d56 <write_hex>
  112fd0:	83 c4 10             	add    $0x10,%esp
  112fd3:	8b 45 10             	mov    0x10(%ebp),%eax
  112fd6:	8b 40 24             	mov    0x24(%eax),%eax
  112fd9:	50                   	push   %eax
  112fda:	6a 08                	push   $0x8
  112fdc:	6a 42                	push   $0x42
  112fde:	6a 0f                	push   $0xf
  112fe0:	e8 71 fd ff ff       	call   112d56 <write_hex>
  112fe5:	83 c4 10             	add    $0x10,%esp
  112fe8:	8b 45 10             	mov    0x10(%ebp),%eax
  112feb:	8b 40 28             	mov    0x28(%eax),%eax
  112fee:	50                   	push   %eax
  112fef:	6a 08                	push   $0x8
  112ff1:	6a 0a                	push   $0xa
  112ff3:	6a 11                	push   $0x11
  112ff5:	e8 5c fd ff ff       	call   112d56 <write_hex>
  112ffa:	83 c4 10             	add    $0x10,%esp
  112ffd:	8b 45 10             	mov    0x10(%ebp),%eax
  113000:	8b 40 34             	mov    0x34(%eax),%eax
  113003:	50                   	push   %eax
  113004:	6a 08                	push   $0x8
  113006:	6a 1e                	push   $0x1e
  113008:	6a 11                	push   $0x11
  11300a:	e8 47 fd ff ff       	call   112d56 <write_hex>
  11300f:	83 c4 10             	add    $0x10,%esp
  113012:	8b 45 10             	mov    0x10(%ebp),%eax
  113015:	8b 40 2c             	mov    0x2c(%eax),%eax
  113018:	50                   	push   %eax
  113019:	6a 08                	push   $0x8
  11301b:	6a 32                	push   $0x32
  11301d:	6a 11                	push   $0x11
  11301f:	e8 32 fd ff ff       	call   112d56 <write_hex>
  113024:	83 c4 10             	add    $0x10,%esp
  113027:	8b 45 10             	mov    0x10(%ebp),%eax
  11302a:	8b 40 30             	mov    0x30(%eax),%eax
  11302d:	50                   	push   %eax
  11302e:	6a 08                	push   $0x8
  113030:	6a 46                	push   $0x46
  113032:	6a 11                	push   $0x11
  113034:	e8 1d fd ff ff       	call   112d56 <write_hex>
  113039:	83 c4 10             	add    $0x10,%esp
  11303c:	8b 45 10             	mov    0x10(%ebp),%eax
  11303f:	8b 40 40             	mov    0x40(%eax),%eax
  113042:	50                   	push   %eax
  113043:	6a 08                	push   $0x8
  113045:	6a 0a                	push   $0xa
  113047:	6a 13                	push   $0x13
  113049:	e8 08 fd ff ff       	call   112d56 <write_hex>
  11304e:	83 c4 10             	add    $0x10,%esp
  113051:	8b 45 10             	mov    0x10(%ebp),%eax
  113054:	8b 40 44             	mov    0x44(%eax),%eax
  113057:	50                   	push   %eax
  113058:	6a 08                	push   $0x8
  11305a:	6a 1e                	push   $0x1e
  11305c:	6a 13                	push   $0x13
  11305e:	e8 f3 fc ff ff       	call   112d56 <write_hex>
  113063:	83 c4 10             	add    $0x10,%esp
  113066:	8b 45 10             	mov    0x10(%ebp),%eax
  113069:	8b 40 3c             	mov    0x3c(%eax),%eax
  11306c:	50                   	push   %eax
  11306d:	6a 08                	push   $0x8
  11306f:	6a 32                	push   $0x32
  113071:	6a 13                	push   $0x13
  113073:	e8 de fc ff ff       	call   112d56 <write_hex>
  113078:	83 c4 10             	add    $0x10,%esp
  11307b:	8b 45 10             	mov    0x10(%ebp),%eax
  11307e:	8b 40 60             	mov    0x60(%eax),%eax
  113081:	50                   	push   %eax
  113082:	6a 04                	push   $0x4
  113084:	6a 48                	push   $0x48
  113086:	6a 13                	push   $0x13
  113088:	e8 c9 fc ff ff       	call   112d56 <write_hex>
  11308d:	83 c4 10             	add    $0x10,%esp
  113090:	8b 45 10             	mov    0x10(%ebp),%eax
  113093:	8b 40 54             	mov    0x54(%eax),%eax
  113096:	50                   	push   %eax
  113097:	6a 04                	push   $0x4
  113099:	6a 0c                	push   $0xc
  11309b:	6a 15                	push   $0x15
  11309d:	e8 b4 fc ff ff       	call   112d56 <write_hex>
  1130a2:	83 c4 10             	add    $0x10,%esp
  1130a5:	8b 45 10             	mov    0x10(%ebp),%eax
  1130a8:	8b 40 48             	mov    0x48(%eax),%eax
  1130ab:	50                   	push   %eax
  1130ac:	6a 04                	push   $0x4
  1130ae:	6a 20                	push   $0x20
  1130b0:	6a 15                	push   $0x15
  1130b2:	e8 9f fc ff ff       	call   112d56 <write_hex>
  1130b7:	83 c4 10             	add    $0x10,%esp
  1130ba:	8b 45 10             	mov    0x10(%ebp),%eax
  1130bd:	8b 40 58             	mov    0x58(%eax),%eax
  1130c0:	50                   	push   %eax
  1130c1:	6a 04                	push   $0x4
  1130c3:	6a 34                	push   $0x34
  1130c5:	6a 15                	push   $0x15
  1130c7:	e8 8a fc ff ff       	call   112d56 <write_hex>
  1130cc:	83 c4 10             	add    $0x10,%esp
  1130cf:	8b 45 10             	mov    0x10(%ebp),%eax
  1130d2:	8b 40 5c             	mov    0x5c(%eax),%eax
  1130d5:	50                   	push   %eax
  1130d6:	6a 04                	push   $0x4
  1130d8:	6a 48                	push   $0x48
  1130da:	6a 15                	push   $0x15
  1130dc:	e8 75 fc ff ff       	call   112d56 <write_hex>
  1130e1:	83 c4 10             	add    $0x10,%esp
  1130e4:	8b 45 10             	mov    0x10(%ebp),%eax
  1130e7:	8b 40 1c             	mov    0x1c(%eax),%eax
  1130ea:	50                   	push   %eax
  1130eb:	6a 08                	push   $0x8
  1130ed:	6a 1e                	push   $0x1e
  1130ef:	6a 17                	push   $0x17
  1130f1:	e8 60 fc ff ff       	call   112d56 <write_hex>
  1130f6:	83 c4 10             	add    $0x10,%esp
  1130f9:	8b 45 10             	mov    0x10(%ebp),%eax
  1130fc:	8b 40 64             	mov    0x64(%eax),%eax
  1130ff:	25 ff ff 00 00       	and    $0xffff,%eax
  113104:	83 e0 01             	and    $0x1,%eax
  113107:	50                   	push   %eax
  113108:	6a 01                	push   $0x1
  11310a:	6a 46                	push   $0x46
  11310c:	6a 17                	push   $0x17
  11310e:	e8 43 fc ff ff       	call   112d56 <write_hex>
  113113:	83 c4 10             	add    $0x10,%esp
  113116:	90                   	nop
  113117:	8b 5d fc             	mov    -0x4(%ebp),%ebx
  11311a:	89 ec                	mov    %ebp,%esp
  11311c:	5d                   	pop    %ebp
  11311d:	c3                   	ret    

0011311e <serial_recv>:
  11311e:	55                   	push   %ebp
  11311f:	89 e5                	mov    %esp,%ebp
  113121:	83 ec 08             	sub    $0x8,%esp
  113124:	e8 97 d9 ff ff       	call   110ac0 <read_com1>
  113129:	89 ec                	mov    %ebp,%esp
  11312b:	5d                   	pop    %ebp
  11312c:	c3                   	ret    

0011312d <serial_send>:
  11312d:	55                   	push   %ebp
  11312e:	89 e5                	mov    %esp,%ebp
  113130:	83 ec 08             	sub    $0x8,%esp
  113133:	83 ec 0c             	sub    $0xc,%esp
  113136:	ff 75 08             	push   0x8(%ebp)
  113139:	e8 45 d9 ff ff       	call   110a83 <write_com1>
  11313e:	83 c4 10             	add    $0x10,%esp
  113141:	90                   	nop
  113142:	89 ec                	mov    %ebp,%esp
  113144:	5d                   	pop    %ebp
  113145:	c3                   	ret    

00113146 <enable_debugger>:
  113146:	55                   	push   %ebp
  113147:	89 e5                	mov    %esp,%ebp
  113149:	c7 05 bc 12 13 00 01 	movl   $0x1,0x1312bc
  113150:	00 00 00 
  113153:	c7 05 c0 12 13 00 1e 	movl   $0x11311e,0x1312c0
  11315a:	31 11 00 
  11315d:	c7 05 c4 12 13 00 2d 	movl   $0x11312d,0x1312c4
  113164:	31 11 00 
  113167:	90                   	nop
  113168:	5d                   	pop    %ebp
  113169:	c3                   	ret    

0011316a <tss_sel_2_tss>:
  11316a:	55                   	push   %ebp
  11316b:	89 e5                	mov    %esp,%ebp
  11316d:	83 ec 14             	sub    $0x14,%esp
  113170:	8b 45 08             	mov    0x8(%ebp),%eax
  113173:	66 89 45 ec          	mov    %ax,-0x14(%ebp)
  113177:	8b 45 ec             	mov    -0x14(%ebp),%eax
  11317a:	66 c1 e8 03          	shr    $0x3,%ax
  11317e:	25 ff ff 00 00       	and    $0xffff,%eax
  113183:	c1 e0 03             	shl    $0x3,%eax
  113186:	05 00 00 01 00       	add    $0x10000,%eax
  11318b:	89 45 fc             	mov    %eax,-0x4(%ebp)
  11318e:	8b 45 fc             	mov    -0x4(%ebp),%eax
  113191:	83 c0 02             	add    $0x2,%eax
  113194:	8b 00                	mov    (%eax),%eax
  113196:	25 ff ff ff 00       	and    $0xffffff,%eax
  11319b:	89 45 f8             	mov    %eax,-0x8(%ebp)
  11319e:	8b 45 fc             	mov    -0x4(%ebp),%eax
  1131a1:	83 c0 07             	add    $0x7,%eax
  1131a4:	8a 00                	mov    (%eax),%al
  1131a6:	25 ff 00 00 00       	and    $0xff,%eax
  1131ab:	c1 e0 18             	shl    $0x18,%eax
  1131ae:	01 45 f8             	add    %eax,-0x8(%ebp)
  1131b1:	8b 45 f8             	mov    -0x8(%ebp),%eax
  1131b4:	89 ec                	mov    %ebp,%esp
  1131b6:	5d                   	pop    %ebp
  1131b7:	c3                   	ret    

001131b8 <trap_handler>:
  1131b8:	55                   	push   %ebp
  1131b9:	89 e5                	mov    %esp,%ebp
  1131bb:	81 ec b8 0f 00 00    	sub    $0xfb8,%esp
  1131c1:	0f 00 c8             	str    %eax
  1131c4:	89 45 f0             	mov    %eax,-0x10(%ebp)
  1131c7:	8b 45 f0             	mov    -0x10(%ebp),%eax
  1131ca:	25 ff ff 00 00       	and    $0xffff,%eax
  1131cf:	50                   	push   %eax
  1131d0:	e8 95 ff ff ff       	call   11316a <tss_sel_2_tss>
  1131d5:	83 c4 04             	add    $0x4,%esp
  1131d8:	8b 00                	mov    (%eax),%eax
  1131da:	25 ff ff 00 00       	and    $0xffff,%eax
  1131df:	50                   	push   %eax
  1131e0:	e8 85 ff ff ff       	call   11316a <tss_sel_2_tss>
  1131e5:	83 c4 04             	add    $0x4,%esp
  1131e8:	89 45 ec             	mov    %eax,-0x14(%ebp)
  1131eb:	a1 bc 12 13 00       	mov    0x1312bc,%eax
  1131f0:	85 c0                	test   %eax,%eax
  1131f2:	74 19                	je     11320d <trap_handler+0x55>
  1131f4:	83 ec 04             	sub    $0x4,%esp
  1131f7:	ff 75 ec             	push   -0x14(%ebp)
  1131fa:	ff 75 0c             	push   0xc(%ebp)
  1131fd:	ff 75 08             	push   0x8(%ebp)
  113200:	e8 39 f9 ff ff       	call   112b3e <debugger>
  113205:	83 c4 10             	add    $0x10,%esp
  113208:	e9 5c 01 00 00       	jmp    113369 <trap_handler+0x1b1>
  11320d:	c6 45 f7 01          	movb   $0x1,-0x9(%ebp)
  113211:	8b 15 50 a1 11 00    	mov    0x11a150,%edx
  113217:	8d 85 4b f0 ff ff    	lea    -0xfb5(%ebp),%eax
  11321d:	b9 a0 0f 00 00       	mov    $0xfa0,%ecx
  113222:	83 ec 04             	sub    $0x4,%esp
  113225:	51                   	push   %ecx
  113226:	52                   	push   %edx
  113227:	50                   	push   %eax
  113228:	e8 3d c3 ff ff       	call   10f56a <memcpy>
  11322d:	83 c4 10             	add    $0x10,%esp
  113230:	83 ec 04             	sub    $0x4,%esp
  113233:	ff 75 ec             	push   -0x14(%ebp)
  113236:	ff 75 0c             	push   0xc(%ebp)
  113239:	ff 75 08             	push   0x8(%ebp)
  11323c:	e8 ba fb ff ff       	call   112dfb <dump_registers>
  113241:	83 c4 10             	add    $0x10,%esp
  113244:	83 ec 0c             	sub    $0xc,%esp
  113247:	6a 60                	push   $0x60
  113249:	e8 d3 f8 ff ff       	call   112b21 <inb>
  11324e:	83 c4 10             	add    $0x10,%esp
  113251:	88 45 eb             	mov    %al,-0x15(%ebp)
  113254:	0f be 45 eb          	movsbl -0x15(%ebp),%eax
  113258:	83 f8 39             	cmp    $0x39,%eax
  11325b:	74 22                	je     11327f <trap_handler+0xc7>
  11325d:	83 f8 39             	cmp    $0x39,%eax
  113260:	7f e2                	jg     113244 <trap_handler+0x8c>
  113262:	83 f8 20             	cmp    $0x20,%eax
  113265:	0f 84 ac 00 00 00    	je     113317 <trap_handler+0x15f>
  11326b:	83 f8 20             	cmp    $0x20,%eax
  11326e:	7f d4                	jg     113244 <trap_handler+0x8c>
  113270:	83 f8 01             	cmp    $0x1,%eax
  113273:	74 67                	je     1132dc <trap_handler+0x124>
  113275:	83 f8 17             	cmp    $0x17,%eax
  113278:	74 69                	je     1132e3 <trap_handler+0x12b>
  11327a:	e9 e5 00 00 00       	jmp    113364 <trap_handler+0x1ac>
  11327f:	8a 55 f7             	mov    -0x9(%ebp),%dl
  113282:	b0 01                	mov    $0x1,%al
  113284:	29 d0                	sub    %edx,%eax
  113286:	88 45 f7             	mov    %al,-0x9(%ebp)
  113289:	80 7d f7 00          	cmpb   $0x0,-0x9(%ebp)
  11328d:	74 16                	je     1132a5 <trap_handler+0xed>
  11328f:	83 ec 04             	sub    $0x4,%esp
  113292:	ff 75 ec             	push   -0x14(%ebp)
  113295:	ff 75 0c             	push   0xc(%ebp)
  113298:	ff 75 08             	push   0x8(%ebp)
  11329b:	e8 5b fb ff ff       	call   112dfb <dump_registers>
  1132a0:	83 c4 10             	add    $0x10,%esp
  1132a3:	eb 20                	jmp    1132c5 <trap_handler+0x10d>
  1132a5:	a1 50 a1 11 00       	mov    0x11a150,%eax
  1132aa:	89 c2                	mov    %eax,%edx
  1132ac:	8d 85 4b f0 ff ff    	lea    -0xfb5(%ebp),%eax
  1132b2:	b9 a0 0f 00 00       	mov    $0xfa0,%ecx
  1132b7:	83 ec 04             	sub    $0x4,%esp
  1132ba:	51                   	push   %ecx
  1132bb:	50                   	push   %eax
  1132bc:	52                   	push   %edx
  1132bd:	e8 a8 c2 ff ff       	call   10f56a <memcpy>
  1132c2:	83 c4 10             	add    $0x10,%esp
  1132c5:	90                   	nop
  1132c6:	83 ec 0c             	sub    $0xc,%esp
  1132c9:	6a 60                	push   $0x60
  1132cb:	e8 51 f8 ff ff       	call   112b21 <inb>
  1132d0:	83 c4 10             	add    $0x10,%esp
  1132d3:	3c 39                	cmp    $0x39,%al
  1132d5:	74 ef                	je     1132c6 <trap_handler+0x10e>
  1132d7:	e9 88 00 00 00       	jmp    113364 <trap_handler+0x1ac>
  1132dc:	e8 ae b3 ff ff       	call   10e68f <reboot>
  1132e1:	eb fe                	jmp    1132e1 <trap_handler+0x129>
  1132e3:	a1 50 a1 11 00       	mov    0x11a150,%eax
  1132e8:	89 c2                	mov    %eax,%edx
  1132ea:	8d 85 4b f0 ff ff    	lea    -0xfb5(%ebp),%eax
  1132f0:	b9 a0 0f 00 00       	mov    $0xfa0,%ecx
  1132f5:	83 ec 04             	sub    $0x4,%esp
  1132f8:	51                   	push   %ecx
  1132f9:	50                   	push   %eax
  1132fa:	52                   	push   %edx
  1132fb:	e8 6a c2 ff ff       	call   10f56a <memcpy>
  113300:	83 c4 10             	add    $0x10,%esp
  113303:	90                   	nop
  113304:	83 ec 0c             	sub    $0xc,%esp
  113307:	6a 60                	push   $0x60
  113309:	e8 13 f8 ff ff       	call   112b21 <inb>
  11330e:	83 c4 10             	add    $0x10,%esp
  113311:	3c 17                	cmp    $0x17,%al
  113313:	74 ef                	je     113304 <trap_handler+0x14c>
  113315:	eb 52                	jmp    113369 <trap_handler+0x1b1>
  113317:	a1 50 a1 11 00       	mov    0x11a150,%eax
  11331c:	89 c2                	mov    %eax,%edx
  11331e:	8d 85 4b f0 ff ff    	lea    -0xfb5(%ebp),%eax
  113324:	b9 a0 0f 00 00       	mov    $0xfa0,%ecx
  113329:	83 ec 04             	sub    $0x4,%esp
  11332c:	51                   	push   %ecx
  11332d:	50                   	push   %eax
  11332e:	52                   	push   %edx
  11332f:	e8 36 c2 ff ff       	call   10f56a <memcpy>
  113334:	83 c4 10             	add    $0x10,%esp
  113337:	90                   	nop
  113338:	83 ec 0c             	sub    $0xc,%esp
  11333b:	6a 60                	push   $0x60
  11333d:	e8 df f7 ff ff       	call   112b21 <inb>
  113342:	83 c4 10             	add    $0x10,%esp
  113345:	3c 20                	cmp    $0x20,%al
  113347:	74 ef                	je     113338 <trap_handler+0x180>
  113349:	e8 f8 fd ff ff       	call   113146 <enable_debugger>
  11334e:	83 ec 04             	sub    $0x4,%esp
  113351:	ff 75 ec             	push   -0x14(%ebp)
  113354:	ff 75 0c             	push   0xc(%ebp)
  113357:	ff 75 08             	push   0x8(%ebp)
  11335a:	e8 df f7 ff ff       	call   112b3e <debugger>
  11335f:	83 c4 10             	add    $0x10,%esp
  113362:	eb 05                	jmp    113369 <trap_handler+0x1b1>
  113364:	e9 db fe ff ff       	jmp    113244 <trap_handler+0x8c>
  113369:	89 ec                	mov    %ebp,%esp
  11336b:	5d                   	pop    %ebp
  11336c:	c3                   	ret    

0011336d <hex>:
  11336d:	55                   	push   %ebp
  11336e:	89 e5                	mov    %esp,%ebp
  113370:	83 ec 04             	sub    $0x4,%esp
  113373:	8b 45 08             	mov    0x8(%ebp),%eax
  113376:	88 45 fc             	mov    %al,-0x4(%ebp)
  113379:	80 7d fc 2f          	cmpb   $0x2f,-0x4(%ebp)
  11337d:	7e 0f                	jle    11338e <hex+0x21>
  11337f:	80 7d fc 39          	cmpb   $0x39,-0x4(%ebp)
  113383:	7f 09                	jg     11338e <hex+0x21>
  113385:	0f be 45 fc          	movsbl -0x4(%ebp),%eax
  113389:	83 e8 30             	sub    $0x30,%eax
  11338c:	eb 2f                	jmp    1133bd <hex+0x50>
  11338e:	80 7d fc 60          	cmpb   $0x60,-0x4(%ebp)
  113392:	7e 0f                	jle    1133a3 <hex+0x36>
  113394:	80 7d fc 66          	cmpb   $0x66,-0x4(%ebp)
  113398:	7f 09                	jg     1133a3 <hex+0x36>
  11339a:	0f be 45 fc          	movsbl -0x4(%ebp),%eax
  11339e:	83 e8 57             	sub    $0x57,%eax
  1133a1:	eb 1a                	jmp    1133bd <hex+0x50>
  1133a3:	80 7d fc 40          	cmpb   $0x40,-0x4(%ebp)
  1133a7:	7e 0f                	jle    1133b8 <hex+0x4b>
  1133a9:	80 7d fc 46          	cmpb   $0x46,-0x4(%ebp)
  1133ad:	7f 09                	jg     1133b8 <hex+0x4b>
  1133af:	0f be 45 fc          	movsbl -0x4(%ebp),%eax
  1133b3:	83 e8 37             	sub    $0x37,%eax
  1133b6:	eb 05                	jmp    1133bd <hex+0x50>
  1133b8:	b8 ff ff ff ff       	mov    $0xffffffff,%eax
  1133bd:	89 ec                	mov    %ebp,%esp
  1133bf:	5d                   	pop    %ebp
  1133c0:	c3                   	ret    

001133c1 <hex2bin>:
  1133c1:	55                   	push   %ebp
  1133c2:	89 e5                	mov    %esp,%ebp
  1133c4:	53                   	push   %ebx
  1133c5:	83 ec 10             	sub    $0x10,%esp
  1133c8:	eb 4c                	jmp    113416 <hex2bin+0x55>
  1133ca:	8b 45 08             	mov    0x8(%ebp),%eax
  1133cd:	8a 00                	mov    (%eax),%al
  1133cf:	0f be c0             	movsbl %al,%eax
  1133d2:	50                   	push   %eax
  1133d3:	e8 95 ff ff ff       	call   11336d <hex>
  1133d8:	83 c4 04             	add    $0x4,%esp
  1133db:	c1 e0 04             	shl    $0x4,%eax
  1133de:	89 c3                	mov    %eax,%ebx
  1133e0:	8b 45 08             	mov    0x8(%ebp),%eax
  1133e3:	40                   	inc    %eax
  1133e4:	8a 00                	mov    (%eax),%al
  1133e6:	0f be c0             	movsbl %al,%eax
  1133e9:	50                   	push   %eax
  1133ea:	e8 7e ff ff ff       	call   11336d <hex>
  1133ef:	83 c4 04             	add    $0x4,%esp
  1133f2:	09 d8                	or     %ebx,%eax
  1133f4:	89 45 f8             	mov    %eax,-0x8(%ebp)
  1133f7:	83 7d f8 00          	cmpl   $0x0,-0x8(%ebp)
  1133fb:	79 07                	jns    113404 <hex2bin+0x43>
  1133fd:	b8 ff ff ff ff       	mov    $0xffffffff,%eax
  113402:	eb 24                	jmp    113428 <hex2bin+0x67>
  113404:	8b 45 0c             	mov    0xc(%ebp),%eax
  113407:	8d 50 01             	lea    0x1(%eax),%edx
  11340a:	89 55 0c             	mov    %edx,0xc(%ebp)
  11340d:	8b 55 f8             	mov    -0x8(%ebp),%edx
  113410:	88 10                	mov    %dl,(%eax)
  113412:	83 45 08 02          	addl   $0x2,0x8(%ebp)
  113416:	8b 45 10             	mov    0x10(%ebp),%eax
  113419:	8d 50 ff             	lea    -0x1(%eax),%edx
  11341c:	89 55 10             	mov    %edx,0x10(%ebp)
  11341f:	85 c0                	test   %eax,%eax
  113421:	75 a7                	jne    1133ca <hex2bin+0x9>
  113423:	b8 00 00 00 00       	mov    $0x0,%eax
  113428:	8b 5d fc             	mov    -0x4(%ebp),%ebx
  11342b:	89 ec                	mov    %ebp,%esp
  11342d:	5d                   	pop    %ebp
  11342e:	c3                   	ret    

0011342f <getpacket>:
  11342f:	55                   	push   %ebp
  113430:	89 e5                	mov    %esp,%ebp
  113432:	83 ec 18             	sub    $0x18,%esp
  113435:	90                   	nop
  113436:	a1 c0 12 13 00       	mov    0x1312c0,%eax
  11343b:	ff d0                	call   *%eax
  11343d:	83 e0 7f             	and    $0x7f,%eax
  113440:	88 45 eb             	mov    %al,-0x15(%ebp)
  113443:	80 7d eb 24          	cmpb   $0x24,-0x15(%ebp)
  113447:	75 ed                	jne    113436 <getpacket+0x7>
  113449:	c6 45 f7 00          	movb   $0x0,-0x9(%ebp)
  11344d:	c6 45 f6 ff          	movb   $0xff,-0xa(%ebp)
  113451:	c7 45 ec 00 00 00 00 	movl   $0x0,-0x14(%ebp)
  113458:	eb 3d                	jmp    113497 <getpacket+0x68>
  11345a:	a1 c0 12 13 00       	mov    0x1312c0,%eax
  11345f:	ff d0                	call   *%eax
  113461:	88 45 eb             	mov    %al,-0x15(%ebp)
  113464:	80 7d eb 23          	cmpb   $0x23,-0x15(%ebp)
  113468:	75 17                	jne    113481 <getpacket+0x52>
  11346a:	83 7d ec 00          	cmpl   $0x0,-0x14(%ebp)
  11346e:	74 30                	je     1134a0 <getpacket+0x71>
  113470:	8b 45 ec             	mov    -0x14(%ebp),%eax
  113473:	8d 50 ff             	lea    -0x1(%eax),%edx
  113476:	8b 45 08             	mov    0x8(%ebp),%eax
  113479:	01 d0                	add    %edx,%eax
  11347b:	8a 00                	mov    (%eax),%al
  11347d:	3c 7d                	cmp    $0x7d,%al
  11347f:	75 1f                	jne    1134a0 <getpacket+0x71>
  113481:	8a 45 eb             	mov    -0x15(%ebp),%al
  113484:	00 45 f7             	add    %al,-0x9(%ebp)
  113487:	8b 55 ec             	mov    -0x14(%ebp),%edx
  11348a:	8b 45 08             	mov    0x8(%ebp),%eax
  11348d:	01 c2                	add    %eax,%edx
  11348f:	8a 45 eb             	mov    -0x15(%ebp),%al
  113492:	88 02                	mov    %al,(%edx)
  113494:	ff 45 ec             	incl   -0x14(%ebp)
  113497:	81 7d ec 8f 01 00 00 	cmpl   $0x18f,-0x14(%ebp)
  11349e:	7e ba                	jle    11345a <getpacket+0x2b>
  1134a0:	8b 55 ec             	mov    -0x14(%ebp),%edx
  1134a3:	8b 45 08             	mov    0x8(%ebp),%eax
  1134a6:	01 d0                	add    %edx,%eax
  1134a8:	c6 00 00             	movb   $0x0,(%eax)
  1134ab:	80 7d eb 23          	cmpb   $0x23,-0x15(%ebp)
  1134af:	0f 85 d5 00 00 00    	jne    11358a <getpacket+0x15b>
  1134b5:	a1 c0 12 13 00       	mov    0x1312c0,%eax
  1134ba:	ff d0                	call   *%eax
  1134bc:	0f be c0             	movsbl %al,%eax
  1134bf:	83 ec 0c             	sub    $0xc,%esp
  1134c2:	50                   	push   %eax
  1134c3:	e8 a5 fe ff ff       	call   11336d <hex>
  1134c8:	83 c4 10             	add    $0x10,%esp
  1134cb:	c1 e0 04             	shl    $0x4,%eax
  1134ce:	88 45 f6             	mov    %al,-0xa(%ebp)
  1134d1:	a1 c0 12 13 00       	mov    0x1312c0,%eax
  1134d6:	ff d0                	call   *%eax
  1134d8:	0f be c0             	movsbl %al,%eax
  1134db:	83 ec 0c             	sub    $0xc,%esp
  1134de:	50                   	push   %eax
  1134df:	e8 89 fe ff ff       	call   11336d <hex>
  1134e4:	83 c4 10             	add    $0x10,%esp
  1134e7:	00 45 f6             	add    %al,-0xa(%ebp)
  1134ea:	8a 45 f7             	mov    -0x9(%ebp),%al
  1134ed:	3a 45 f6             	cmp    -0xa(%ebp),%al
  1134f0:	74 14                	je     113506 <getpacket+0xd7>
  1134f2:	a1 c4 12 13 00       	mov    0x1312c4,%eax
  1134f7:	83 ec 0c             	sub    $0xc,%esp
  1134fa:	6a 2d                	push   $0x2d
  1134fc:	ff d0                	call   *%eax
  1134fe:	83 c4 10             	add    $0x10,%esp
  113501:	e9 84 00 00 00       	jmp    11358a <getpacket+0x15b>
  113506:	a1 c4 12 13 00       	mov    0x1312c4,%eax
  11350b:	83 ec 0c             	sub    $0xc,%esp
  11350e:	6a 2b                	push   $0x2b
  113510:	ff d0                	call   *%eax
  113512:	83 c4 10             	add    $0x10,%esp
  113515:	8b 45 08             	mov    0x8(%ebp),%eax
  113518:	83 c0 02             	add    $0x2,%eax
  11351b:	8a 00                	mov    (%eax),%al
  11351d:	3c 3a                	cmp    $0x3a,%al
  11351f:	75 69                	jne    11358a <getpacket+0x15b>
  113521:	a1 c4 12 13 00       	mov    0x1312c4,%eax
  113526:	8b 55 08             	mov    0x8(%ebp),%edx
  113529:	8a 12                	mov    (%edx),%dl
  11352b:	0f be d2             	movsbl %dl,%edx
  11352e:	83 ec 0c             	sub    $0xc,%esp
  113531:	52                   	push   %edx
  113532:	ff d0                	call   *%eax
  113534:	83 c4 10             	add    $0x10,%esp
  113537:	a1 c4 12 13 00       	mov    0x1312c4,%eax
  11353c:	8b 55 08             	mov    0x8(%ebp),%edx
  11353f:	42                   	inc    %edx
  113540:	8a 12                	mov    (%edx),%dl
  113542:	0f be d2             	movsbl %dl,%edx
  113545:	83 ec 0c             	sub    $0xc,%esp
  113548:	52                   	push   %edx
  113549:	ff d0                	call   *%eax
  11354b:	83 c4 10             	add    $0x10,%esp
  11354e:	83 ec 0c             	sub    $0xc,%esp
  113551:	ff 75 08             	push   0x8(%ebp)
  113554:	e8 32 c4 ff ff       	call   10f98b <strlen>
  113559:	83 c4 10             	add    $0x10,%esp
  11355c:	89 45 ec             	mov    %eax,-0x14(%ebp)
  11355f:	c7 45 f0 03 00 00 00 	movl   $0x3,-0x10(%ebp)
  113566:	eb 1a                	jmp    113582 <getpacket+0x153>
  113568:	8b 55 f0             	mov    -0x10(%ebp),%edx
  11356b:	8b 45 08             	mov    0x8(%ebp),%eax
  11356e:	01 d0                	add    %edx,%eax
  113570:	8b 55 f0             	mov    -0x10(%ebp),%edx
  113573:	8d 4a fd             	lea    -0x3(%edx),%ecx
  113576:	8b 55 08             	mov    0x8(%ebp),%edx
  113579:	01 ca                	add    %ecx,%edx
  11357b:	8a 00                	mov    (%eax),%al
  11357d:	88 02                	mov    %al,(%edx)
  11357f:	ff 45 f0             	incl   -0x10(%ebp)
  113582:	8b 45 f0             	mov    -0x10(%ebp),%eax
  113585:	3b 45 ec             	cmp    -0x14(%ebp),%eax
  113588:	7e de                	jle    113568 <getpacket+0x139>
  11358a:	8a 45 f7             	mov    -0x9(%ebp),%al
  11358d:	3a 45 f6             	cmp    -0xa(%ebp),%al
  113590:	0f 85 9f fe ff ff    	jne    113435 <getpacket+0x6>
  113596:	90                   	nop
  113597:	90                   	nop
  113598:	89 ec                	mov    %ebp,%esp
  11359a:	5d                   	pop    %ebp
  11359b:	c3                   	ret    

0011359c <putfrags>:
  11359c:	55                   	push   %ebp
  11359d:	89 e5                	mov    %esp,%ebp
  11359f:	83 ec 28             	sub    $0x28,%esp
  1135a2:	c6 45 f7 00          	movb   $0x0,-0x9(%ebp)
  1135a6:	a1 c4 12 13 00       	mov    0x1312c4,%eax
  1135ab:	83 ec 0c             	sub    $0xc,%esp
  1135ae:	6a 24                	push   $0x24
  1135b0:	ff d0                	call   *%eax
  1135b2:	83 c4 10             	add    $0x10,%esp
  1135b5:	8b 45 08             	mov    0x8(%ebp),%eax
  1135b8:	89 45 f0             	mov    %eax,-0x10(%ebp)
  1135bb:	e9 d3 02 00 00       	jmp    113893 <putfrags+0x2f7>
  1135c0:	8b 45 f0             	mov    -0x10(%ebp),%eax
  1135c3:	8b 00                	mov    (%eax),%eax
  1135c5:	89 45 ec             	mov    %eax,-0x14(%ebp)
  1135c8:	e9 91 02 00 00       	jmp    11385e <putfrags+0x2c2>
  1135cd:	8b 45 f0             	mov    -0x10(%ebp),%eax
  1135d0:	8b 40 04             	mov    0x4(%eax),%eax
  1135d3:	85 c0                	test   %eax,%eax
  1135d5:	74 31                	je     113608 <putfrags+0x6c>
  1135d7:	8b 45 f0             	mov    -0x10(%ebp),%eax
  1135da:	8b 40 08             	mov    0x8(%eax),%eax
  1135dd:	85 c0                	test   %eax,%eax
  1135df:	74 07                	je     1135e8 <putfrags+0x4c>
  1135e1:	ba 01 00 00 00       	mov    $0x1,%edx
  1135e6:	eb 05                	jmp    1135ed <putfrags+0x51>
  1135e8:	ba 03 00 00 00       	mov    $0x3,%edx
  1135ed:	8b 45 ec             	mov    -0x14(%ebp),%eax
  1135f0:	8d 0c 02             	lea    (%edx,%eax,1),%ecx
  1135f3:	8b 45 f0             	mov    -0x10(%ebp),%eax
  1135f6:	8b 10                	mov    (%eax),%edx
  1135f8:	8b 45 f0             	mov    -0x10(%ebp),%eax
  1135fb:	8b 40 04             	mov    0x4(%eax),%eax
  1135fe:	01 d0                	add    %edx,%eax
  113600:	39 c1                	cmp    %eax,%ecx
  113602:	0f 83 ad 01 00 00    	jae    1137b5 <putfrags+0x219>
  113608:	8b 45 ec             	mov    -0x14(%ebp),%eax
  11360b:	40                   	inc    %eax
  11360c:	8a 10                	mov    (%eax),%dl
  11360e:	8b 45 ec             	mov    -0x14(%ebp),%eax
  113611:	8a 00                	mov    (%eax),%al
  113613:	38 c2                	cmp    %al,%dl
  113615:	0f 85 9a 01 00 00    	jne    1137b5 <putfrags+0x219>
  11361b:	8b 45 f0             	mov    -0x10(%ebp),%eax
  11361e:	8b 40 08             	mov    0x8(%eax),%eax
  113621:	85 c0                	test   %eax,%eax
  113623:	74 22                	je     113647 <putfrags+0xab>
  113625:	8b 45 ec             	mov    -0x14(%ebp),%eax
  113628:	8a 00                	mov    (%eax),%al
  11362a:	c0 e8 04             	shr    $0x4,%al
  11362d:	31 d2                	xor    %edx,%edx
  11362f:	88 c2                	mov    %al,%dl
  113631:	8b 45 ec             	mov    -0x14(%ebp),%eax
  113634:	8a 00                	mov    (%eax),%al
  113636:	25 ff 00 00 00       	and    $0xff,%eax
  11363b:	83 e0 0f             	and    $0xf,%eax
  11363e:	39 c2                	cmp    %eax,%edx
  113640:	74 3e                	je     113680 <putfrags+0xe4>
  113642:	e9 6e 01 00 00       	jmp    1137b5 <putfrags+0x219>
  113647:	8b 45 ec             	mov    -0x14(%ebp),%eax
  11364a:	83 c0 02             	add    $0x2,%eax
  11364d:	8a 10                	mov    (%eax),%dl
  11364f:	8b 45 ec             	mov    -0x14(%ebp),%eax
  113652:	8a 00                	mov    (%eax),%al
  113654:	38 c2                	cmp    %al,%dl
  113656:	75 18                	jne    113670 <putfrags+0xd4>
  113658:	8b 45 ec             	mov    -0x14(%ebp),%eax
  11365b:	83 c0 03             	add    $0x3,%eax
  11365e:	8a 10                	mov    (%eax),%dl
  113660:	8b 45 ec             	mov    -0x14(%ebp),%eax
  113663:	8a 00                	mov    (%eax),%al
  113665:	38 c2                	cmp    %al,%dl
  113667:	75 07                	jne    113670 <putfrags+0xd4>
  113669:	b8 01 00 00 00       	mov    $0x1,%eax
  11366e:	eb 05                	jmp    113675 <putfrags+0xd9>
  113670:	b8 00 00 00 00       	mov    $0x0,%eax
  113675:	83 e0 01             	and    $0x1,%eax
  113678:	84 c0                	test   %al,%al
  11367a:	0f 84 35 01 00 00    	je     1137b5 <putfrags+0x219>
  113680:	8b 45 f0             	mov    -0x10(%ebp),%eax
  113683:	8b 40 08             	mov    0x8(%eax),%eax
  113686:	85 c0                	test   %eax,%eax
  113688:	74 14                	je     11369e <putfrags+0x102>
  11368a:	8b 45 ec             	mov    -0x14(%ebp),%eax
  11368d:	83 c0 02             	add    $0x2,%eax
  113690:	89 45 e8             	mov    %eax,-0x18(%ebp)
  113693:	8b 45 ec             	mov    -0x14(%ebp),%eax
  113696:	83 c0 31             	add    $0x31,%eax
  113699:	89 45 e4             	mov    %eax,-0x1c(%ebp)
  11369c:	eb 12                	jmp    1136b0 <putfrags+0x114>
  11369e:	8b 45 ec             	mov    -0x14(%ebp),%eax
  1136a1:	83 c0 04             	add    $0x4,%eax
  1136a4:	89 45 e8             	mov    %eax,-0x18(%ebp)
  1136a7:	8b 45 ec             	mov    -0x14(%ebp),%eax
  1136aa:	83 c0 62             	add    $0x62,%eax
  1136ad:	89 45 e4             	mov    %eax,-0x1c(%ebp)
  1136b0:	8b 45 f0             	mov    -0x10(%ebp),%eax
  1136b3:	8b 40 04             	mov    0x4(%eax),%eax
  1136b6:	85 c0                	test   %eax,%eax
  1136b8:	74 27                	je     1136e1 <putfrags+0x145>
  1136ba:	8b 45 f0             	mov    -0x10(%ebp),%eax
  1136bd:	8b 10                	mov    (%eax),%edx
  1136bf:	8b 45 f0             	mov    -0x10(%ebp),%eax
  1136c2:	8b 40 04             	mov    0x4(%eax),%eax
  1136c5:	01 d0                	add    %edx,%eax
  1136c7:	39 45 e4             	cmp    %eax,-0x1c(%ebp)
  1136ca:	76 15                	jbe    1136e1 <putfrags+0x145>
  1136cc:	8b 45 f0             	mov    -0x10(%ebp),%eax
  1136cf:	8b 10                	mov    (%eax),%edx
  1136d1:	8b 45 f0             	mov    -0x10(%ebp),%eax
  1136d4:	8b 40 04             	mov    0x4(%eax),%eax
  1136d7:	01 d0                	add    %edx,%eax
  1136d9:	89 45 e4             	mov    %eax,-0x1c(%ebp)
  1136dc:	eb 03                	jmp    1136e1 <putfrags+0x145>
  1136de:	ff 45 e8             	incl   -0x18(%ebp)
  1136e1:	8b 45 e8             	mov    -0x18(%ebp),%eax
  1136e4:	3b 45 e4             	cmp    -0x1c(%ebp),%eax
  1136e7:	73 0e                	jae    1136f7 <putfrags+0x15b>
  1136e9:	8b 45 e8             	mov    -0x18(%ebp),%eax
  1136ec:	8a 10                	mov    (%eax),%dl
  1136ee:	8b 45 ec             	mov    -0x14(%ebp),%eax
  1136f1:	8a 00                	mov    (%eax),%al
  1136f3:	38 c2                	cmp    %al,%dl
  1136f5:	74 e7                	je     1136de <putfrags+0x142>
  1136f7:	8b 45 f0             	mov    -0x10(%ebp),%eax
  1136fa:	8b 40 08             	mov    0x8(%eax),%eax
  1136fd:	85 c0                	test   %eax,%eax
  1136ff:	74 48                	je     113749 <putfrags+0x1ad>
  113701:	8b 45 e8             	mov    -0x18(%ebp),%eax
  113704:	2b 45 ec             	sub    -0x14(%ebp),%eax
  113707:	01 c0                	add    %eax,%eax
  113709:	89 45 e0             	mov    %eax,-0x20(%ebp)
  11370c:	8b 15 c4 12 13 00    	mov    0x1312c4,%edx
  113712:	8b 45 ec             	mov    -0x14(%ebp),%eax
  113715:	8a 00                	mov    (%eax),%al
  113717:	25 ff 00 00 00       	and    $0xff,%eax
  11371c:	83 e0 0f             	and    $0xf,%eax
  11371f:	8a 80 04 76 11 00    	mov    0x117604(%eax),%al
  113725:	0f be c0             	movsbl %al,%eax
  113728:	83 ec 0c             	sub    $0xc,%esp
  11372b:	50                   	push   %eax
  11372c:	ff d2                	call   *%edx
  11372e:	83 c4 10             	add    $0x10,%esp
  113731:	8b 45 ec             	mov    -0x14(%ebp),%eax
  113734:	8a 00                	mov    (%eax),%al
  113736:	25 ff 00 00 00       	and    $0xff,%eax
  11373b:	83 e0 0f             	and    $0xf,%eax
  11373e:	8a 80 04 76 11 00    	mov    0x117604(%eax),%al
  113744:	00 45 f7             	add    %al,-0x9(%ebp)
  113747:	eb 2a                	jmp    113773 <putfrags+0x1d7>
  113749:	8b 45 e8             	mov    -0x18(%ebp),%eax
  11374c:	2b 45 ec             	sub    -0x14(%ebp),%eax
  11374f:	89 45 e0             	mov    %eax,-0x20(%ebp)
  113752:	8b 15 c4 12 13 00    	mov    0x1312c4,%edx
  113758:	8b 45 ec             	mov    -0x14(%ebp),%eax
  11375b:	8a 00                	mov    (%eax),%al
  11375d:	25 ff 00 00 00       	and    $0xff,%eax
  113762:	83 ec 0c             	sub    $0xc,%esp
  113765:	50                   	push   %eax
  113766:	ff d2                	call   *%edx
  113768:	83 c4 10             	add    $0x10,%esp
  11376b:	8b 45 ec             	mov    -0x14(%ebp),%eax
  11376e:	8a 00                	mov    (%eax),%al
  113770:	00 45 f7             	add    %al,-0x9(%ebp)
  113773:	a1 c4 12 13 00       	mov    0x1312c4,%eax
  113778:	83 ec 0c             	sub    $0xc,%esp
  11377b:	6a 2a                	push   $0x2a
  11377d:	ff d0                	call   *%eax
  11377f:	83 c4 10             	add    $0x10,%esp
  113782:	80 45 f7 2a          	addb   $0x2a,-0x9(%ebp)
  113786:	a1 c4 12 13 00       	mov    0x1312c4,%eax
  11378b:	8b 55 e0             	mov    -0x20(%ebp),%edx
  11378e:	83 c2 1c             	add    $0x1c,%edx
  113791:	83 ec 0c             	sub    $0xc,%esp
  113794:	52                   	push   %edx
  113795:	ff d0                	call   *%eax
  113797:	83 c4 10             	add    $0x10,%esp
  11379a:	8b 45 e0             	mov    -0x20(%ebp),%eax
  11379d:	88 c2                	mov    %al,%dl
  11379f:	8a 45 f7             	mov    -0x9(%ebp),%al
  1137a2:	01 d0                	add    %edx,%eax
  1137a4:	83 c0 1c             	add    $0x1c,%eax
  1137a7:	88 45 f7             	mov    %al,-0x9(%ebp)
  1137aa:	8b 45 e8             	mov    -0x18(%ebp),%eax
  1137ad:	89 45 ec             	mov    %eax,-0x14(%ebp)
  1137b0:	e9 a9 00 00 00       	jmp    11385e <putfrags+0x2c2>
  1137b5:	8b 45 f0             	mov    -0x10(%ebp),%eax
  1137b8:	8b 40 08             	mov    0x8(%eax),%eax
  1137bb:	85 c0                	test   %eax,%eax
  1137bd:	74 7b                	je     11383a <putfrags+0x29e>
  1137bf:	a1 c4 12 13 00       	mov    0x1312c4,%eax
  1137c4:	8b 55 ec             	mov    -0x14(%ebp),%edx
  1137c7:	8a 12                	mov    (%edx),%dl
  1137c9:	c0 ea 04             	shr    $0x4,%dl
  1137cc:	81 e2 ff 00 00 00    	and    $0xff,%edx
  1137d2:	8a 92 04 76 11 00    	mov    0x117604(%edx),%dl
  1137d8:	0f be d2             	movsbl %dl,%edx
  1137db:	83 ec 0c             	sub    $0xc,%esp
  1137de:	52                   	push   %edx
  1137df:	ff d0                	call   *%eax
  1137e1:	83 c4 10             	add    $0x10,%esp
  1137e4:	8b 45 ec             	mov    -0x14(%ebp),%eax
  1137e7:	8a 00                	mov    (%eax),%al
  1137e9:	c0 e8 04             	shr    $0x4,%al
  1137ec:	25 ff 00 00 00       	and    $0xff,%eax
  1137f1:	8a 80 04 76 11 00    	mov    0x117604(%eax),%al
  1137f7:	00 45 f7             	add    %al,-0x9(%ebp)
  1137fa:	8b 15 c4 12 13 00    	mov    0x1312c4,%edx
  113800:	8b 45 ec             	mov    -0x14(%ebp),%eax
  113803:	8a 00                	mov    (%eax),%al
  113805:	25 ff 00 00 00       	and    $0xff,%eax
  11380a:	83 e0 0f             	and    $0xf,%eax
  11380d:	8a 80 04 76 11 00    	mov    0x117604(%eax),%al
  113813:	0f be c0             	movsbl %al,%eax
  113816:	83 ec 0c             	sub    $0xc,%esp
  113819:	50                   	push   %eax
  11381a:	ff d2                	call   *%edx
  11381c:	83 c4 10             	add    $0x10,%esp
  11381f:	8b 45 ec             	mov    -0x14(%ebp),%eax
  113822:	8a 00                	mov    (%eax),%al
  113824:	25 ff 00 00 00       	and    $0xff,%eax
  113829:	83 e0 0f             	and    $0xf,%eax
  11382c:	8a 80 04 76 11 00    	mov    0x117604(%eax),%al
  113832:	00 45 f7             	add    %al,-0x9(%ebp)
  113835:	ff 45 ec             	incl   -0x14(%ebp)
  113838:	eb 24                	jmp    11385e <putfrags+0x2c2>
  11383a:	8b 15 c4 12 13 00    	mov    0x1312c4,%edx
  113840:	8b 45 ec             	mov    -0x14(%ebp),%eax
  113843:	8a 00                	mov    (%eax),%al
  113845:	25 ff 00 00 00       	and    $0xff,%eax
  11384a:	83 ec 0c             	sub    $0xc,%esp
  11384d:	50                   	push   %eax
  11384e:	ff d2                	call   *%edx
  113850:	83 c4 10             	add    $0x10,%esp
  113853:	8b 45 ec             	mov    -0x14(%ebp),%eax
  113856:	8a 00                	mov    (%eax),%al
  113858:	00 45 f7             	add    %al,-0x9(%ebp)
  11385b:	ff 45 ec             	incl   -0x14(%ebp)
  11385e:	8b 45 f0             	mov    -0x10(%ebp),%eax
  113861:	8b 40 04             	mov    0x4(%eax),%eax
  113864:	85 c0                	test   %eax,%eax
  113866:	74 15                	je     11387d <putfrags+0x2e1>
  113868:	8b 45 f0             	mov    -0x10(%ebp),%eax
  11386b:	8b 10                	mov    (%eax),%edx
  11386d:	8b 45 f0             	mov    -0x10(%ebp),%eax
  113870:	8b 40 04             	mov    0x4(%eax),%eax
  113873:	01 d0                	add    %edx,%eax
  113875:	39 45 ec             	cmp    %eax,-0x14(%ebp)
  113878:	0f 92 c0             	setb   %al
  11387b:	eb 0a                	jmp    113887 <putfrags+0x2eb>
  11387d:	8b 45 ec             	mov    -0x14(%ebp),%eax
  113880:	8a 00                	mov    (%eax),%al
  113882:	84 c0                	test   %al,%al
  113884:	0f 95 c0             	setne  %al
  113887:	84 c0                	test   %al,%al
  113889:	0f 85 3e fd ff ff    	jne    1135cd <putfrags+0x31>
  11388f:	83 45 f0 0c          	addl   $0xc,-0x10(%ebp)
  113893:	8b 55 0c             	mov    0xc(%ebp),%edx
  113896:	89 d0                	mov    %edx,%eax
  113898:	01 c0                	add    %eax,%eax
  11389a:	01 d0                	add    %edx,%eax
  11389c:	c1 e0 02             	shl    $0x2,%eax
  11389f:	89 c2                	mov    %eax,%edx
  1138a1:	8b 45 08             	mov    0x8(%ebp),%eax
  1138a4:	01 d0                	add    %edx,%eax
  1138a6:	39 45 f0             	cmp    %eax,-0x10(%ebp)
  1138a9:	0f 82 11 fd ff ff    	jb     1135c0 <putfrags+0x24>
  1138af:	a1 c4 12 13 00       	mov    0x1312c4,%eax
  1138b4:	83 ec 0c             	sub    $0xc,%esp
  1138b7:	6a 23                	push   $0x23
  1138b9:	ff d0                	call   *%eax
  1138bb:	83 c4 10             	add    $0x10,%esp
  1138be:	a1 c4 12 13 00       	mov    0x1312c4,%eax
  1138c3:	8a 55 f7             	mov    -0x9(%ebp),%dl
  1138c6:	c0 ea 04             	shr    $0x4,%dl
  1138c9:	81 e2 ff 00 00 00    	and    $0xff,%edx
  1138cf:	8a 92 04 76 11 00    	mov    0x117604(%edx),%dl
  1138d5:	0f be d2             	movsbl %dl,%edx
  1138d8:	83 ec 0c             	sub    $0xc,%esp
  1138db:	52                   	push   %edx
  1138dc:	ff d0                	call   *%eax
  1138de:	83 c4 10             	add    $0x10,%esp
  1138e1:	8b 15 c4 12 13 00    	mov    0x1312c4,%edx
  1138e7:	8a 45 f7             	mov    -0x9(%ebp),%al
  1138ea:	25 ff 00 00 00       	and    $0xff,%eax
  1138ef:	83 e0 0f             	and    $0xf,%eax
  1138f2:	8a 80 04 76 11 00    	mov    0x117604(%eax),%al
  1138f8:	0f be c0             	movsbl %al,%eax
  1138fb:	83 ec 0c             	sub    $0xc,%esp
  1138fe:	50                   	push   %eax
  1138ff:	ff d2                	call   *%edx
  113901:	83 c4 10             	add    $0x10,%esp
  113904:	a1 c0 12 13 00       	mov    0x1312c0,%eax
  113909:	ff d0                	call   *%eax
  11390b:	83 e0 7f             	and    $0x7f,%eax
  11390e:	83 f8 2b             	cmp    $0x2b,%eax
  113911:	0f 85 8b fc ff ff    	jne    1135a2 <putfrags+0x6>
  113917:	90                   	nop
  113918:	90                   	nop
  113919:	89 ec                	mov    %ebp,%esp
  11391b:	5d                   	pop    %ebp
  11391c:	c3                   	ret    

0011391d <gdb_serial_converse>:
  11391d:	55                   	push   %ebp
  11391e:	89 e5                	mov    %esp,%ebp
  113920:	53                   	push   %ebx
  113921:	81 ec a4 02 00 00    	sub    $0x2a4,%esp
  113927:	c7 45 f4 00 00 00 00 	movl   $0x0,-0xc(%ebp)
  11392e:	8b 45 08             	mov    0x8(%ebp),%eax
  113931:	c7 40 0c 00 00 00 00 	movl   $0x0,0xc(%eax)
  113938:	90                   	nop
  113939:	e9 fd 07 00 00       	jmp    11413b <gdb_serial_converse+0x81e>
  11393e:	83 ec 0c             	sub    $0xc,%esp
  113941:	8d 85 17 fe ff ff    	lea    -0x1e9(%ebp),%eax
  113947:	50                   	push   %eax
  113948:	e8 e2 fa ff ff       	call   11342f <getpacket>
  11394d:	83 c4 10             	add    $0x10,%esp
  113950:	c7 05 cc 12 13 00 01 	movl   $0x1,0x1312cc
  113957:	00 00 00 
  11395a:	8a 85 17 fe ff ff    	mov    -0x1e9(%ebp),%al
  113960:	0f be c0             	movsbl %al,%eax
  113963:	83 e8 21             	sub    $0x21,%eax
  113966:	83 f8 52             	cmp    $0x52,%eax
  113969:	0f 87 52 0a 00 00    	ja     1143c1 <gdb_serial_converse+0xaa4>
  11396f:	8b 04 85 28 76 11 00 	mov    0x117628(,%eax,4),%eax
  113976:	ff e0                	jmp    *%eax
  113978:	83 ec 04             	sub    $0x4,%esp
  11397b:	6a 10                	push   $0x10
  11397d:	8d 85 10 fe ff ff    	lea    -0x1f0(%ebp),%eax
  113983:	50                   	push   %eax
  113984:	8d 85 17 fe ff ff    	lea    -0x1e9(%ebp),%eax
  11398a:	83 c0 02             	add    $0x2,%eax
  11398d:	50                   	push   %eax
  11398e:	e8 1c c3 ff ff       	call   10fcaf <strtol>
  113993:	83 c4 10             	add    $0x10,%esp
  113996:	89 45 b0             	mov    %eax,-0x50(%ebp)
  113999:	8b 85 10 fe ff ff    	mov    -0x1f0(%ebp),%eax
  11399f:	8d 95 17 fe ff ff    	lea    -0x1e9(%ebp),%edx
  1139a5:	83 c2 02             	add    $0x2,%edx
  1139a8:	39 d0                	cmp    %edx,%eax
  1139aa:	75 0c                	jne    1139b8 <gdb_serial_converse+0x9b>
  1139ac:	c6 85 16 fe ff ff 04 	movb   $0x4,-0x1ea(%ebp)
  1139b3:	e9 b1 09 00 00       	jmp    114369 <gdb_serial_converse+0xa4c>
  1139b8:	83 7d 0c 00          	cmpl   $0x0,0xc(%ebp)
  1139bc:	0f 84 fb 09 00 00    	je     1143bd <gdb_serial_converse+0xaa0>
  1139c2:	8b 45 0c             	mov    0xc(%ebp),%eax
  1139c5:	8b 40 04             	mov    0x4(%eax),%eax
  1139c8:	85 c0                	test   %eax,%eax
  1139ca:	0f 84 ed 09 00 00    	je     1143bd <gdb_serial_converse+0xaa0>
  1139d0:	83 7d b0 ff          	cmpl   $0xffffffff,-0x50(%ebp)
  1139d4:	0f 84 50 09 00 00    	je     11432a <gdb_serial_converse+0xa0d>
  1139da:	83 7d b0 00          	cmpl   $0x0,-0x50(%ebp)
  1139de:	0f 84 46 09 00 00    	je     11432a <gdb_serial_converse+0xa0d>
  1139e4:	8b 45 08             	mov    0x8(%ebp),%eax
  1139e7:	8b 00                	mov    (%eax),%eax
  1139e9:	39 45 b0             	cmp    %eax,-0x50(%ebp)
  1139ec:	0f 84 38 09 00 00    	je     11432a <gdb_serial_converse+0xa0d>
  1139f2:	8b 45 0c             	mov    0xc(%ebp),%eax
  1139f5:	8b 40 04             	mov    0x4(%eax),%eax
  1139f8:	83 ec 08             	sub    $0x8,%esp
  1139fb:	ff 75 b0             	push   -0x50(%ebp)
  1139fe:	ff 75 08             	push   0x8(%ebp)
  113a01:	ff d0                	call   *%eax
  113a03:	83 c4 10             	add    $0x10,%esp
  113a06:	88 85 16 fe ff ff    	mov    %al,-0x1ea(%ebp)
  113a0c:	8a 85 16 fe ff ff    	mov    -0x1ea(%ebp),%al
  113a12:	84 c0                	test   %al,%al
  113a14:	0f 85 4e 09 00 00    	jne    114368 <gdb_serial_converse+0xa4b>
  113a1a:	8b 45 08             	mov    0x8(%ebp),%eax
  113a1d:	8b 55 b0             	mov    -0x50(%ebp),%edx
  113a20:	89 10                	mov    %edx,(%eax)
  113a22:	8b 45 08             	mov    0x8(%ebp),%eax
  113a25:	c7 40 0c 00 00 00 00 	movl   $0x0,0xc(%eax)
  113a2c:	e9 00 09 00 00       	jmp    114331 <gdb_serial_converse+0xa14>
  113a31:	83 ec 04             	sub    $0x4,%esp
  113a34:	6a 10                	push   $0x10
  113a36:	8d 85 0c fe ff ff    	lea    -0x1f4(%ebp),%eax
  113a3c:	50                   	push   %eax
  113a3d:	8d 85 17 fe ff ff    	lea    -0x1e9(%ebp),%eax
  113a43:	40                   	inc    %eax
  113a44:	50                   	push   %eax
  113a45:	e8 65 c2 ff ff       	call   10fcaf <strtol>
  113a4a:	83 c4 10             	add    $0x10,%esp
  113a4d:	89 45 c8             	mov    %eax,-0x38(%ebp)
  113a50:	8b 85 0c fe ff ff    	mov    -0x1f4(%ebp),%eax
  113a56:	8d 95 17 fe ff ff    	lea    -0x1e9(%ebp),%edx
  113a5c:	42                   	inc    %edx
  113a5d:	39 d0                	cmp    %edx,%eax
  113a5f:	75 0c                	jne    113a6d <gdb_serial_converse+0x150>
  113a61:	c6 85 16 fe ff ff 01 	movb   $0x1,-0x1ea(%ebp)
  113a68:	e9 fc 08 00 00       	jmp    114369 <gdb_serial_converse+0xa4c>
  113a6d:	83 7d 0c 00          	cmpl   $0x0,0xc(%ebp)
  113a71:	0f 84 49 09 00 00    	je     1143c0 <gdb_serial_converse+0xaa3>
  113a77:	8b 45 0c             	mov    0xc(%ebp),%eax
  113a7a:	8b 00                	mov    (%eax),%eax
  113a7c:	85 c0                	test   %eax,%eax
  113a7e:	0f 84 3c 09 00 00    	je     1143c0 <gdb_serial_converse+0xaa3>
  113a84:	8b 45 0c             	mov    0xc(%ebp),%eax
  113a87:	8b 00                	mov    (%eax),%eax
  113a89:	83 ec 08             	sub    $0x8,%esp
  113a8c:	ff 75 c8             	push   -0x38(%ebp)
  113a8f:	ff 75 08             	push   0x8(%ebp)
  113a92:	ff d0                	call   *%eax
  113a94:	83 c4 10             	add    $0x10,%esp
  113a97:	88 85 16 fe ff ff    	mov    %al,-0x1ea(%ebp)
  113a9d:	8a 85 16 fe ff ff    	mov    -0x1ea(%ebp),%al
  113aa3:	84 c0                	test   %al,%al
  113aa5:	0f 84 86 08 00 00    	je     114331 <gdb_serial_converse+0xa14>
  113aab:	e9 b9 08 00 00       	jmp    114369 <gdb_serial_converse+0xa4c>
  113ab0:	8b 45 08             	mov    0x8(%ebp),%eax
  113ab3:	8b 40 08             	mov    0x8(%eax),%eax
  113ab6:	89 85 00 fe ff ff    	mov    %eax,-0x200(%ebp)
  113abc:	c7 85 04 fe ff ff 40 	movl   $0x40,-0x1fc(%ebp)
  113ac3:	00 00 00 
  113ac6:	c7 85 08 fe ff ff 01 	movl   $0x1,-0x1f8(%ebp)
  113acd:	00 00 00 
  113ad0:	83 ec 08             	sub    $0x8,%esp
  113ad3:	6a 01                	push   $0x1
  113ad5:	8d 85 00 fe ff ff    	lea    -0x200(%ebp),%eax
  113adb:	50                   	push   %eax
  113adc:	e8 bb fa ff ff       	call   11359c <putfrags>
  113ae1:	83 c4 10             	add    $0x10,%esp
  113ae4:	e9 0b 09 00 00       	jmp    1143f4 <gdb_serial_converse+0xad7>
  113ae9:	8b 45 08             	mov    0x8(%ebp),%eax
  113aec:	8b 40 08             	mov    0x8(%eax),%eax
  113aef:	83 ec 04             	sub    $0x4,%esp
  113af2:	6a 40                	push   $0x40
  113af4:	50                   	push   %eax
  113af5:	8d 85 17 fe ff ff    	lea    -0x1e9(%ebp),%eax
  113afb:	40                   	inc    %eax
  113afc:	50                   	push   %eax
  113afd:	e8 bf f8 ff ff       	call   1133c1 <hex2bin>
  113b02:	83 c4 10             	add    $0x10,%esp
  113b05:	85 c0                	test   %eax,%eax
  113b07:	74 0c                	je     113b15 <gdb_serial_converse+0x1f8>
  113b09:	c6 85 16 fe ff ff 04 	movb   $0x4,-0x1ea(%ebp)
  113b10:	e9 54 08 00 00       	jmp    114369 <gdb_serial_converse+0xa4c>
  113b15:	8b 45 08             	mov    0x8(%ebp),%eax
  113b18:	c7 40 0c 01 00 00 00 	movl   $0x1,0xc(%eax)
  113b1f:	e9 0d 08 00 00       	jmp    114331 <gdb_serial_converse+0xa14>
  113b24:	83 ec 04             	sub    $0x4,%esp
  113b27:	6a 10                	push   $0x10
  113b29:	8d 85 fc fd ff ff    	lea    -0x204(%ebp),%eax
  113b2f:	50                   	push   %eax
  113b30:	8d 85 17 fe ff ff    	lea    -0x1e9(%ebp),%eax
  113b36:	40                   	inc    %eax
  113b37:	50                   	push   %eax
  113b38:	e8 00 c3 ff ff       	call   10fe3d <strtoul>
  113b3d:	83 c4 10             	add    $0x10,%esp
  113b40:	89 45 c4             	mov    %eax,-0x3c(%ebp)
  113b43:	8b 85 fc fd ff ff    	mov    -0x204(%ebp),%eax
  113b49:	8d 95 17 fe ff ff    	lea    -0x1e9(%ebp),%edx
  113b4f:	42                   	inc    %edx
  113b50:	39 d0                	cmp    %edx,%eax
  113b52:	74 0c                	je     113b60 <gdb_serial_converse+0x243>
  113b54:	8b 85 fc fd ff ff    	mov    -0x204(%ebp),%eax
  113b5a:	8a 00                	mov    (%eax),%al
  113b5c:	3c 3d                	cmp    $0x3d,%al
  113b5e:	74 0c                	je     113b6c <gdb_serial_converse+0x24f>
  113b60:	c6 85 16 fe ff ff 04 	movb   $0x4,-0x1ea(%ebp)
  113b67:	e9 fd 07 00 00       	jmp    114369 <gdb_serial_converse+0xa4c>
  113b6c:	83 7d c4 29          	cmpl   $0x29,-0x3c(%ebp)
  113b70:	0f 84 b7 07 00 00    	je     11432d <gdb_serial_converse+0xa10>
  113b76:	8b 45 c4             	mov    -0x3c(%ebp),%eax
  113b79:	40                   	inc    %eax
  113b7a:	c1 e0 02             	shl    $0x2,%eax
  113b7d:	83 f8 40             	cmp    $0x40,%eax
  113b80:	77 28                	ja     113baa <gdb_serial_converse+0x28d>
  113b82:	8b 45 08             	mov    0x8(%ebp),%eax
  113b85:	8b 40 08             	mov    0x8(%eax),%eax
  113b88:	8b 55 c4             	mov    -0x3c(%ebp),%edx
  113b8b:	c1 e2 02             	shl    $0x2,%edx
  113b8e:	01 c2                	add    %eax,%edx
  113b90:	8b 85 fc fd ff ff    	mov    -0x204(%ebp),%eax
  113b96:	40                   	inc    %eax
  113b97:	83 ec 04             	sub    $0x4,%esp
  113b9a:	6a 04                	push   $0x4
  113b9c:	52                   	push   %edx
  113b9d:	50                   	push   %eax
  113b9e:	e8 1e f8 ff ff       	call   1133c1 <hex2bin>
  113ba3:	83 c4 10             	add    $0x10,%esp
  113ba6:	85 c0                	test   %eax,%eax
  113ba8:	74 0c                	je     113bb6 <gdb_serial_converse+0x299>
  113baa:	c6 85 16 fe ff ff 04 	movb   $0x4,-0x1ea(%ebp)
  113bb1:	e9 b3 07 00 00       	jmp    114369 <gdb_serial_converse+0xa4c>
  113bb6:	8b 45 08             	mov    0x8(%ebp),%eax
  113bb9:	c7 40 0c 01 00 00 00 	movl   $0x1,0xc(%eax)
  113bc0:	e9 6c 07 00 00       	jmp    114331 <gdb_serial_converse+0xa14>
  113bc5:	83 ec 04             	sub    $0x4,%esp
  113bc8:	6a 10                	push   $0x10
  113bca:	8d 85 f8 fd ff ff    	lea    -0x208(%ebp),%eax
  113bd0:	50                   	push   %eax
  113bd1:	8d 85 17 fe ff ff    	lea    -0x1e9(%ebp),%eax
  113bd7:	40                   	inc    %eax
  113bd8:	50                   	push   %eax
  113bd9:	e8 5f c2 ff ff       	call   10fe3d <strtoul>
  113bde:	83 c4 10             	add    $0x10,%esp
  113be1:	89 45 e0             	mov    %eax,-0x20(%ebp)
  113be4:	8b 85 f8 fd ff ff    	mov    -0x208(%ebp),%eax
  113bea:	8d 95 17 fe ff ff    	lea    -0x1e9(%ebp),%edx
  113bf0:	42                   	inc    %edx
  113bf1:	39 d0                	cmp    %edx,%eax
  113bf3:	74 0c                	je     113c01 <gdb_serial_converse+0x2e4>
  113bf5:	8b 85 f8 fd ff ff    	mov    -0x208(%ebp),%eax
  113bfb:	8a 00                	mov    (%eax),%al
  113bfd:	3c 2c                	cmp    $0x2c,%al
  113bff:	74 0c                	je     113c0d <gdb_serial_converse+0x2f0>
  113c01:	c6 85 16 fe ff ff 02 	movb   $0x2,-0x1ea(%ebp)
  113c08:	e9 5c 07 00 00       	jmp    114369 <gdb_serial_converse+0xa4c>
  113c0d:	8b 85 f8 fd ff ff    	mov    -0x208(%ebp),%eax
  113c13:	40                   	inc    %eax
  113c14:	89 85 f8 fd ff ff    	mov    %eax,-0x208(%ebp)
  113c1a:	8b 85 f8 fd ff ff    	mov    -0x208(%ebp),%eax
  113c20:	83 ec 04             	sub    $0x4,%esp
  113c23:	6a 10                	push   $0x10
  113c25:	8d 95 f4 fd ff ff    	lea    -0x20c(%ebp),%edx
  113c2b:	52                   	push   %edx
  113c2c:	50                   	push   %eax
  113c2d:	e8 0b c2 ff ff       	call   10fe3d <strtoul>
  113c32:	83 c4 10             	add    $0x10,%esp
  113c35:	89 45 dc             	mov    %eax,-0x24(%ebp)
  113c38:	8b 95 f4 fd ff ff    	mov    -0x20c(%ebp),%edx
  113c3e:	8b 85 f8 fd ff ff    	mov    -0x208(%ebp),%eax
  113c44:	39 c2                	cmp    %eax,%edx
  113c46:	74 0c                	je     113c54 <gdb_serial_converse+0x337>
  113c48:	8b 45 dc             	mov    -0x24(%ebp),%eax
  113c4b:	01 c0                	add    %eax,%eax
  113c4d:	3d 90 01 00 00       	cmp    $0x190,%eax
  113c52:	76 0c                	jbe    113c60 <gdb_serial_converse+0x343>
  113c54:	c6 85 16 fe ff ff 02 	movb   $0x2,-0x1ea(%ebp)
  113c5b:	e9 09 07 00 00       	jmp    114369 <gdb_serial_converse+0xa4c>
  113c60:	83 ec 04             	sub    $0x4,%esp
  113c63:	ff 75 dc             	push   -0x24(%ebp)
  113c66:	8d 85 17 fe ff ff    	lea    -0x1e9(%ebp),%eax
  113c6c:	50                   	push   %eax
  113c6d:	ff 75 e0             	push   -0x20(%ebp)
  113c70:	e8 f2 0a 00 00       	call   114767 <gdb_copyin>
  113c75:	83 c4 10             	add    $0x10,%esp
  113c78:	85 c0                	test   %eax,%eax
  113c7a:	74 0c                	je     113c88 <gdb_serial_converse+0x36b>
  113c7c:	c6 85 16 fe ff ff 03 	movb   $0x3,-0x1ea(%ebp)
  113c83:	e9 e1 06 00 00       	jmp    114369 <gdb_serial_converse+0xa4c>
  113c88:	8d 85 17 fe ff ff    	lea    -0x1e9(%ebp),%eax
  113c8e:	89 85 e8 fd ff ff    	mov    %eax,-0x218(%ebp)
  113c94:	8b 45 dc             	mov    -0x24(%ebp),%eax
  113c97:	89 85 ec fd ff ff    	mov    %eax,-0x214(%ebp)
  113c9d:	c7 85 f0 fd ff ff 01 	movl   $0x1,-0x210(%ebp)
  113ca4:	00 00 00 
  113ca7:	83 ec 08             	sub    $0x8,%esp
  113caa:	6a 01                	push   $0x1
  113cac:	8d 85 e8 fd ff ff    	lea    -0x218(%ebp),%eax
  113cb2:	50                   	push   %eax
  113cb3:	e8 e4 f8 ff ff       	call   11359c <putfrags>
  113cb8:	83 c4 10             	add    $0x10,%esp
  113cbb:	e9 34 07 00 00       	jmp    1143f4 <gdb_serial_converse+0xad7>
  113cc0:	83 ec 04             	sub    $0x4,%esp
  113cc3:	6a 10                	push   $0x10
  113cc5:	8d 85 e4 fd ff ff    	lea    -0x21c(%ebp),%eax
  113ccb:	50                   	push   %eax
  113ccc:	8d 85 17 fe ff ff    	lea    -0x1e9(%ebp),%eax
  113cd2:	40                   	inc    %eax
  113cd3:	50                   	push   %eax
  113cd4:	e8 64 c1 ff ff       	call   10fe3d <strtoul>
  113cd9:	83 c4 10             	add    $0x10,%esp
  113cdc:	89 45 c0             	mov    %eax,-0x40(%ebp)
  113cdf:	8b 85 e4 fd ff ff    	mov    -0x21c(%ebp),%eax
  113ce5:	8d 95 17 fe ff ff    	lea    -0x1e9(%ebp),%edx
  113ceb:	42                   	inc    %edx
  113cec:	39 d0                	cmp    %edx,%eax
  113cee:	74 0c                	je     113cfc <gdb_serial_converse+0x3df>
  113cf0:	8b 85 e4 fd ff ff    	mov    -0x21c(%ebp),%eax
  113cf6:	8a 00                	mov    (%eax),%al
  113cf8:	3c 2c                	cmp    $0x2c,%al
  113cfa:	74 0c                	je     113d08 <gdb_serial_converse+0x3eb>
  113cfc:	c6 85 16 fe ff ff 02 	movb   $0x2,-0x1ea(%ebp)
  113d03:	e9 61 06 00 00       	jmp    114369 <gdb_serial_converse+0xa4c>
  113d08:	8b 85 e4 fd ff ff    	mov    -0x21c(%ebp),%eax
  113d0e:	40                   	inc    %eax
  113d0f:	89 85 e4 fd ff ff    	mov    %eax,-0x21c(%ebp)
  113d15:	8b 85 e4 fd ff ff    	mov    -0x21c(%ebp),%eax
  113d1b:	83 ec 04             	sub    $0x4,%esp
  113d1e:	6a 10                	push   $0x10
  113d20:	8d 95 e0 fd ff ff    	lea    -0x220(%ebp),%edx
  113d26:	52                   	push   %edx
  113d27:	50                   	push   %eax
  113d28:	e8 10 c1 ff ff       	call   10fe3d <strtoul>
  113d2d:	83 c4 10             	add    $0x10,%esp
  113d30:	89 45 bc             	mov    %eax,-0x44(%ebp)
  113d33:	8b 95 e0 fd ff ff    	mov    -0x220(%ebp),%edx
  113d39:	8b 85 e4 fd ff ff    	mov    -0x21c(%ebp),%eax
  113d3f:	39 c2                	cmp    %eax,%edx
  113d41:	74 0c                	je     113d4f <gdb_serial_converse+0x432>
  113d43:	8b 85 e0 fd ff ff    	mov    -0x220(%ebp),%eax
  113d49:	8a 00                	mov    (%eax),%al
  113d4b:	3c 3a                	cmp    $0x3a,%al
  113d4d:	74 0c                	je     113d5b <gdb_serial_converse+0x43e>
  113d4f:	c6 85 16 fe ff ff 02 	movb   $0x2,-0x1ea(%ebp)
  113d56:	e9 0e 06 00 00       	jmp    114369 <gdb_serial_converse+0xa4c>
  113d5b:	8b 85 e0 fd ff ff    	mov    -0x220(%ebp),%eax
  113d61:	40                   	inc    %eax
  113d62:	89 85 e0 fd ff ff    	mov    %eax,-0x220(%ebp)
  113d68:	8b 85 e0 fd ff ff    	mov    -0x220(%ebp),%eax
  113d6e:	8b 55 bc             	mov    -0x44(%ebp),%edx
  113d71:	01 d2                	add    %edx,%edx
  113d73:	01 c2                	add    %eax,%edx
  113d75:	8d 85 17 fe ff ff    	lea    -0x1e9(%ebp),%eax
  113d7b:	05 90 01 00 00       	add    $0x190,%eax
  113d80:	39 c2                	cmp    %eax,%edx
  113d82:	76 0c                	jbe    113d90 <gdb_serial_converse+0x473>
  113d84:	c6 85 16 fe ff ff 02 	movb   $0x2,-0x1ea(%ebp)
  113d8b:	e9 d9 05 00 00       	jmp    114369 <gdb_serial_converse+0xa4c>
  113d90:	89 e0                	mov    %esp,%eax
  113d92:	89 c3                	mov    %eax,%ebx
  113d94:	8b 45 bc             	mov    -0x44(%ebp),%eax
  113d97:	89 c2                	mov    %eax,%edx
  113d99:	4a                   	dec    %edx
  113d9a:	89 55 b8             	mov    %edx,-0x48(%ebp)
  113d9d:	ba 10 00 00 00       	mov    $0x10,%edx
  113da2:	4a                   	dec    %edx
  113da3:	01 d0                	add    %edx,%eax
  113da5:	b9 10 00 00 00       	mov    $0x10,%ecx
  113daa:	ba 00 00 00 00       	mov    $0x0,%edx
  113daf:	f7 f1                	div    %ecx
  113db1:	6b c0 10             	imul   $0x10,%eax,%eax
  113db4:	89 c1                	mov    %eax,%ecx
  113db6:	81 e1 00 f0 ff ff    	and    $0xfffff000,%ecx
  113dbc:	89 e2                	mov    %esp,%edx
  113dbe:	29 ca                	sub    %ecx,%edx
  113dc0:	39 d4                	cmp    %edx,%esp
  113dc2:	74 10                	je     113dd4 <gdb_serial_converse+0x4b7>
  113dc4:	81 ec 00 10 00 00    	sub    $0x1000,%esp
  113dca:	83 8c 24 fc 0f 00 00 	orl    $0x0,0xffc(%esp)
  113dd1:	00 
  113dd2:	eb ec                	jmp    113dc0 <gdb_serial_converse+0x4a3>
  113dd4:	89 c2                	mov    %eax,%edx
  113dd6:	81 e2 ff 0f 00 00    	and    $0xfff,%edx
  113ddc:	29 d4                	sub    %edx,%esp
  113dde:	89 c2                	mov    %eax,%edx
  113de0:	81 e2 ff 0f 00 00    	and    $0xfff,%edx
  113de6:	85 d2                	test   %edx,%edx
  113de8:	74 0d                	je     113df7 <gdb_serial_converse+0x4da>
  113dea:	25 ff 0f 00 00       	and    $0xfff,%eax
  113def:	83 e8 04             	sub    $0x4,%eax
  113df2:	01 e0                	add    %esp,%eax
  113df4:	83 08 00             	orl    $0x0,(%eax)
  113df7:	89 e0                	mov    %esp,%eax
  113df9:	83 c0 00             	add    $0x0,%eax
  113dfc:	89 45 b4             	mov    %eax,-0x4c(%ebp)
  113dff:	8b 55 bc             	mov    -0x44(%ebp),%edx
  113e02:	8b 85 e0 fd ff ff    	mov    -0x220(%ebp),%eax
  113e08:	83 ec 04             	sub    $0x4,%esp
  113e0b:	52                   	push   %edx
  113e0c:	ff 75 b4             	push   -0x4c(%ebp)
  113e0f:	50                   	push   %eax
  113e10:	e8 ac f5 ff ff       	call   1133c1 <hex2bin>
  113e15:	83 c4 10             	add    $0x10,%esp
  113e18:	85 c0                	test   %eax,%eax
  113e1a:	74 09                	je     113e25 <gdb_serial_converse+0x508>
  113e1c:	c6 85 16 fe ff ff 02 	movb   $0x2,-0x1ea(%ebp)
  113e23:	eb 28                	jmp    113e4d <gdb_serial_converse+0x530>
  113e25:	83 ec 04             	sub    $0x4,%esp
  113e28:	ff 75 bc             	push   -0x44(%ebp)
  113e2b:	ff 75 c0             	push   -0x40(%ebp)
  113e2e:	ff 75 b4             	push   -0x4c(%ebp)
  113e31:	e8 c0 09 00 00       	call   1147f6 <gdb_copyout>
  113e36:	83 c4 10             	add    $0x10,%esp
  113e39:	85 c0                	test   %eax,%eax
  113e3b:	74 09                	je     113e46 <gdb_serial_converse+0x529>
  113e3d:	c6 85 16 fe ff ff 03 	movb   $0x3,-0x1ea(%ebp)
  113e44:	eb 07                	jmp    113e4d <gdb_serial_converse+0x530>
  113e46:	89 dc                	mov    %ebx,%esp
  113e48:	e9 e4 04 00 00       	jmp    114331 <gdb_serial_converse+0xa14>
  113e4d:	89 dc                	mov    %ebx,%esp
  113e4f:	e9 15 05 00 00       	jmp    114369 <gdb_serial_converse+0xa4c>
  113e54:	83 ec 04             	sub    $0x4,%esp
  113e57:	6a 10                	push   $0x10
  113e59:	8d 85 dc fd ff ff    	lea    -0x224(%ebp),%eax
  113e5f:	50                   	push   %eax
  113e60:	8d 85 17 fe ff ff    	lea    -0x1e9(%ebp),%eax
  113e66:	40                   	inc    %eax
  113e67:	50                   	push   %eax
  113e68:	e8 d0 bf ff ff       	call   10fe3d <strtoul>
  113e6d:	83 c4 10             	add    $0x10,%esp
  113e70:	89 45 d4             	mov    %eax,-0x2c(%ebp)
  113e73:	8b 85 dc fd ff ff    	mov    -0x224(%ebp),%eax
  113e79:	8d 95 17 fe ff ff    	lea    -0x1e9(%ebp),%edx
  113e7f:	42                   	inc    %edx
  113e80:	39 d0                	cmp    %edx,%eax
  113e82:	74 0c                	je     113e90 <gdb_serial_converse+0x573>
  113e84:	8b 85 dc fd ff ff    	mov    -0x224(%ebp),%eax
  113e8a:	8a 00                	mov    (%eax),%al
  113e8c:	3c 2c                	cmp    $0x2c,%al
  113e8e:	74 0c                	je     113e9c <gdb_serial_converse+0x57f>
  113e90:	c6 85 16 fe ff ff 02 	movb   $0x2,-0x1ea(%ebp)
  113e97:	e9 cd 04 00 00       	jmp    114369 <gdb_serial_converse+0xa4c>
  113e9c:	8b 85 dc fd ff ff    	mov    -0x224(%ebp),%eax
  113ea2:	40                   	inc    %eax
  113ea3:	89 85 dc fd ff ff    	mov    %eax,-0x224(%ebp)
  113ea9:	8b 85 dc fd ff ff    	mov    -0x224(%ebp),%eax
  113eaf:	83 ec 04             	sub    $0x4,%esp
  113eb2:	6a 10                	push   $0x10
  113eb4:	8d 95 d8 fd ff ff    	lea    -0x228(%ebp),%edx
  113eba:	52                   	push   %edx
  113ebb:	50                   	push   %eax
  113ebc:	e8 7c bf ff ff       	call   10fe3d <strtoul>
  113ec1:	83 c4 10             	add    $0x10,%esp
  113ec4:	89 45 d0             	mov    %eax,-0x30(%ebp)
  113ec7:	8b 95 d8 fd ff ff    	mov    -0x228(%ebp),%edx
  113ecd:	8b 85 dc fd ff ff    	mov    -0x224(%ebp),%eax
  113ed3:	39 c2                	cmp    %eax,%edx
  113ed5:	74 0c                	je     113ee3 <gdb_serial_converse+0x5c6>
  113ed7:	8b 85 d8 fd ff ff    	mov    -0x228(%ebp),%eax
  113edd:	8a 00                	mov    (%eax),%al
  113edf:	3c 3a                	cmp    $0x3a,%al
  113ee1:	74 0c                	je     113eef <gdb_serial_converse+0x5d2>
  113ee3:	c6 85 16 fe ff ff 02 	movb   $0x2,-0x1ea(%ebp)
  113eea:	e9 7a 04 00 00       	jmp    114369 <gdb_serial_converse+0xa4c>
  113eef:	8b 85 d8 fd ff ff    	mov    -0x228(%ebp),%eax
  113ef5:	40                   	inc    %eax
  113ef6:	89 85 d8 fd ff ff    	mov    %eax,-0x228(%ebp)
  113efc:	8b 95 d8 fd ff ff    	mov    -0x228(%ebp),%edx
  113f02:	8b 45 d0             	mov    -0x30(%ebp),%eax
  113f05:	01 c2                	add    %eax,%edx
  113f07:	8d 85 17 fe ff ff    	lea    -0x1e9(%ebp),%eax
  113f0d:	05 90 01 00 00       	add    $0x190,%eax
  113f12:	39 c2                	cmp    %eax,%edx
  113f14:	76 0c                	jbe    113f22 <gdb_serial_converse+0x605>
  113f16:	c6 85 16 fe ff ff 02 	movb   $0x2,-0x1ea(%ebp)
  113f1d:	e9 47 04 00 00       	jmp    114369 <gdb_serial_converse+0xa4c>
  113f22:	8b 85 d8 fd ff ff    	mov    -0x228(%ebp),%eax
  113f28:	89 45 f0             	mov    %eax,-0x10(%ebp)
  113f2b:	8b 55 f0             	mov    -0x10(%ebp),%edx
  113f2e:	8b 45 d0             	mov    -0x30(%ebp),%eax
  113f31:	01 d0                	add    %edx,%eax
  113f33:	89 45 cc             	mov    %eax,-0x34(%ebp)
  113f36:	8d 85 17 fe ff ff    	lea    -0x1e9(%ebp),%eax
  113f3c:	89 45 ec             	mov    %eax,-0x14(%ebp)
  113f3f:	eb 52                	jmp    113f93 <gdb_serial_converse+0x676>
  113f41:	8b 45 f0             	mov    -0x10(%ebp),%eax
  113f44:	8a 00                	mov    (%eax),%al
  113f46:	3c 7d                	cmp    $0x7d,%al
  113f48:	75 33                	jne    113f7d <gdb_serial_converse+0x660>
  113f4a:	8b 45 cc             	mov    -0x34(%ebp),%eax
  113f4d:	2b 45 f0             	sub    -0x10(%ebp),%eax
  113f50:	83 f8 01             	cmp    $0x1,%eax
  113f53:	7f 0c                	jg     113f61 <gdb_serial_converse+0x644>
  113f55:	c6 85 16 fe ff ff 02 	movb   $0x2,-0x1ea(%ebp)
  113f5c:	e9 08 04 00 00       	jmp    114369 <gdb_serial_converse+0xa4c>
  113f61:	8b 45 f0             	mov    -0x10(%ebp),%eax
  113f64:	40                   	inc    %eax
  113f65:	8a 08                	mov    (%eax),%cl
  113f67:	8b 45 ec             	mov    -0x14(%ebp),%eax
  113f6a:	8d 50 01             	lea    0x1(%eax),%edx
  113f6d:	89 55 ec             	mov    %edx,-0x14(%ebp)
  113f70:	83 f1 20             	xor    $0x20,%ecx
  113f73:	88 ca                	mov    %cl,%dl
  113f75:	88 10                	mov    %dl,(%eax)
  113f77:	83 45 f0 02          	addl   $0x2,-0x10(%ebp)
  113f7b:	eb 16                	jmp    113f93 <gdb_serial_converse+0x676>
  113f7d:	8b 55 f0             	mov    -0x10(%ebp),%edx
  113f80:	8d 42 01             	lea    0x1(%edx),%eax
  113f83:	89 45 f0             	mov    %eax,-0x10(%ebp)
  113f86:	8b 45 ec             	mov    -0x14(%ebp),%eax
  113f89:	8d 48 01             	lea    0x1(%eax),%ecx
  113f8c:	89 4d ec             	mov    %ecx,-0x14(%ebp)
  113f8f:	8a 12                	mov    (%edx),%dl
  113f91:	88 10                	mov    %dl,(%eax)
  113f93:	8b 45 f0             	mov    -0x10(%ebp),%eax
  113f96:	3b 45 cc             	cmp    -0x34(%ebp),%eax
  113f99:	72 a6                	jb     113f41 <gdb_serial_converse+0x624>
  113f9b:	8d 85 17 fe ff ff    	lea    -0x1e9(%ebp),%eax
  113fa1:	8b 55 ec             	mov    -0x14(%ebp),%edx
  113fa4:	29 c2                	sub    %eax,%edx
  113fa6:	89 d0                	mov    %edx,%eax
  113fa8:	83 ec 04             	sub    $0x4,%esp
  113fab:	50                   	push   %eax
  113fac:	ff 75 d4             	push   -0x2c(%ebp)
  113faf:	8d 85 17 fe ff ff    	lea    -0x1e9(%ebp),%eax
  113fb5:	50                   	push   %eax
  113fb6:	e8 3b 08 00 00       	call   1147f6 <gdb_copyout>
  113fbb:	83 c4 10             	add    $0x10,%esp
  113fbe:	85 c0                	test   %eax,%eax
  113fc0:	0f 84 6a 03 00 00    	je     114330 <gdb_serial_converse+0xa13>
  113fc6:	c6 85 16 fe ff ff 03 	movb   $0x3,-0x1ea(%ebp)
  113fcd:	e9 97 03 00 00       	jmp    114369 <gdb_serial_converse+0xa4c>
  113fd2:	83 ec 04             	sub    $0x4,%esp
  113fd5:	6a 10                	push   $0x10
  113fd7:	8d 85 d4 fd ff ff    	lea    -0x22c(%ebp),%eax
  113fdd:	50                   	push   %eax
  113fde:	8d 85 17 fe ff ff    	lea    -0x1e9(%ebp),%eax
  113fe4:	40                   	inc    %eax
  113fe5:	50                   	push   %eax
  113fe6:	e8 52 be ff ff       	call   10fe3d <strtoul>
  113feb:	83 c4 10             	add    $0x10,%esp
  113fee:	89 45 d8             	mov    %eax,-0x28(%ebp)
  113ff1:	8b 85 d4 fd ff ff    	mov    -0x22c(%ebp),%eax
  113ff7:	8d 95 17 fe ff ff    	lea    -0x1e9(%ebp),%edx
  113ffd:	42                   	inc    %edx
  113ffe:	39 d0                	cmp    %edx,%eax
  114000:	76 24                	jbe    114026 <gdb_serial_converse+0x709>
  114002:	8b 45 08             	mov    0x8(%ebp),%eax
  114005:	8b 40 08             	mov    0x8(%eax),%eax
  114008:	8b 40 20             	mov    0x20(%eax),%eax
  11400b:	39 45 d8             	cmp    %eax,-0x28(%ebp)
  11400e:	74 16                	je     114026 <gdb_serial_converse+0x709>
  114010:	8b 45 08             	mov    0x8(%ebp),%eax
  114013:	8b 40 08             	mov    0x8(%eax),%eax
  114016:	8b 55 d8             	mov    -0x28(%ebp),%edx
  114019:	89 50 20             	mov    %edx,0x20(%eax)
  11401c:	8b 45 08             	mov    0x8(%ebp),%eax
  11401f:	c7 40 0c 01 00 00 00 	movl   $0x1,0xc(%eax)
  114026:	8b 45 08             	mov    0x8(%ebp),%eax
  114029:	8b 50 08             	mov    0x8(%eax),%edx
  11402c:	8a 85 17 fe ff ff    	mov    -0x1e9(%ebp),%al
  114032:	3c 73                	cmp    $0x73,%al
  114034:	0f 94 c0             	sete   %al
  114037:	25 ff 00 00 00       	and    $0xff,%eax
  11403c:	83 ec 08             	sub    $0x8,%esp
  11403f:	52                   	push   %edx
  114040:	50                   	push   %eax
  114041:	e8 3f 08 00 00       	call   114885 <gdb_set_trace_flag>
  114046:	83 c4 10             	add    $0x10,%esp
  114049:	8b 45 08             	mov    0x8(%ebp),%eax
  11404c:	c6 40 04 00          	movb   $0x0,0x4(%eax)
  114050:	c7 45 f4 01 00 00 00 	movl   $0x1,-0xc(%ebp)
  114057:	90                   	nop
  114058:	e9 97 03 00 00       	jmp    1143f4 <gdb_serial_converse+0xad7>
  11405d:	8a 85 18 fe ff ff    	mov    -0x1e8(%ebp),%al
  114063:	0f be c0             	movsbl %al,%eax
  114066:	83 ec 0c             	sub    $0xc,%esp
  114069:	50                   	push   %eax
  11406a:	e8 fe f2 ff ff       	call   11336d <hex>
  11406f:	83 c4 10             	add    $0x10,%esp
  114072:	c1 e0 04             	shl    $0x4,%eax
  114075:	89 c3                	mov    %eax,%ebx
  114077:	8a 85 19 fe ff ff    	mov    -0x1e7(%ebp),%al
  11407d:	0f be c0             	movsbl %al,%eax
  114080:	83 ec 0c             	sub    $0xc,%esp
  114083:	50                   	push   %eax
  114084:	e8 e4 f2 ff ff       	call   11336d <hex>
  114089:	83 c4 10             	add    $0x10,%esp
  11408c:	09 d8                	or     %ebx,%eax
  11408e:	89 45 ac             	mov    %eax,-0x54(%ebp)
  114091:	83 7d ac 00          	cmpl   $0x0,-0x54(%ebp)
  114095:	7e 06                	jle    11409d <gdb_serial_converse+0x780>
  114097:	83 7d ac 1f          	cmpl   $0x1f,-0x54(%ebp)
  11409b:	7e 0c                	jle    1140a9 <gdb_serial_converse+0x78c>
  11409d:	c6 85 16 fe ff ff 05 	movb   $0x5,-0x1ea(%ebp)
  1140a4:	e9 c0 02 00 00       	jmp    114369 <gdb_serial_converse+0xa4c>
  1140a9:	83 ec 04             	sub    $0x4,%esp
  1140ac:	6a 10                	push   $0x10
  1140ae:	8d 85 d0 fd ff ff    	lea    -0x230(%ebp),%eax
  1140b4:	50                   	push   %eax
  1140b5:	8d 85 17 fe ff ff    	lea    -0x1e9(%ebp),%eax
  1140bb:	83 c0 03             	add    $0x3,%eax
  1140be:	50                   	push   %eax
  1140bf:	e8 79 bd ff ff       	call   10fe3d <strtoul>
  1140c4:	83 c4 10             	add    $0x10,%esp
  1140c7:	89 45 a8             	mov    %eax,-0x58(%ebp)
  1140ca:	8b 85 d0 fd ff ff    	mov    -0x230(%ebp),%eax
  1140d0:	8d 95 17 fe ff ff    	lea    -0x1e9(%ebp),%edx
  1140d6:	83 c2 03             	add    $0x3,%edx
  1140d9:	39 d0                	cmp    %edx,%eax
  1140db:	76 24                	jbe    114101 <gdb_serial_converse+0x7e4>
  1140dd:	8b 45 08             	mov    0x8(%ebp),%eax
  1140e0:	8b 40 08             	mov    0x8(%eax),%eax
  1140e3:	8b 40 20             	mov    0x20(%eax),%eax
  1140e6:	39 45 a8             	cmp    %eax,-0x58(%ebp)
  1140e9:	74 16                	je     114101 <gdb_serial_converse+0x7e4>
  1140eb:	8b 45 08             	mov    0x8(%ebp),%eax
  1140ee:	8b 40 08             	mov    0x8(%eax),%eax
  1140f1:	8b 55 a8             	mov    -0x58(%ebp),%edx
  1140f4:	89 50 20             	mov    %edx,0x20(%eax)
  1140f7:	8b 45 08             	mov    0x8(%ebp),%eax
  1140fa:	c7 40 0c 01 00 00 00 	movl   $0x1,0xc(%eax)
  114101:	8b 45 08             	mov    0x8(%ebp),%eax
  114104:	8b 50 08             	mov    0x8(%eax),%edx
  114107:	8a 85 17 fe ff ff    	mov    -0x1e9(%ebp),%al
  11410d:	3c 53                	cmp    $0x53,%al
  11410f:	0f 94 c0             	sete   %al
  114112:	25 ff 00 00 00       	and    $0xff,%eax
  114117:	83 ec 08             	sub    $0x8,%esp
  11411a:	52                   	push   %edx
  11411b:	50                   	push   %eax
  11411c:	e8 64 07 00 00       	call   114885 <gdb_set_trace_flag>
  114121:	83 c4 10             	add    $0x10,%esp
  114124:	8b 45 ac             	mov    -0x54(%ebp),%eax
  114127:	88 c2                	mov    %al,%dl
  114129:	8b 45 08             	mov    0x8(%ebp),%eax
  11412c:	88 50 04             	mov    %dl,0x4(%eax)
  11412f:	c7 45 f4 01 00 00 00 	movl   $0x1,-0xc(%ebp)
  114136:	e9 b9 02 00 00       	jmp    1143f4 <gdb_serial_converse+0xad7>
  11413b:	83 7d 0c 00          	cmpl   $0x0,0xc(%ebp)
  11413f:	0f 84 39 01 00 00    	je     11427e <gdb_serial_converse+0x961>
  114145:	8b 45 0c             	mov    0xc(%ebp),%eax
  114148:	8b 40 04             	mov    0x4(%eax),%eax
  11414b:	85 c0                	test   %eax,%eax
  11414d:	0f 84 2b 01 00 00    	je     11427e <gdb_serial_converse+0x961>
  114153:	8b 45 08             	mov    0x8(%ebp),%eax
  114156:	8b 00                	mov    (%eax),%eax
  114158:	85 c0                	test   %eax,%eax
  11415a:	0f 84 1e 01 00 00    	je     11427e <gdb_serial_converse+0x961>
  114160:	8b 45 08             	mov    0x8(%ebp),%eax
  114163:	8b 00                	mov    (%eax),%eax
  114165:	83 f8 ff             	cmp    $0xffffffff,%eax
  114168:	0f 84 10 01 00 00    	je     11427e <gdb_serial_converse+0x961>
  11416e:	c7 45 e8 00 00 00 00 	movl   $0x0,-0x18(%ebp)
  114175:	8b 45 08             	mov    0x8(%ebp),%eax
  114178:	8b 00                	mov    (%eax),%eax
  11417a:	89 45 e4             	mov    %eax,-0x1c(%ebp)
  11417d:	8b 45 e4             	mov    -0x1c(%ebp),%eax
  114180:	83 e0 0f             	and    $0xf,%eax
  114183:	89 c1                	mov    %eax,%ecx
  114185:	8b 45 e8             	mov    -0x18(%ebp),%eax
  114188:	8d 50 01             	lea    0x1(%eax),%edx
  11418b:	89 55 e8             	mov    %edx,-0x18(%ebp)
  11418e:	8a 91 04 76 11 00    	mov    0x117604(%ecx),%dl
  114194:	88 94 05 c8 fd ff ff 	mov    %dl,-0x238(%ebp,%eax,1)
  11419b:	c1 6d e4 04          	shrl   $0x4,-0x1c(%ebp)
  11419f:	83 7d e4 00          	cmpl   $0x0,-0x1c(%ebp)
  1141a3:	75 d8                	jne    11417d <gdb_serial_converse+0x860>
  1141a5:	83 ec 04             	sub    $0x4,%esp
  1141a8:	6a 07                	push   $0x7
  1141aa:	68 15 76 11 00       	push   $0x117615
  1141af:	8d 85 17 fe ff ff    	lea    -0x1e9(%ebp),%eax
  1141b5:	50                   	push   %eax
  1141b6:	e8 af b3 ff ff       	call   10f56a <memcpy>
  1141bb:	83 c4 10             	add    $0x10,%esp
  1141be:	c7 45 e4 07 00 00 00 	movl   $0x7,-0x1c(%ebp)
  1141c5:	ff 4d e8             	decl   -0x18(%ebp)
  1141c8:	8b 45 e4             	mov    -0x1c(%ebp),%eax
  1141cb:	8d 50 01             	lea    0x1(%eax),%edx
  1141ce:	89 55 e4             	mov    %edx,-0x1c(%ebp)
  1141d1:	8d 8d c8 fd ff ff    	lea    -0x238(%ebp),%ecx
  1141d7:	8b 55 e8             	mov    -0x18(%ebp),%edx
  1141da:	01 ca                	add    %ecx,%edx
  1141dc:	8a 12                	mov    (%edx),%dl
  1141de:	88 94 05 17 fe ff ff 	mov    %dl,-0x1e9(%ebp,%eax,1)
  1141e5:	83 7d e8 00          	cmpl   $0x0,-0x18(%ebp)
  1141e9:	7f da                	jg     1141c5 <gdb_serial_converse+0x8a8>
  1141eb:	8b 45 e4             	mov    -0x1c(%ebp),%eax
  1141ee:	8d 50 01             	lea    0x1(%eax),%edx
  1141f1:	89 55 e4             	mov    %edx,-0x1c(%ebp)
  1141f4:	c6 84 05 17 fe ff ff 	movb   $0x3b,-0x1e9(%ebp,%eax,1)
  1141fb:	3b 
  1141fc:	8d 95 17 fe ff ff    	lea    -0x1e9(%ebp),%edx
  114202:	8b 45 e4             	mov    -0x1c(%ebp),%eax
  114205:	01 d0                	add    %edx,%eax
  114207:	c6 00 00             	movb   $0x0,(%eax)
  11420a:	c7 85 5c fd ff ff 1d 	movl   $0x11761d,-0x2a4(%ebp)
  114211:	76 11 00 
  114214:	c7 85 60 fd ff ff 00 	movl   $0x0,-0x2a0(%ebp)
  11421b:	00 00 00 
  11421e:	c7 85 64 fd ff ff 00 	movl   $0x0,-0x29c(%ebp)
  114225:	00 00 00 
  114228:	8b 45 08             	mov    0x8(%ebp),%eax
  11422b:	83 c0 04             	add    $0x4,%eax
  11422e:	89 85 68 fd ff ff    	mov    %eax,-0x298(%ebp)
  114234:	c7 85 6c fd ff ff 01 	movl   $0x1,-0x294(%ebp)
  11423b:	00 00 00 
  11423e:	c7 85 70 fd ff ff 01 	movl   $0x1,-0x290(%ebp)
  114245:	00 00 00 
  114248:	8d 85 17 fe ff ff    	lea    -0x1e9(%ebp),%eax
  11424e:	89 85 74 fd ff ff    	mov    %eax,-0x28c(%ebp)
  114254:	c7 85 78 fd ff ff 00 	movl   $0x0,-0x288(%ebp)
  11425b:	00 00 00 
  11425e:	c7 85 7c fd ff ff 00 	movl   $0x0,-0x284(%ebp)
  114265:	00 00 00 
  114268:	83 ec 08             	sub    $0x8,%esp
  11426b:	6a 03                	push   $0x3
  11426d:	8d 85 5c fd ff ff    	lea    -0x2a4(%ebp),%eax
  114273:	50                   	push   %eax
  114274:	e8 23 f3 ff ff       	call   11359c <putfrags>
  114279:	83 c4 10             	add    $0x10,%esp
  11427c:	eb 52                	jmp    1142d0 <gdb_serial_converse+0x9b3>
  11427e:	c7 85 b0 fd ff ff 1f 	movl   $0x11761f,-0x250(%ebp)
  114285:	76 11 00 
  114288:	c7 85 b4 fd ff ff 00 	movl   $0x0,-0x24c(%ebp)
  11428f:	00 00 00 
  114292:	c7 85 b8 fd ff ff 00 	movl   $0x0,-0x248(%ebp)
  114299:	00 00 00 
  11429c:	8b 45 08             	mov    0x8(%ebp),%eax
  11429f:	83 c0 04             	add    $0x4,%eax
  1142a2:	89 85 bc fd ff ff    	mov    %eax,-0x244(%ebp)
  1142a8:	c7 85 c0 fd ff ff 01 	movl   $0x1,-0x240(%ebp)
  1142af:	00 00 00 
  1142b2:	c7 85 c4 fd ff ff 01 	movl   $0x1,-0x23c(%ebp)
  1142b9:	00 00 00 
  1142bc:	83 ec 08             	sub    $0x8,%esp
  1142bf:	6a 02                	push   $0x2
  1142c1:	8d 85 b0 fd ff ff    	lea    -0x250(%ebp),%eax
  1142c7:	50                   	push   %eax
  1142c8:	e8 cf f2 ff ff       	call   11359c <putfrags>
  1142cd:	83 c4 10             	add    $0x10,%esp
  1142d0:	e9 1f 01 00 00       	jmp    1143f4 <gdb_serial_converse+0xad7>
  1142d5:	c7 05 cc 12 13 00 00 	movl   $0x0,0x1312cc
  1142dc:	00 00 00 
  1142df:	c7 45 f4 04 00 00 00 	movl   $0x4,-0xc(%ebp)
  1142e6:	eb 49                	jmp    114331 <gdb_serial_converse+0xa14>
  1142e8:	c7 05 cc 12 13 00 00 	movl   $0x0,0x1312cc
  1142ef:	00 00 00 
  1142f2:	c7 45 f4 02 00 00 00 	movl   $0x2,-0xc(%ebp)
  1142f9:	e9 f6 00 00 00       	jmp    1143f4 <gdb_serial_converse+0xad7>
  1142fe:	c7 05 cc 12 13 00 00 	movl   $0x0,0x1312cc
  114305:	00 00 00 
  114308:	c7 45 f4 03 00 00 00 	movl   $0x3,-0xc(%ebp)
  11430f:	e9 e0 00 00 00       	jmp    1143f4 <gdb_serial_converse+0xad7>
  114314:	a1 c8 12 13 00       	mov    0x1312c8,%eax
  114319:	85 c0                	test   %eax,%eax
  11431b:	0f 94 c0             	sete   %al
  11431e:	25 ff 00 00 00       	and    $0xff,%eax
  114323:	a3 c8 12 13 00       	mov    %eax,0x1312c8
  114328:	eb 07                	jmp    114331 <gdb_serial_converse+0xa14>
  11432a:	90                   	nop
  11432b:	eb 04                	jmp    114331 <gdb_serial_converse+0xa14>
  11432d:	90                   	nop
  11432e:	eb 01                	jmp    114331 <gdb_serial_converse+0xa14>
  114330:	90                   	nop
  114331:	c7 85 a4 fd ff ff 21 	movl   $0x117621,-0x25c(%ebp)
  114338:	76 11 00 
  11433b:	c7 85 a8 fd ff ff 00 	movl   $0x0,-0x258(%ebp)
  114342:	00 00 00 
  114345:	c7 85 ac fd ff ff 00 	movl   $0x0,-0x254(%ebp)
  11434c:	00 00 00 
  11434f:	83 ec 08             	sub    $0x8,%esp
  114352:	6a 01                	push   $0x1
  114354:	8d 85 a4 fd ff ff    	lea    -0x25c(%ebp),%eax
  11435a:	50                   	push   %eax
  11435b:	e8 3c f2 ff ff       	call   11359c <putfrags>
  114360:	83 c4 10             	add    $0x10,%esp
  114363:	e9 8c 00 00 00       	jmp    1143f4 <gdb_serial_converse+0xad7>
  114368:	90                   	nop
  114369:	c7 85 8c fd ff ff 24 	movl   $0x117624,-0x274(%ebp)
  114370:	76 11 00 
  114373:	c7 85 90 fd ff ff 00 	movl   $0x0,-0x270(%ebp)
  11437a:	00 00 00 
  11437d:	c7 85 94 fd ff ff 00 	movl   $0x0,-0x26c(%ebp)
  114384:	00 00 00 
  114387:	8d 85 16 fe ff ff    	lea    -0x1ea(%ebp),%eax
  11438d:	89 85 98 fd ff ff    	mov    %eax,-0x268(%ebp)
  114393:	c7 85 9c fd ff ff 01 	movl   $0x1,-0x264(%ebp)
  11439a:	00 00 00 
  11439d:	c7 85 a0 fd ff ff 01 	movl   $0x1,-0x260(%ebp)
  1143a4:	00 00 00 
  1143a7:	83 ec 08             	sub    $0x8,%esp
  1143aa:	6a 02                	push   $0x2
  1143ac:	8d 85 8c fd ff ff    	lea    -0x274(%ebp),%eax
  1143b2:	50                   	push   %eax
  1143b3:	e8 e4 f1 ff ff       	call   11359c <putfrags>
  1143b8:	83 c4 10             	add    $0x10,%esp
  1143bb:	eb 37                	jmp    1143f4 <gdb_serial_converse+0xad7>
  1143bd:	90                   	nop
  1143be:	eb 01                	jmp    1143c1 <gdb_serial_converse+0xaa4>
  1143c0:	90                   	nop
  1143c1:	c7 85 80 fd ff ff 26 	movl   $0x117626,-0x280(%ebp)
  1143c8:	76 11 00 
  1143cb:	c7 85 84 fd ff ff 00 	movl   $0x0,-0x27c(%ebp)
  1143d2:	00 00 00 
  1143d5:	c7 85 88 fd ff ff 00 	movl   $0x0,-0x278(%ebp)
  1143dc:	00 00 00 
  1143df:	83 ec 08             	sub    $0x8,%esp
  1143e2:	6a 01                	push   $0x1
  1143e4:	8d 85 80 fd ff ff    	lea    -0x280(%ebp),%eax
  1143ea:	50                   	push   %eax
  1143eb:	e8 ac f1 ff ff       	call   11359c <putfrags>
  1143f0:	83 c4 10             	add    $0x10,%esp
  1143f3:	90                   	nop
  1143f4:	83 7d f4 00          	cmpl   $0x0,-0xc(%ebp)
  1143f8:	0f 84 40 f5 ff ff    	je     11393e <gdb_serial_converse+0x21>
  1143fe:	8b 45 f4             	mov    -0xc(%ebp),%eax
  114401:	8b 5d fc             	mov    -0x4(%ebp),%ebx
  114404:	89 ec                	mov    %ebp,%esp
  114406:	5d                   	pop    %ebp
  114407:	c3                   	ret    

00114408 <gdb_serial_exit>:
  114408:	55                   	push   %ebp
  114409:	89 e5                	mov    %esp,%ebp
  11440b:	83 ec 28             	sub    $0x28,%esp
  11440e:	8b 45 08             	mov    0x8(%ebp),%eax
  114411:	88 45 f7             	mov    %al,-0x9(%ebp)
  114414:	a1 c4 12 13 00       	mov    0x1312c4,%eax
  114419:	85 c0                	test   %eax,%eax
  11441b:	74 58                	je     114475 <gdb_serial_exit+0x6d>
  11441d:	a1 c0 12 13 00       	mov    0x1312c0,%eax
  114422:	85 c0                	test   %eax,%eax
  114424:	74 4f                	je     114475 <gdb_serial_exit+0x6d>
  114426:	a1 cc 12 13 00       	mov    0x1312cc,%eax
  11442b:	85 c0                	test   %eax,%eax
  11442d:	74 46                	je     114475 <gdb_serial_exit+0x6d>
  11442f:	c7 45 dc 74 77 11 00 	movl   $0x117774,-0x24(%ebp)
  114436:	c7 45 e0 00 00 00 00 	movl   $0x0,-0x20(%ebp)
  11443d:	c7 45 e4 00 00 00 00 	movl   $0x0,-0x1c(%ebp)
  114444:	8d 45 f7             	lea    -0x9(%ebp),%eax
  114447:	89 45 e8             	mov    %eax,-0x18(%ebp)
  11444a:	c7 45 ec 01 00 00 00 	movl   $0x1,-0x14(%ebp)
  114451:	c7 45 f0 01 00 00 00 	movl   $0x1,-0x10(%ebp)
  114458:	83 ec 08             	sub    $0x8,%esp
  11445b:	6a 02                	push   $0x2
  11445d:	8d 45 dc             	lea    -0x24(%ebp),%eax
  114460:	50                   	push   %eax
  114461:	e8 36 f1 ff ff       	call   11359c <putfrags>
  114466:	83 c4 10             	add    $0x10,%esp
  114469:	c7 05 cc 12 13 00 00 	movl   $0x0,0x1312cc
  114470:	00 00 00 
  114473:	eb 01                	jmp    114476 <gdb_serial_exit+0x6e>
  114475:	90                   	nop
  114476:	89 ec                	mov    %ebp,%esp
  114478:	5d                   	pop    %ebp
  114479:	c3                   	ret    

0011447a <gdb_serial_killed>:
  11447a:	55                   	push   %ebp
  11447b:	89 e5                	mov    %esp,%ebp
  11447d:	83 ec 28             	sub    $0x28,%esp
  114480:	8b 45 08             	mov    0x8(%ebp),%eax
  114483:	88 45 f7             	mov    %al,-0x9(%ebp)
  114486:	a1 c4 12 13 00       	mov    0x1312c4,%eax
  11448b:	85 c0                	test   %eax,%eax
  11448d:	74 58                	je     1144e7 <gdb_serial_killed+0x6d>
  11448f:	a1 c0 12 13 00       	mov    0x1312c0,%eax
  114494:	85 c0                	test   %eax,%eax
  114496:	74 4f                	je     1144e7 <gdb_serial_killed+0x6d>
  114498:	a1 cc 12 13 00       	mov    0x1312cc,%eax
  11449d:	85 c0                	test   %eax,%eax
  11449f:	74 46                	je     1144e7 <gdb_serial_killed+0x6d>
  1144a1:	c7 45 dc 76 77 11 00 	movl   $0x117776,-0x24(%ebp)
  1144a8:	c7 45 e0 00 00 00 00 	movl   $0x0,-0x20(%ebp)
  1144af:	c7 45 e4 00 00 00 00 	movl   $0x0,-0x1c(%ebp)
  1144b6:	8d 45 f7             	lea    -0x9(%ebp),%eax
  1144b9:	89 45 e8             	mov    %eax,-0x18(%ebp)
  1144bc:	c7 45 ec 01 00 00 00 	movl   $0x1,-0x14(%ebp)
  1144c3:	c7 45 f0 01 00 00 00 	movl   $0x1,-0x10(%ebp)
  1144ca:	83 ec 08             	sub    $0x8,%esp
  1144cd:	6a 02                	push   $0x2
  1144cf:	8d 45 dc             	lea    -0x24(%ebp),%eax
  1144d2:	50                   	push   %eax
  1144d3:	e8 c4 f0 ff ff       	call   11359c <putfrags>
  1144d8:	83 c4 10             	add    $0x10,%esp
  1144db:	c7 05 cc 12 13 00 00 	movl   $0x0,0x1312cc
  1144e2:	00 00 00 
  1144e5:	eb 01                	jmp    1144e8 <gdb_serial_killed+0x6e>
  1144e7:	90                   	nop
  1144e8:	89 ec                	mov    %ebp,%esp
  1144ea:	5d                   	pop    %ebp
  1144eb:	c3                   	ret    

001144ec <gdb_serial_putchar>:
  1144ec:	55                   	push   %ebp
  1144ed:	89 e5                	mov    %esp,%ebp
  1144ef:	83 ec 28             	sub    $0x28,%esp
  1144f2:	8b 45 08             	mov    0x8(%ebp),%eax
  1144f5:	88 45 f7             	mov    %al,-0x9(%ebp)
  1144f8:	a1 c4 12 13 00       	mov    0x1312c4,%eax
  1144fd:	85 c0                	test   %eax,%eax
  1144ff:	74 60                	je     114561 <gdb_serial_putchar+0x75>
  114501:	a1 c0 12 13 00       	mov    0x1312c0,%eax
  114506:	85 c0                	test   %eax,%eax
  114508:	74 57                	je     114561 <gdb_serial_putchar+0x75>
  11450a:	a1 cc 12 13 00       	mov    0x1312cc,%eax
  11450f:	85 c0                	test   %eax,%eax
  114511:	75 12                	jne    114525 <gdb_serial_putchar+0x39>
  114513:	a1 c4 12 13 00       	mov    0x1312c4,%eax
  114518:	83 ec 0c             	sub    $0xc,%esp
  11451b:	ff 75 08             	push   0x8(%ebp)
  11451e:	ff d0                	call   *%eax
  114520:	83 c4 10             	add    $0x10,%esp
  114523:	eb 3d                	jmp    114562 <gdb_serial_putchar+0x76>
  114525:	c7 45 dc 78 77 11 00 	movl   $0x117778,-0x24(%ebp)
  11452c:	c7 45 e0 00 00 00 00 	movl   $0x0,-0x20(%ebp)
  114533:	c7 45 e4 00 00 00 00 	movl   $0x0,-0x1c(%ebp)
  11453a:	8d 45 f7             	lea    -0x9(%ebp),%eax
  11453d:	89 45 e8             	mov    %eax,-0x18(%ebp)
  114540:	c7 45 ec 01 00 00 00 	movl   $0x1,-0x14(%ebp)
  114547:	c7 45 f0 01 00 00 00 	movl   $0x1,-0x10(%ebp)
  11454e:	83 ec 08             	sub    $0x8,%esp
  114551:	6a 02                	push   $0x2
  114553:	8d 45 dc             	lea    -0x24(%ebp),%eax
  114556:	50                   	push   %eax
  114557:	e8 40 f0 ff ff       	call   11359c <putfrags>
  11455c:	83 c4 10             	add    $0x10,%esp
  11455f:	eb 01                	jmp    114562 <gdb_serial_putchar+0x76>
  114561:	90                   	nop
  114562:	89 ec                	mov    %ebp,%esp
  114564:	5d                   	pop    %ebp
  114565:	c3                   	ret    

00114566 <gdb_serial_puts>:
  114566:	55                   	push   %ebp
  114567:	89 e5                	mov    %esp,%ebp
  114569:	83 ec 38             	sub    $0x38,%esp
  11456c:	a1 c4 12 13 00       	mov    0x1312c4,%eax
  114571:	85 c0                	test   %eax,%eax
  114573:	0f 84 a0 00 00 00    	je     114619 <gdb_serial_puts+0xb3>
  114579:	a1 c0 12 13 00       	mov    0x1312c0,%eax
  11457e:	85 c0                	test   %eax,%eax
  114580:	0f 84 93 00 00 00    	je     114619 <gdb_serial_puts+0xb3>
  114586:	a1 cc 12 13 00       	mov    0x1312cc,%eax
  11458b:	85 c0                	test   %eax,%eax
  11458d:	75 39                	jne    1145c8 <gdb_serial_puts+0x62>
  11458f:	eb 1d                	jmp    1145ae <gdb_serial_puts+0x48>
  114591:	8b 15 c4 12 13 00    	mov    0x1312c4,%edx
  114597:	8b 45 08             	mov    0x8(%ebp),%eax
  11459a:	8d 48 01             	lea    0x1(%eax),%ecx
  11459d:	89 4d 08             	mov    %ecx,0x8(%ebp)
  1145a0:	8a 00                	mov    (%eax),%al
  1145a2:	0f be c0             	movsbl %al,%eax
  1145a5:	83 ec 0c             	sub    $0xc,%esp
  1145a8:	50                   	push   %eax
  1145a9:	ff d2                	call   *%edx
  1145ab:	83 c4 10             	add    $0x10,%esp
  1145ae:	8b 45 08             	mov    0x8(%ebp),%eax
  1145b1:	8a 00                	mov    (%eax),%al
  1145b3:	84 c0                	test   %al,%al
  1145b5:	75 da                	jne    114591 <gdb_serial_puts+0x2b>
  1145b7:	a1 c4 12 13 00       	mov    0x1312c4,%eax
  1145bc:	83 ec 0c             	sub    $0xc,%esp
  1145bf:	6a 0a                	push   $0xa
  1145c1:	ff d0                	call   *%eax
  1145c3:	83 c4 10             	add    $0x10,%esp
  1145c6:	eb 52                	jmp    11461a <gdb_serial_puts+0xb4>
  1145c8:	c7 45 d4 78 77 11 00 	movl   $0x117778,-0x2c(%ebp)
  1145cf:	c7 45 d8 00 00 00 00 	movl   $0x0,-0x28(%ebp)
  1145d6:	c7 45 dc 00 00 00 00 	movl   $0x0,-0x24(%ebp)
  1145dd:	8b 45 08             	mov    0x8(%ebp),%eax
  1145e0:	89 45 e0             	mov    %eax,-0x20(%ebp)
  1145e3:	c7 45 e4 00 00 00 00 	movl   $0x0,-0x1c(%ebp)
  1145ea:	c7 45 e8 01 00 00 00 	movl   $0x1,-0x18(%ebp)
  1145f1:	c7 45 ec 7a 77 11 00 	movl   $0x11777a,-0x14(%ebp)
  1145f8:	c7 45 f0 01 00 00 00 	movl   $0x1,-0x10(%ebp)
  1145ff:	c7 45 f4 01 00 00 00 	movl   $0x1,-0xc(%ebp)
  114606:	83 ec 08             	sub    $0x8,%esp
  114609:	6a 03                	push   $0x3
  11460b:	8d 45 d4             	lea    -0x2c(%ebp),%eax
  11460e:	50                   	push   %eax
  11460f:	e8 88 ef ff ff       	call   11359c <putfrags>
  114614:	83 c4 10             	add    $0x10,%esp
  114617:	eb 01                	jmp    11461a <gdb_serial_puts+0xb4>
  114619:	90                   	nop
  11461a:	89 ec                	mov    %ebp,%esp
  11461c:	5d                   	pop    %ebp
  11461d:	c3                   	ret    

0011461e <phys_addr_lookup>:
  11461e:	55                   	push   %ebp
  11461f:	89 e5                	mov    %esp,%ebp
  114621:	83 ec 20             	sub    $0x20,%esp
  114624:	a1 d4 12 13 00       	mov    0x1312d4,%eax
  114629:	25 00 f0 ff ff       	and    $0xfffff000,%eax
  11462e:	89 45 fc             	mov    %eax,-0x4(%ebp)
  114631:	8b 45 08             	mov    0x8(%ebp),%eax
  114634:	c1 e8 16             	shr    $0x16,%eax
  114637:	8d 14 85 00 00 00 00 	lea    0x0(,%eax,4),%edx
  11463e:	8b 45 fc             	mov    -0x4(%ebp),%eax
  114641:	01 d0                	add    %edx,%eax
  114643:	8b 00                	mov    (%eax),%eax
  114645:	89 45 f8             	mov    %eax,-0x8(%ebp)
  114648:	a1 d0 12 13 00       	mov    0x1312d0,%eax
  11464d:	85 c0                	test   %eax,%eax
  11464f:	78 16                	js     114667 <phys_addr_lookup+0x49>
  114651:	8b 45 0c             	mov    0xc(%ebp),%eax
  114654:	8b 55 08             	mov    0x8(%ebp),%edx
  114657:	89 10                	mov    %edx,(%eax)
  114659:	8b 45 10             	mov    0x10(%ebp),%eax
  11465c:	c7 00 ff ff ff ff    	movl   $0xffffffff,(%eax)
  114662:	e9 b8 00 00 00       	jmp    11471f <phys_addr_lookup+0x101>
  114667:	8b 45 10             	mov    0x10(%ebp),%eax
  11466a:	c7 00 00 00 00 00    	movl   $0x0,(%eax)
  114670:	8b 45 f8             	mov    -0x8(%ebp),%eax
  114673:	83 e0 01             	and    $0x1,%eax
  114676:	85 c0                	test   %eax,%eax
  114678:	0f 84 9d 00 00 00    	je     11471b <phys_addr_lookup+0xfd>
  11467e:	8b 45 f8             	mov    -0x8(%ebp),%eax
  114681:	25 80 00 00 00       	and    $0x80,%eax
  114686:	85 c0                	test   %eax,%eax
  114688:	75 61                	jne    1146eb <phys_addr_lookup+0xcd>
  11468a:	8b 45 f8             	mov    -0x8(%ebp),%eax
  11468d:	25 00 f0 ff ff       	and    $0xfffff000,%eax
  114692:	89 45 f0             	mov    %eax,-0x10(%ebp)
  114695:	8b 45 08             	mov    0x8(%ebp),%eax
  114698:	c1 e8 0c             	shr    $0xc,%eax
  11469b:	25 ff 03 00 00       	and    $0x3ff,%eax
  1146a0:	8d 14 85 00 00 00 00 	lea    0x0(,%eax,4),%edx
  1146a7:	8b 45 f0             	mov    -0x10(%ebp),%eax
  1146aa:	01 d0                	add    %edx,%eax
  1146ac:	8b 00                	mov    (%eax),%eax
  1146ae:	89 45 ec             	mov    %eax,-0x14(%ebp)
  1146b1:	8b 45 08             	mov    0x8(%ebp),%eax
  1146b4:	25 ff 0f 00 00       	and    $0xfff,%eax
  1146b9:	89 45 e8             	mov    %eax,-0x18(%ebp)
  1146bc:	8b 45 ec             	mov    -0x14(%ebp),%eax
  1146bf:	83 e0 01             	and    $0x1,%eax
  1146c2:	85 c0                	test   %eax,%eax
  1146c4:	74 58                	je     11471e <phys_addr_lookup+0x100>
  1146c6:	8b 45 ec             	mov    -0x14(%ebp),%eax
  1146c9:	25 00 f0 ff ff       	and    $0xfffff000,%eax
  1146ce:	89 c2                	mov    %eax,%edx
  1146d0:	8b 45 e8             	mov    -0x18(%ebp),%eax
  1146d3:	01 c2                	add    %eax,%edx
  1146d5:	8b 45 0c             	mov    0xc(%ebp),%eax
  1146d8:	89 10                	mov    %edx,(%eax)
  1146da:	b8 00 10 00 00       	mov    $0x1000,%eax
  1146df:	2b 45 e8             	sub    -0x18(%ebp),%eax
  1146e2:	89 c2                	mov    %eax,%edx
  1146e4:	8b 45 10             	mov    0x10(%ebp),%eax
  1146e7:	89 10                	mov    %edx,(%eax)
  1146e9:	eb 34                	jmp    11471f <phys_addr_lookup+0x101>
  1146eb:	8b 45 08             	mov    0x8(%ebp),%eax
  1146ee:	25 ff ff 3f 00       	and    $0x3fffff,%eax
  1146f3:	89 45 f4             	mov    %eax,-0xc(%ebp)
  1146f6:	8b 45 f8             	mov    -0x8(%ebp),%eax
  1146f9:	25 00 00 c0 ff       	and    $0xffc00000,%eax
  1146fe:	89 c2                	mov    %eax,%edx
  114700:	8b 45 f4             	mov    -0xc(%ebp),%eax
  114703:	01 c2                	add    %eax,%edx
  114705:	8b 45 0c             	mov    0xc(%ebp),%eax
  114708:	89 10                	mov    %edx,(%eax)
  11470a:	b8 00 00 40 00       	mov    $0x400000,%eax
  11470f:	2b 45 f4             	sub    -0xc(%ebp),%eax
  114712:	89 c2                	mov    %eax,%edx
  114714:	8b 45 10             	mov    0x10(%ebp),%eax
  114717:	89 10                	mov    %edx,(%eax)
  114719:	eb 04                	jmp    11471f <phys_addr_lookup+0x101>
  11471b:	90                   	nop
  11471c:	eb 01                	jmp    11471f <phys_addr_lookup+0x101>
  11471e:	90                   	nop
  11471f:	89 ec                	mov    %ebp,%esp
  114721:	5d                   	pop    %ebp
  114722:	c3                   	ret    

00114723 <copy_client_paging_registers>:
  114723:	55                   	push   %ebp
  114724:	89 e5                	mov    %esp,%ebp
  114726:	8b 45 08             	mov    0x8(%ebp),%eax
  114729:	a3 d0 12 13 00       	mov    %eax,0x1312d0
  11472e:	8b 45 0c             	mov    0xc(%ebp),%eax
  114731:	a3 d4 12 13 00       	mov    %eax,0x1312d4
  114736:	90                   	nop
  114737:	5d                   	pop    %ebp
  114738:	c3                   	ret    

00114739 <disable_paging>:
  114739:	55                   	push   %ebp
  11473a:	89 e5                	mov    %esp,%ebp
  11473c:	83 ec 10             	sub    $0x10,%esp
  11473f:	0f 20 c0             	mov    %cr0,%eax
  114742:	89 c1                	mov    %eax,%ecx
  114744:	25 ff ff ff 7f       	and    $0x7fffffff,%eax
  114749:	0f 22 c0             	mov    %eax,%cr0
  11474c:	89 ca                	mov    %ecx,%edx
  11474e:	89 55 fc             	mov    %edx,-0x4(%ebp)
  114751:	89 45 f8             	mov    %eax,-0x8(%ebp)
  114754:	8b 45 fc             	mov    -0x4(%ebp),%eax
  114757:	89 ec                	mov    %ebp,%esp
  114759:	5d                   	pop    %ebp
  11475a:	c3                   	ret    

0011475b <restore_paging>:
  11475b:	55                   	push   %ebp
  11475c:	89 e5                	mov    %esp,%ebp
  11475e:	8b 45 08             	mov    0x8(%ebp),%eax
  114761:	0f 22 c0             	mov    %eax,%cr0
  114764:	90                   	nop
  114765:	5d                   	pop    %ebp
  114766:	c3                   	ret    

00114767 <gdb_copyin>:
  114767:	55                   	push   %ebp
  114768:	89 e5                	mov    %esp,%ebp
  11476a:	83 ec 18             	sub    $0x18,%esp
  11476d:	e8 c7 ff ff ff       	call   114739 <disable_paging>
  114772:	89 45 f4             	mov    %eax,-0xc(%ebp)
  114775:	eb 62                	jmp    1147d9 <gdb_copyin+0x72>
  114777:	8d 45 f0             	lea    -0x10(%ebp),%eax
  11477a:	50                   	push   %eax
  11477b:	8d 45 ec             	lea    -0x14(%ebp),%eax
  11477e:	50                   	push   %eax
  11477f:	ff 75 08             	push   0x8(%ebp)
  114782:	e8 97 fe ff ff       	call   11461e <phys_addr_lookup>
  114787:	83 c4 0c             	add    $0xc,%esp
  11478a:	8b 45 f0             	mov    -0x10(%ebp),%eax
  11478d:	85 c0                	test   %eax,%eax
  11478f:	75 12                	jne    1147a3 <gdb_copyin+0x3c>
  114791:	ff 75 f4             	push   -0xc(%ebp)
  114794:	e8 c2 ff ff ff       	call   11475b <restore_paging>
  114799:	83 c4 04             	add    $0x4,%esp
  11479c:	b8 ff ff ff ff       	mov    $0xffffffff,%eax
  1147a1:	eb 4f                	jmp    1147f2 <gdb_copyin+0x8b>
  1147a3:	8b 45 f0             	mov    -0x10(%ebp),%eax
  1147a6:	39 45 10             	cmp    %eax,0x10(%ebp)
  1147a9:	73 06                	jae    1147b1 <gdb_copyin+0x4a>
  1147ab:	8b 45 10             	mov    0x10(%ebp),%eax
  1147ae:	89 45 f0             	mov    %eax,-0x10(%ebp)
  1147b1:	8b 45 f0             	mov    -0x10(%ebp),%eax
  1147b4:	8b 55 ec             	mov    -0x14(%ebp),%edx
  1147b7:	83 ec 04             	sub    $0x4,%esp
  1147ba:	50                   	push   %eax
  1147bb:	52                   	push   %edx
  1147bc:	ff 75 0c             	push   0xc(%ebp)
  1147bf:	e8 a6 ad ff ff       	call   10f56a <memcpy>
  1147c4:	83 c4 10             	add    $0x10,%esp
  1147c7:	8b 45 f0             	mov    -0x10(%ebp),%eax
  1147ca:	29 45 10             	sub    %eax,0x10(%ebp)
  1147cd:	8b 45 f0             	mov    -0x10(%ebp),%eax
  1147d0:	01 45 08             	add    %eax,0x8(%ebp)
  1147d3:	8b 45 f0             	mov    -0x10(%ebp),%eax
  1147d6:	01 45 0c             	add    %eax,0xc(%ebp)
  1147d9:	83 7d 10 00          	cmpl   $0x0,0x10(%ebp)
  1147dd:	75 98                	jne    114777 <gdb_copyin+0x10>
  1147df:	83 ec 0c             	sub    $0xc,%esp
  1147e2:	ff 75 f4             	push   -0xc(%ebp)
  1147e5:	e8 71 ff ff ff       	call   11475b <restore_paging>
  1147ea:	83 c4 10             	add    $0x10,%esp
  1147ed:	b8 00 00 00 00       	mov    $0x0,%eax
  1147f2:	89 ec                	mov    %ebp,%esp
  1147f4:	5d                   	pop    %ebp
  1147f5:	c3                   	ret    

001147f6 <gdb_copyout>:
  1147f6:	55                   	push   %ebp
  1147f7:	89 e5                	mov    %esp,%ebp
  1147f9:	83 ec 18             	sub    $0x18,%esp
  1147fc:	e8 38 ff ff ff       	call   114739 <disable_paging>
  114801:	89 45 f4             	mov    %eax,-0xc(%ebp)
  114804:	eb 62                	jmp    114868 <gdb_copyout+0x72>
  114806:	8d 45 f0             	lea    -0x10(%ebp),%eax
  114809:	50                   	push   %eax
  11480a:	8d 45 ec             	lea    -0x14(%ebp),%eax
  11480d:	50                   	push   %eax
  11480e:	ff 75 0c             	push   0xc(%ebp)
  114811:	e8 08 fe ff ff       	call   11461e <phys_addr_lookup>
  114816:	83 c4 0c             	add    $0xc,%esp
  114819:	8b 45 f0             	mov    -0x10(%ebp),%eax
  11481c:	85 c0                	test   %eax,%eax
  11481e:	75 12                	jne    114832 <gdb_copyout+0x3c>
  114820:	ff 75 f4             	push   -0xc(%ebp)
  114823:	e8 33 ff ff ff       	call   11475b <restore_paging>
  114828:	83 c4 04             	add    $0x4,%esp
  11482b:	b8 ff ff ff ff       	mov    $0xffffffff,%eax
  114830:	eb 4f                	jmp    114881 <gdb_copyout+0x8b>
  114832:	8b 45 f0             	mov    -0x10(%ebp),%eax
  114835:	39 45 10             	cmp    %eax,0x10(%ebp)
  114838:	73 06                	jae    114840 <gdb_copyout+0x4a>
  11483a:	8b 45 10             	mov    0x10(%ebp),%eax
  11483d:	89 45 f0             	mov    %eax,-0x10(%ebp)
  114840:	8b 45 f0             	mov    -0x10(%ebp),%eax
  114843:	8b 55 ec             	mov    -0x14(%ebp),%edx
  114846:	83 ec 04             	sub    $0x4,%esp
  114849:	50                   	push   %eax
  11484a:	ff 75 08             	push   0x8(%ebp)
  11484d:	52                   	push   %edx
  11484e:	e8 17 ad ff ff       	call   10f56a <memcpy>
  114853:	83 c4 10             	add    $0x10,%esp
  114856:	8b 45 f0             	mov    -0x10(%ebp),%eax
  114859:	29 45 10             	sub    %eax,0x10(%ebp)
  11485c:	8b 45 f0             	mov    -0x10(%ebp),%eax
  11485f:	01 45 0c             	add    %eax,0xc(%ebp)
  114862:	8b 45 f0             	mov    -0x10(%ebp),%eax
  114865:	01 45 08             	add    %eax,0x8(%ebp)
  114868:	83 7d 10 00          	cmpl   $0x0,0x10(%ebp)
  11486c:	75 98                	jne    114806 <gdb_copyout+0x10>
  11486e:	83 ec 0c             	sub    $0xc,%esp
  114871:	ff 75 f4             	push   -0xc(%ebp)
  114874:	e8 e2 fe ff ff       	call   11475b <restore_paging>
  114879:	83 c4 10             	add    $0x10,%esp
  11487c:	b8 00 00 00 00       	mov    $0x0,%eax
  114881:	89 ec                	mov    %ebp,%esp
  114883:	5d                   	pop    %ebp
  114884:	c3                   	ret    

00114885 <gdb_set_trace_flag>:
  114885:	55                   	push   %ebp
  114886:	89 e5                	mov    %esp,%ebp
  114888:	83 7d 08 00          	cmpl   $0x0,0x8(%ebp)
  11488c:	74 13                	je     1148a1 <gdb_set_trace_flag+0x1c>
  11488e:	8b 45 0c             	mov    0xc(%ebp),%eax
  114891:	8b 40 24             	mov    0x24(%eax),%eax
  114894:	80 cc 01             	or     $0x1,%ah
  114897:	89 c2                	mov    %eax,%edx
  114899:	8b 45 0c             	mov    0xc(%ebp),%eax
  11489c:	89 50 24             	mov    %edx,0x24(%eax)
  11489f:	eb 11                	jmp    1148b2 <gdb_set_trace_flag+0x2d>
  1148a1:	8b 45 0c             	mov    0xc(%ebp),%eax
  1148a4:	8b 40 24             	mov    0x24(%eax),%eax
  1148a7:	80 e4 fe             	and    $0xfe,%ah
  1148aa:	89 c2                	mov    %eax,%edx
  1148ac:	8b 45 0c             	mov    0xc(%ebp),%eax
  1148af:	89 50 24             	mov    %edx,0x24(%eax)
  1148b2:	90                   	nop
  1148b3:	5d                   	pop    %ebp
  1148b4:	c3                   	ret    

001148b5 <us_sbrk>:
  1148b5:	55                   	push   %ebp
  1148b6:	89 e5                	mov    %esp,%ebp
  1148b8:	83 ec 10             	sub    $0x10,%esp
  1148bb:	a1 54 a1 11 00       	mov    0x11a154,%eax
  1148c0:	89 45 fc             	mov    %eax,-0x4(%ebp)
  1148c3:	8b 55 08             	mov    0x8(%ebp),%edx
  1148c6:	8b 45 fc             	mov    -0x4(%ebp),%eax
  1148c9:	01 d0                	add    %edx,%eax
  1148cb:	89 45 f8             	mov    %eax,-0x8(%ebp)
  1148ce:	a1 54 a1 11 00       	mov    0x11a154,%eax
  1148d3:	39 45 f8             	cmp    %eax,-0x8(%ebp)
  1148d6:	72 09                	jb     1148e1 <us_sbrk+0x2c>
  1148d8:	81 7d f8 00 00 00 03 	cmpl   $0x3000000,-0x8(%ebp)
  1148df:	76 07                	jbe    1148e8 <us_sbrk+0x33>
  1148e1:	b8 ff ff ff ff       	mov    $0xffffffff,%eax
  1148e6:	eb 0b                	jmp    1148f3 <us_sbrk+0x3e>
  1148e8:	8b 45 f8             	mov    -0x8(%ebp),%eax
  1148eb:	a3 54 a1 11 00       	mov    %eax,0x11a154
  1148f0:	8b 45 fc             	mov    -0x4(%ebp),%eax
  1148f3:	89 ec                	mov    %ebp,%esp
  1148f5:	5d                   	pop    %ebp
  1148f6:	c3                   	ret    

001148f7 <largebin_index>:
  1148f7:	55                   	push   %ebp
  1148f8:	89 e5                	mov    %esp,%ebp
  1148fa:	53                   	push   %ebx
  1148fb:	83 ec 10             	sub    $0x10,%esp
  1148fe:	8b 45 08             	mov    0x8(%ebp),%eax
  114901:	c1 e8 08             	shr    $0x8,%eax
  114904:	89 45 f8             	mov    %eax,-0x8(%ebp)
  114907:	81 7d f8 ff ff 00 00 	cmpl   $0xffff,-0x8(%ebp)
  11490e:	76 07                	jbe    114917 <largebin_index+0x20>
  114910:	b8 5f 00 00 00       	mov    $0x5f,%eax
  114915:	eb 28                	jmp    11493f <largebin_index+0x48>
  114917:	0f bd 45 f8          	bsr    -0x8(%ebp),%eax
  11491b:	89 45 f4             	mov    %eax,-0xc(%ebp)
  11491e:	8b 45 f4             	mov    -0xc(%ebp),%eax
  114921:	8d 1c 85 00 00 00 00 	lea    0x0(,%eax,4),%ebx
  114928:	8b 45 f4             	mov    -0xc(%ebp),%eax
  11492b:	83 c0 06             	add    $0x6,%eax
  11492e:	8b 55 08             	mov    0x8(%ebp),%edx
  114931:	88 c1                	mov    %al,%cl
  114933:	d3 ea                	shr    %cl,%edx
  114935:	89 d0                	mov    %edx,%eax
  114937:	83 e0 03             	and    $0x3,%eax
  11493a:	01 d8                	add    %ebx,%eax
  11493c:	83 c0 20             	add    $0x20,%eax
  11493f:	83 c4 10             	add    $0x10,%esp
  114942:	5b                   	pop    %ebx
  114943:	5d                   	pop    %ebp
  114944:	c3                   	ret    

00114945 <malloc_init_state>:
  114945:	55                   	push   %ebp
  114946:	89 e5                	mov    %esp,%ebp
  114948:	83 ec 10             	sub    $0x10,%esp
  11494b:	c7 45 fc 01 00 00 00 	movl   $0x1,-0x4(%ebp)
  114952:	eb 35                	jmp    114989 <malloc_init_state+0x44>
  114954:	8b 45 fc             	mov    -0x4(%ebp),%eax
  114957:	01 c0                	add    %eax,%eax
  114959:	83 c0 0c             	add    $0xc,%eax
  11495c:	8d 14 85 00 00 00 00 	lea    0x0(,%eax,4),%edx
  114963:	8b 45 08             	mov    0x8(%ebp),%eax
  114966:	01 d0                	add    %edx,%eax
  114968:	83 c0 04             	add    $0x4,%eax
  11496b:	83 e8 08             	sub    $0x8,%eax
  11496e:	89 45 f8             	mov    %eax,-0x8(%ebp)
  114971:	8b 45 f8             	mov    -0x8(%ebp),%eax
  114974:	8b 55 f8             	mov    -0x8(%ebp),%edx
  114977:	89 50 0c             	mov    %edx,0xc(%eax)
  11497a:	8b 45 f8             	mov    -0x8(%ebp),%eax
  11497d:	8b 50 0c             	mov    0xc(%eax),%edx
  114980:	8b 45 f8             	mov    -0x8(%ebp),%eax
  114983:	89 50 08             	mov    %edx,0x8(%eax)
  114986:	ff 45 fc             	incl   -0x4(%ebp)
  114989:	83 7d fc 5f          	cmpl   $0x5f,-0x4(%ebp)
  11498d:	7e c5                	jle    114954 <malloc_init_state+0xf>
  11498f:	8b 45 08             	mov    0x8(%ebp),%eax
  114992:	c7 80 48 03 00 00 00 	movl   $0x0,0x348(%eax)
  114999:	00 00 00 
  11499c:	8b 45 08             	mov    0x8(%ebp),%eax
  11499f:	c7 80 54 03 00 00 00 	movl   $0x0,0x354(%eax)
  1149a6:	00 00 00 
  1149a9:	8b 45 08             	mov    0x8(%ebp),%eax
  1149ac:	c7 80 4c 03 00 00 00 	movl   $0x40000,0x34c(%eax)
  1149b3:	00 04 00 
  1149b6:	8b 45 08             	mov    0x8(%ebp),%eax
  1149b9:	c7 80 44 03 00 00 00 	movl   $0x40000,0x344(%eax)
  1149c0:	00 04 00 
  1149c3:	8b 45 08             	mov    0x8(%ebp),%eax
  1149c6:	8b 80 60 03 00 00    	mov    0x360(%eax),%eax
  1149cc:	83 c8 01             	or     $0x1,%eax
  1149cf:	89 c2                	mov    %eax,%edx
  1149d1:	8b 45 08             	mov    0x8(%ebp),%eax
  1149d4:	89 90 60 03 00 00    	mov    %edx,0x360(%eax)
  1149da:	8b 45 08             	mov    0x8(%ebp),%eax
  1149dd:	8b 00                	mov    (%eax),%eax
  1149df:	83 e0 03             	and    $0x3,%eax
  1149e2:	83 c8 48             	or     $0x48,%eax
  1149e5:	89 c2                	mov    %eax,%edx
  1149e7:	8b 45 08             	mov    0x8(%ebp),%eax
  1149ea:	89 10                	mov    %edx,(%eax)
  1149ec:	8b 45 08             	mov    0x8(%ebp),%eax
  1149ef:	83 c0 3c             	add    $0x3c,%eax
  1149f2:	8d 50 f8             	lea    -0x8(%eax),%edx
  1149f5:	8b 45 08             	mov    0x8(%ebp),%eax
  1149f8:	89 50 2c             	mov    %edx,0x2c(%eax)
  1149fb:	8b 45 08             	mov    0x8(%ebp),%eax
  1149fe:	c7 80 5c 03 00 00 00 	movl   $0x1000,0x35c(%eax)
  114a05:	10 00 00 
  114a08:	90                   	nop
  114a09:	89 ec                	mov    %ebp,%esp
  114a0b:	5d                   	pop    %ebp
  114a0c:	c3                   	ret    

00114a0d <sYSMALLOc>:
  114a0d:	55                   	push   %ebp
  114a0e:	89 e5                	mov    %esp,%ebp
  114a10:	83 ec 48             	sub    $0x48,%esp
  114a13:	8b 45 0c             	mov    0xc(%ebp),%eax
  114a16:	8b 80 5c 03 00 00    	mov    0x35c(%eax),%eax
  114a1c:	48                   	dec    %eax
  114a1d:	89 45 e0             	mov    %eax,-0x20(%ebp)
  114a20:	8b 45 0c             	mov    0xc(%ebp),%eax
  114a23:	8b 00                	mov    (%eax),%eax
  114a25:	83 e0 02             	and    $0x2,%eax
  114a28:	85 c0                	test   %eax,%eax
  114a2a:	74 25                	je     114a51 <sYSMALLOc+0x44>
  114a2c:	83 ec 0c             	sub    $0xc,%esp
  114a2f:	ff 75 0c             	push   0xc(%ebp)
  114a32:	e8 1a 0e 00 00       	call   115851 <malloc_consolidate>
  114a37:	83 c4 10             	add    $0x10,%esp
  114a3a:	8b 45 08             	mov    0x8(%ebp),%eax
  114a3d:	83 e8 07             	sub    $0x7,%eax
  114a40:	83 ec 0c             	sub    $0xc,%esp
  114a43:	50                   	push   %eax
  114a44:	e8 90 04 00 00       	call   114ed9 <kusmalloc>
  114a49:	83 c4 10             	add    $0x10,%esp
  114a4c:	e9 b5 03 00 00       	jmp    114e06 <sYSMALLOc+0x3f9>
  114a51:	8b 45 0c             	mov    0xc(%ebp),%eax
  114a54:	8b 40 2c             	mov    0x2c(%eax),%eax
  114a57:	89 45 dc             	mov    %eax,-0x24(%ebp)
  114a5a:	8b 45 dc             	mov    -0x24(%ebp),%eax
  114a5d:	8b 40 04             	mov    0x4(%eax),%eax
  114a60:	83 e0 fc             	and    $0xfffffffc,%eax
  114a63:	89 45 d8             	mov    %eax,-0x28(%ebp)
  114a66:	8b 55 dc             	mov    -0x24(%ebp),%edx
  114a69:	8b 45 d8             	mov    -0x28(%ebp),%eax
  114a6c:	01 d0                	add    %edx,%eax
  114a6e:	89 45 d4             	mov    %eax,-0x2c(%ebp)
  114a71:	c7 45 e8 ff ff ff ff 	movl   $0xffffffff,-0x18(%ebp)
  114a78:	8b 45 e8             	mov    -0x18(%ebp),%eax
  114a7b:	89 45 f0             	mov    %eax,-0x10(%ebp)
  114a7e:	8b 45 0c             	mov    0xc(%ebp),%eax
  114a81:	8b 90 48 03 00 00    	mov    0x348(%eax),%edx
  114a87:	8b 45 08             	mov    0x8(%ebp),%eax
  114a8a:	01 d0                	add    %edx,%eax
  114a8c:	83 c0 10             	add    $0x10,%eax
  114a8f:	89 45 f4             	mov    %eax,-0xc(%ebp)
  114a92:	8b 45 0c             	mov    0xc(%ebp),%eax
  114a95:	8b 80 60 03 00 00    	mov    0x360(%eax),%eax
  114a9b:	83 e0 01             	and    $0x1,%eax
  114a9e:	85 c0                	test   %eax,%eax
  114aa0:	74 09                	je     114aab <sYSMALLOc+0x9e>
  114aa2:	8b 45 f4             	mov    -0xc(%ebp),%eax
  114aa5:	2b 45 d8             	sub    -0x28(%ebp),%eax
  114aa8:	89 45 f4             	mov    %eax,-0xc(%ebp)
  114aab:	8b 55 f4             	mov    -0xc(%ebp),%edx
  114aae:	8b 45 e0             	mov    -0x20(%ebp),%eax
  114ab1:	01 c2                	add    %eax,%edx
  114ab3:	8b 45 e0             	mov    -0x20(%ebp),%eax
  114ab6:	f7 d0                	not    %eax
  114ab8:	21 d0                	and    %edx,%eax
  114aba:	89 45 f4             	mov    %eax,-0xc(%ebp)
  114abd:	83 7d f4 00          	cmpl   $0x0,-0xc(%ebp)
  114ac1:	7e 11                	jle    114ad4 <sYSMALLOc+0xc7>
  114ac3:	83 ec 0c             	sub    $0xc,%esp
  114ac6:	ff 75 f4             	push   -0xc(%ebp)
  114ac9:	e8 e7 fd ff ff       	call   1148b5 <us_sbrk>
  114ace:	83 c4 10             	add    $0x10,%esp
  114ad1:	89 45 f0             	mov    %eax,-0x10(%ebp)
  114ad4:	83 7d f0 ff          	cmpl   $0xffffffff,-0x10(%ebp)
  114ad8:	0f 84 23 03 00 00    	je     114e01 <sYSMALLOc+0x3f4>
  114ade:	8b 45 0c             	mov    0xc(%ebp),%eax
  114ae1:	8b 90 68 03 00 00    	mov    0x368(%eax),%edx
  114ae7:	8b 45 f4             	mov    -0xc(%ebp),%eax
  114aea:	01 c2                	add    %eax,%edx
  114aec:	8b 45 0c             	mov    0xc(%ebp),%eax
  114aef:	89 90 68 03 00 00    	mov    %edx,0x368(%eax)
  114af5:	8b 45 f0             	mov    -0x10(%ebp),%eax
  114af8:	3b 45 d4             	cmp    -0x2c(%ebp),%eax
  114afb:	75 1e                	jne    114b1b <sYSMALLOc+0x10e>
  114afd:	83 7d e8 ff          	cmpl   $0xffffffff,-0x18(%ebp)
  114b01:	75 18                	jne    114b1b <sYSMALLOc+0x10e>
  114b03:	8b 55 f4             	mov    -0xc(%ebp),%edx
  114b06:	8b 45 d8             	mov    -0x28(%ebp),%eax
  114b09:	01 d0                	add    %edx,%eax
  114b0b:	83 c8 01             	or     $0x1,%eax
  114b0e:	89 c2                	mov    %eax,%edx
  114b10:	8b 45 dc             	mov    -0x24(%ebp),%eax
  114b13:	89 50 04             	mov    %edx,0x4(%eax)
  114b16:	e9 37 02 00 00       	jmp    114d52 <sYSMALLOc+0x345>
  114b1b:	c7 45 d0 00 00 00 00 	movl   $0x0,-0x30(%ebp)
  114b22:	c7 45 cc 00 00 00 00 	movl   $0x0,-0x34(%ebp)
  114b29:	c7 45 ec 00 00 00 00 	movl   $0x0,-0x14(%ebp)
  114b30:	8b 45 f0             	mov    -0x10(%ebp),%eax
  114b33:	89 45 e4             	mov    %eax,-0x1c(%ebp)
  114b36:	8b 45 0c             	mov    0xc(%ebp),%eax
  114b39:	8b 80 60 03 00 00    	mov    0x360(%eax),%eax
  114b3f:	83 e0 01             	and    $0x1,%eax
  114b42:	85 c0                	test   %eax,%eax
  114b44:	74 25                	je     114b6b <sYSMALLOc+0x15e>
  114b46:	83 7d d8 00          	cmpl   $0x0,-0x28(%ebp)
  114b4a:	74 1f                	je     114b6b <sYSMALLOc+0x15e>
  114b4c:	8b 45 f0             	mov    -0x10(%ebp),%eax
  114b4f:	3b 45 d4             	cmp    -0x2c(%ebp),%eax
  114b52:	73 17                	jae    114b6b <sYSMALLOc+0x15e>
  114b54:	8b 45 0c             	mov    0xc(%ebp),%eax
  114b57:	8b 80 60 03 00 00    	mov    0x360(%eax),%eax
  114b5d:	83 e0 fe             	and    $0xfffffffe,%eax
  114b60:	89 c2                	mov    %eax,%edx
  114b62:	8b 45 0c             	mov    0xc(%ebp),%eax
  114b65:	89 90 60 03 00 00    	mov    %edx,0x360(%eax)
  114b6b:	8b 45 0c             	mov    0xc(%ebp),%eax
  114b6e:	8b 80 60 03 00 00    	mov    0x360(%eax),%eax
  114b74:	83 e0 01             	and    $0x1,%eax
  114b77:	85 c0                	test   %eax,%eax
  114b79:	0f 84 dd 00 00 00    	je     114c5c <sYSMALLOc+0x24f>
  114b7f:	83 7d d8 00          	cmpl   $0x0,-0x28(%ebp)
  114b83:	74 1a                	je     114b9f <sYSMALLOc+0x192>
  114b85:	8b 45 0c             	mov    0xc(%ebp),%eax
  114b88:	8b 90 68 03 00 00    	mov    0x368(%eax),%edx
  114b8e:	8b 45 f0             	mov    -0x10(%ebp),%eax
  114b91:	2b 45 d4             	sub    -0x2c(%ebp),%eax
  114b94:	01 c2                	add    %eax,%edx
  114b96:	8b 45 0c             	mov    0xc(%ebp),%eax
  114b99:	89 90 68 03 00 00    	mov    %edx,0x368(%eax)
  114b9f:	8b 45 f0             	mov    -0x10(%ebp),%eax
  114ba2:	83 c0 08             	add    $0x8,%eax
  114ba5:	83 e0 07             	and    $0x7,%eax
  114ba8:	89 45 d0             	mov    %eax,-0x30(%ebp)
  114bab:	83 7d d0 00          	cmpl   $0x0,-0x30(%ebp)
  114baf:	74 11                	je     114bc2 <sYSMALLOc+0x1b5>
  114bb1:	b8 08 00 00 00       	mov    $0x8,%eax
  114bb6:	2b 45 d0             	sub    -0x30(%ebp),%eax
  114bb9:	89 45 ec             	mov    %eax,-0x14(%ebp)
  114bbc:	8b 45 ec             	mov    -0x14(%ebp),%eax
  114bbf:	01 45 e4             	add    %eax,-0x1c(%ebp)
  114bc2:	8b 55 ec             	mov    -0x14(%ebp),%edx
  114bc5:	8b 45 d8             	mov    -0x28(%ebp),%eax
  114bc8:	01 d0                	add    %edx,%eax
  114bca:	89 45 ec             	mov    %eax,-0x14(%ebp)
  114bcd:	8b 55 f4             	mov    -0xc(%ebp),%edx
  114bd0:	8b 45 ec             	mov    -0x14(%ebp),%eax
  114bd3:	01 c2                	add    %eax,%edx
  114bd5:	8b 45 f0             	mov    -0x10(%ebp),%eax
  114bd8:	01 d0                	add    %edx,%eax
  114bda:	89 45 cc             	mov    %eax,-0x34(%ebp)
  114bdd:	8b 55 cc             	mov    -0x34(%ebp),%edx
  114be0:	8b 45 e0             	mov    -0x20(%ebp),%eax
  114be3:	01 c2                	add    %eax,%edx
  114be5:	8b 45 e0             	mov    -0x20(%ebp),%eax
  114be8:	f7 d0                	not    %eax
  114bea:	21 d0                	and    %edx,%eax
  114bec:	2b 45 cc             	sub    -0x34(%ebp),%eax
  114bef:	89 c2                	mov    %eax,%edx
  114bf1:	8b 45 ec             	mov    -0x14(%ebp),%eax
  114bf4:	01 d0                	add    %edx,%eax
  114bf6:	89 45 ec             	mov    %eax,-0x14(%ebp)
  114bf9:	83 ec 0c             	sub    $0xc,%esp
  114bfc:	ff 75 ec             	push   -0x14(%ebp)
  114bff:	e8 b1 fc ff ff       	call   1148b5 <us_sbrk>
  114c04:	83 c4 10             	add    $0x10,%esp
  114c07:	89 45 e8             	mov    %eax,-0x18(%ebp)
  114c0a:	83 7d e8 ff          	cmpl   $0xffffffff,-0x18(%ebp)
  114c0e:	75 19                	jne    114c29 <sYSMALLOc+0x21c>
  114c10:	c7 45 ec 00 00 00 00 	movl   $0x0,-0x14(%ebp)
  114c17:	83 ec 0c             	sub    $0xc,%esp
  114c1a:	6a 00                	push   $0x0
  114c1c:	e8 94 fc ff ff       	call   1148b5 <us_sbrk>
  114c21:	83 c4 10             	add    $0x10,%esp
  114c24:	89 45 e8             	mov    %eax,-0x18(%ebp)
  114c27:	eb 66                	jmp    114c8f <sYSMALLOc+0x282>
  114c29:	8b 45 e8             	mov    -0x18(%ebp),%eax
  114c2c:	3b 45 f0             	cmp    -0x10(%ebp),%eax
  114c2f:	73 5e                	jae    114c8f <sYSMALLOc+0x282>
  114c31:	8b 55 f4             	mov    -0xc(%ebp),%edx
  114c34:	8b 45 f0             	mov    -0x10(%ebp),%eax
  114c37:	01 d0                	add    %edx,%eax
  114c39:	89 45 e8             	mov    %eax,-0x18(%ebp)
  114c3c:	c7 45 ec 00 00 00 00 	movl   $0x0,-0x14(%ebp)
  114c43:	8b 45 0c             	mov    0xc(%ebp),%eax
  114c46:	8b 80 60 03 00 00    	mov    0x360(%eax),%eax
  114c4c:	83 e0 fe             	and    $0xfffffffe,%eax
  114c4f:	89 c2                	mov    %eax,%edx
  114c51:	8b 45 0c             	mov    0xc(%ebp),%eax
  114c54:	89 90 60 03 00 00    	mov    %edx,0x360(%eax)
  114c5a:	eb 33                	jmp    114c8f <sYSMALLOc+0x282>
  114c5c:	83 7d e8 ff          	cmpl   $0xffffffff,-0x18(%ebp)
  114c60:	75 2d                	jne    114c8f <sYSMALLOc+0x282>
  114c62:	83 ec 0c             	sub    $0xc,%esp
  114c65:	6a 00                	push   $0x0
  114c67:	e8 49 fc ff ff       	call   1148b5 <us_sbrk>
  114c6c:	83 c4 10             	add    $0x10,%esp
  114c6f:	89 45 e8             	mov    %eax,-0x18(%ebp)
  114c72:	8b 45 0c             	mov    0xc(%ebp),%eax
  114c75:	8b 90 68 03 00 00    	mov    0x368(%eax),%edx
  114c7b:	8b 45 e8             	mov    -0x18(%ebp),%eax
  114c7e:	2b 45 f0             	sub    -0x10(%ebp),%eax
  114c81:	2b 45 f4             	sub    -0xc(%ebp),%eax
  114c84:	01 c2                	add    %eax,%edx
  114c86:	8b 45 0c             	mov    0xc(%ebp),%eax
  114c89:	89 90 68 03 00 00    	mov    %edx,0x368(%eax)
  114c8f:	83 7d e8 ff          	cmpl   $0xffffffff,-0x18(%ebp)
  114c93:	0f 84 b9 00 00 00    	je     114d52 <sYSMALLOc+0x345>
  114c99:	8b 45 0c             	mov    0xc(%ebp),%eax
  114c9c:	8b 55 e4             	mov    -0x1c(%ebp),%edx
  114c9f:	89 50 2c             	mov    %edx,0x2c(%eax)
  114ca2:	8b 45 e8             	mov    -0x18(%ebp),%eax
  114ca5:	2b 45 e4             	sub    -0x1c(%ebp),%eax
  114ca8:	89 c2                	mov    %eax,%edx
  114caa:	8b 45 ec             	mov    -0x14(%ebp),%eax
  114cad:	01 d0                	add    %edx,%eax
  114caf:	83 c8 01             	or     $0x1,%eax
  114cb2:	89 c2                	mov    %eax,%edx
  114cb4:	8b 45 0c             	mov    0xc(%ebp),%eax
  114cb7:	8b 40 2c             	mov    0x2c(%eax),%eax
  114cba:	89 50 04             	mov    %edx,0x4(%eax)
  114cbd:	8b 45 0c             	mov    0xc(%ebp),%eax
  114cc0:	8b 90 68 03 00 00    	mov    0x368(%eax),%edx
  114cc6:	8b 45 ec             	mov    -0x14(%ebp),%eax
  114cc9:	01 c2                	add    %eax,%edx
  114ccb:	8b 45 0c             	mov    0xc(%ebp),%eax
  114cce:	89 90 68 03 00 00    	mov    %edx,0x368(%eax)
  114cd4:	83 7d d8 00          	cmpl   $0x0,-0x28(%ebp)
  114cd8:	74 78                	je     114d52 <sYSMALLOc+0x345>
  114cda:	8b 45 d8             	mov    -0x28(%ebp),%eax
  114cdd:	83 e8 0c             	sub    $0xc,%eax
  114ce0:	83 e0 f8             	and    $0xfffffff8,%eax
  114ce3:	89 45 d8             	mov    %eax,-0x28(%ebp)
  114ce6:	8b 45 d8             	mov    -0x28(%ebp),%eax
  114ce9:	83 c8 01             	or     $0x1,%eax
  114cec:	89 c2                	mov    %eax,%edx
  114cee:	8b 45 dc             	mov    -0x24(%ebp),%eax
  114cf1:	89 50 04             	mov    %edx,0x4(%eax)
  114cf4:	8b 55 dc             	mov    -0x24(%ebp),%edx
  114cf7:	8b 45 d8             	mov    -0x28(%ebp),%eax
  114cfa:	01 d0                	add    %edx,%eax
  114cfc:	c7 40 04 05 00 00 00 	movl   $0x5,0x4(%eax)
  114d03:	8b 45 d8             	mov    -0x28(%ebp),%eax
  114d06:	8d 50 04             	lea    0x4(%eax),%edx
  114d09:	8b 45 dc             	mov    -0x24(%ebp),%eax
  114d0c:	01 d0                	add    %edx,%eax
  114d0e:	c7 40 04 05 00 00 00 	movl   $0x5,0x4(%eax)
  114d15:	83 7d d8 0f          	cmpl   $0xf,-0x28(%ebp)
  114d19:	76 37                	jbe    114d52 <sYSMALLOc+0x345>
  114d1b:	8b 45 0c             	mov    0xc(%ebp),%eax
  114d1e:	8b 80 44 03 00 00    	mov    0x344(%eax),%eax
  114d24:	89 45 c8             	mov    %eax,-0x38(%ebp)
  114d27:	8b 45 0c             	mov    0xc(%ebp),%eax
  114d2a:	c7 80 44 03 00 00 ff 	movl   $0xffffffff,0x344(%eax)
  114d31:	ff ff ff 
  114d34:	8b 45 dc             	mov    -0x24(%ebp),%eax
  114d37:	83 c0 08             	add    $0x8,%eax
  114d3a:	83 ec 0c             	sub    $0xc,%esp
  114d3d:	50                   	push   %eax
  114d3e:	e8 f1 08 00 00       	call   115634 <kusfree>
  114d43:	83 c4 10             	add    $0x10,%esp
  114d46:	8b 45 0c             	mov    0xc(%ebp),%eax
  114d49:	8b 55 c8             	mov    -0x38(%ebp),%edx
  114d4c:	89 90 44 03 00 00    	mov    %edx,0x344(%eax)
  114d52:	8b 45 0c             	mov    0xc(%ebp),%eax
  114d55:	8b 80 68 03 00 00    	mov    0x368(%eax),%eax
  114d5b:	89 45 c4             	mov    %eax,-0x3c(%ebp)
  114d5e:	8b 45 0c             	mov    0xc(%ebp),%eax
  114d61:	8b 80 6c 03 00 00    	mov    0x36c(%eax),%eax
  114d67:	39 45 c4             	cmp    %eax,-0x3c(%ebp)
  114d6a:	76 0c                	jbe    114d78 <sYSMALLOc+0x36b>
  114d6c:	8b 45 0c             	mov    0xc(%ebp),%eax
  114d6f:	8b 55 c4             	mov    -0x3c(%ebp),%edx
  114d72:	89 90 6c 03 00 00    	mov    %edx,0x36c(%eax)
  114d78:	8b 45 0c             	mov    0xc(%ebp),%eax
  114d7b:	8b 80 64 03 00 00    	mov    0x364(%eax),%eax
  114d81:	01 45 c4             	add    %eax,-0x3c(%ebp)
  114d84:	8b 45 0c             	mov    0xc(%ebp),%eax
  114d87:	8b 80 74 03 00 00    	mov    0x374(%eax),%eax
  114d8d:	39 45 c4             	cmp    %eax,-0x3c(%ebp)
  114d90:	76 0c                	jbe    114d9e <sYSMALLOc+0x391>
  114d92:	8b 45 0c             	mov    0xc(%ebp),%eax
  114d95:	8b 55 c4             	mov    -0x3c(%ebp),%edx
  114d98:	89 90 74 03 00 00    	mov    %edx,0x374(%eax)
  114d9e:	8b 45 0c             	mov    0xc(%ebp),%eax
  114da1:	8b 40 2c             	mov    0x2c(%eax),%eax
  114da4:	89 45 c0             	mov    %eax,-0x40(%ebp)
  114da7:	8b 45 c0             	mov    -0x40(%ebp),%eax
  114daa:	8b 40 04             	mov    0x4(%eax),%eax
  114dad:	83 e0 fc             	and    $0xfffffffc,%eax
  114db0:	89 45 f4             	mov    %eax,-0xc(%ebp)
  114db3:	8b 45 08             	mov    0x8(%ebp),%eax
  114db6:	8d 50 10             	lea    0x10(%eax),%edx
  114db9:	8b 45 f4             	mov    -0xc(%ebp),%eax
  114dbc:	39 c2                	cmp    %eax,%edx
  114dbe:	77 41                	ja     114e01 <sYSMALLOc+0x3f4>
  114dc0:	8b 45 f4             	mov    -0xc(%ebp),%eax
  114dc3:	2b 45 08             	sub    0x8(%ebp),%eax
  114dc6:	89 45 bc             	mov    %eax,-0x44(%ebp)
  114dc9:	8b 55 c0             	mov    -0x40(%ebp),%edx
  114dcc:	8b 45 08             	mov    0x8(%ebp),%eax
  114dcf:	01 d0                	add    %edx,%eax
  114dd1:	89 45 b8             	mov    %eax,-0x48(%ebp)
  114dd4:	8b 45 0c             	mov    0xc(%ebp),%eax
  114dd7:	8b 55 b8             	mov    -0x48(%ebp),%edx
  114dda:	89 50 2c             	mov    %edx,0x2c(%eax)
  114ddd:	8b 45 08             	mov    0x8(%ebp),%eax
  114de0:	83 c8 01             	or     $0x1,%eax
  114de3:	89 c2                	mov    %eax,%edx
  114de5:	8b 45 c0             	mov    -0x40(%ebp),%eax
  114de8:	89 50 04             	mov    %edx,0x4(%eax)
  114deb:	8b 45 bc             	mov    -0x44(%ebp),%eax
  114dee:	83 c8 01             	or     $0x1,%eax
  114df1:	89 c2                	mov    %eax,%edx
  114df3:	8b 45 b8             	mov    -0x48(%ebp),%eax
  114df6:	89 50 04             	mov    %edx,0x4(%eax)
  114df9:	8b 45 c0             	mov    -0x40(%ebp),%eax
  114dfc:	83 c0 08             	add    $0x8,%eax
  114dff:	eb 05                	jmp    114e06 <sYSMALLOc+0x3f9>
  114e01:	b8 00 00 00 00       	mov    $0x0,%eax
  114e06:	89 ec                	mov    %ebp,%esp
  114e08:	5d                   	pop    %ebp
  114e09:	c3                   	ret    

00114e0a <sYSTRIm>:
  114e0a:	55                   	push   %ebp
  114e0b:	89 e5                	mov    %esp,%ebp
  114e0d:	83 ec 20             	sub    $0x20,%esp
  114e10:	8b 45 0c             	mov    0xc(%ebp),%eax
  114e13:	8b 80 5c 03 00 00    	mov    0x35c(%eax),%eax
  114e19:	89 45 fc             	mov    %eax,-0x4(%ebp)
  114e1c:	8b 45 0c             	mov    0xc(%ebp),%eax
  114e1f:	8b 40 2c             	mov    0x2c(%eax),%eax
  114e22:	8b 40 04             	mov    0x4(%eax),%eax
  114e25:	83 e0 fc             	and    $0xfffffffc,%eax
  114e28:	89 45 f8             	mov    %eax,-0x8(%ebp)
  114e2b:	8b 45 f8             	mov    -0x8(%ebp),%eax
  114e2e:	2b 45 08             	sub    0x8(%ebp),%eax
  114e31:	89 c2                	mov    %eax,%edx
  114e33:	8b 45 fc             	mov    -0x4(%ebp),%eax
  114e36:	01 d0                	add    %edx,%eax
  114e38:	83 e8 11             	sub    $0x11,%eax
  114e3b:	ba 00 00 00 00       	mov    $0x0,%edx
  114e40:	f7 75 fc             	divl   -0x4(%ebp)
  114e43:	48                   	dec    %eax
  114e44:	0f af 45 fc          	imul   -0x4(%ebp),%eax
  114e48:	89 45 f4             	mov    %eax,-0xc(%ebp)
  114e4b:	83 7d f4 00          	cmpl   $0x0,-0xc(%ebp)
  114e4f:	7e 7f                	jle    114ed0 <sYSTRIm+0xc6>
  114e51:	6a 00                	push   $0x0
  114e53:	e8 5d fa ff ff       	call   1148b5 <us_sbrk>
  114e58:	83 c4 04             	add    $0x4,%esp
  114e5b:	89 45 f0             	mov    %eax,-0x10(%ebp)
  114e5e:	8b 45 0c             	mov    0xc(%ebp),%eax
  114e61:	8b 50 2c             	mov    0x2c(%eax),%edx
  114e64:	8b 45 f8             	mov    -0x8(%ebp),%eax
  114e67:	01 d0                	add    %edx,%eax
  114e69:	39 45 f0             	cmp    %eax,-0x10(%ebp)
  114e6c:	75 62                	jne    114ed0 <sYSTRIm+0xc6>
  114e6e:	8b 45 f4             	mov    -0xc(%ebp),%eax
  114e71:	f7 d8                	neg    %eax
  114e73:	50                   	push   %eax
  114e74:	e8 3c fa ff ff       	call   1148b5 <us_sbrk>
  114e79:	83 c4 04             	add    $0x4,%esp
  114e7c:	6a 00                	push   $0x0
  114e7e:	e8 32 fa ff ff       	call   1148b5 <us_sbrk>
  114e83:	83 c4 04             	add    $0x4,%esp
  114e86:	89 45 ec             	mov    %eax,-0x14(%ebp)
  114e89:	83 7d ec ff          	cmpl   $0xffffffff,-0x14(%ebp)
  114e8d:	74 41                	je     114ed0 <sYSTRIm+0xc6>
  114e8f:	8b 45 f0             	mov    -0x10(%ebp),%eax
  114e92:	2b 45 ec             	sub    -0x14(%ebp),%eax
  114e95:	89 45 e8             	mov    %eax,-0x18(%ebp)
  114e98:	83 7d e8 00          	cmpl   $0x0,-0x18(%ebp)
  114e9c:	74 32                	je     114ed0 <sYSTRIm+0xc6>
  114e9e:	8b 45 0c             	mov    0xc(%ebp),%eax
  114ea1:	8b 90 68 03 00 00    	mov    0x368(%eax),%edx
  114ea7:	8b 45 e8             	mov    -0x18(%ebp),%eax
  114eaa:	29 c2                	sub    %eax,%edx
  114eac:	8b 45 0c             	mov    0xc(%ebp),%eax
  114eaf:	89 90 68 03 00 00    	mov    %edx,0x368(%eax)
  114eb5:	8b 45 f8             	mov    -0x8(%ebp),%eax
  114eb8:	2b 45 e8             	sub    -0x18(%ebp),%eax
  114ebb:	83 c8 01             	or     $0x1,%eax
  114ebe:	89 c2                	mov    %eax,%edx
  114ec0:	8b 45 0c             	mov    0xc(%ebp),%eax
  114ec3:	8b 40 2c             	mov    0x2c(%eax),%eax
  114ec6:	89 50 04             	mov    %edx,0x4(%eax)
  114ec9:	b8 01 00 00 00       	mov    $0x1,%eax
  114ece:	eb 05                	jmp    114ed5 <sYSTRIm+0xcb>
  114ed0:	b8 00 00 00 00       	mov    $0x0,%eax
  114ed5:	89 ec                	mov    %ebp,%esp
  114ed7:	5d                   	pop    %ebp
  114ed8:	c3                   	ret    

00114ed9 <kusmalloc>:
  114ed9:	55                   	push   %ebp
  114eda:	89 e5                	mov    %esp,%ebp
  114edc:	53                   	push   %ebx
  114edd:	83 ec 44             	sub    $0x44,%esp
  114ee0:	c7 45 d0 e0 12 13 00 	movl   $0x1312e0,-0x30(%ebp)
  114ee7:	83 7d 08 df          	cmpl   $0xffffffdf,0x8(%ebp)
  114eeb:	76 0a                	jbe    114ef7 <kusmalloc+0x1e>
  114eed:	b8 00 00 00 00       	mov    $0x0,%eax
  114ef2:	e9 36 07 00 00       	jmp    11562d <kusmalloc+0x754>
  114ef7:	8b 45 08             	mov    0x8(%ebp),%eax
  114efa:	83 c0 0b             	add    $0xb,%eax
  114efd:	83 f8 0f             	cmp    $0xf,%eax
  114f00:	76 0b                	jbe    114f0d <kusmalloc+0x34>
  114f02:	8b 45 08             	mov    0x8(%ebp),%eax
  114f05:	83 c0 0b             	add    $0xb,%eax
  114f08:	83 e0 f8             	and    $0xfffffff8,%eax
  114f0b:	eb 05                	jmp    114f12 <kusmalloc+0x39>
  114f0d:	b8 10 00 00 00       	mov    $0x10,%eax
  114f12:	89 45 cc             	mov    %eax,-0x34(%ebp)
  114f15:	8b 45 d0             	mov    -0x30(%ebp),%eax
  114f18:	8b 00                	mov    (%eax),%eax
  114f1a:	83 e0 01             	and    $0x1,%eax
  114f1d:	85 c0                	test   %eax,%eax
  114f1f:	75 20                	jne    114f41 <kusmalloc+0x68>
  114f21:	8b 45 d0             	mov    -0x30(%ebp),%eax
  114f24:	8b 00                	mov    (%eax),%eax
  114f26:	85 c0                	test   %eax,%eax
  114f28:	0f 85 89 06 00 00    	jne    1155b7 <kusmalloc+0x6de>
  114f2e:	83 ec 0c             	sub    $0xc,%esp
  114f31:	ff 75 d0             	push   -0x30(%ebp)
  114f34:	e8 18 09 00 00       	call   115851 <malloc_consolidate>
  114f39:	83 c4 10             	add    $0x10,%esp
  114f3c:	e9 76 06 00 00       	jmp    1155b7 <kusmalloc+0x6de>
  114f41:	8b 45 d0             	mov    -0x30(%ebp),%eax
  114f44:	8b 00                	mov    (%eax),%eax
  114f46:	39 45 cc             	cmp    %eax,-0x34(%ebp)
  114f49:	77 3f                	ja     114f8a <kusmalloc+0xb1>
  114f4b:	8b 45 cc             	mov    -0x34(%ebp),%eax
  114f4e:	c1 e8 03             	shr    $0x3,%eax
  114f51:	83 e8 02             	sub    $0x2,%eax
  114f54:	8d 14 85 00 00 00 00 	lea    0x0(,%eax,4),%edx
  114f5b:	8b 45 d0             	mov    -0x30(%ebp),%eax
  114f5e:	01 d0                	add    %edx,%eax
  114f60:	83 c0 04             	add    $0x4,%eax
  114f63:	89 45 c8             	mov    %eax,-0x38(%ebp)
  114f66:	8b 45 c8             	mov    -0x38(%ebp),%eax
  114f69:	8b 00                	mov    (%eax),%eax
  114f6b:	89 45 ec             	mov    %eax,-0x14(%ebp)
  114f6e:	83 7d ec 00          	cmpl   $0x0,-0x14(%ebp)
  114f72:	74 16                	je     114f8a <kusmalloc+0xb1>
  114f74:	8b 45 ec             	mov    -0x14(%ebp),%eax
  114f77:	8b 50 08             	mov    0x8(%eax),%edx
  114f7a:	8b 45 c8             	mov    -0x38(%ebp),%eax
  114f7d:	89 10                	mov    %edx,(%eax)
  114f7f:	8b 45 ec             	mov    -0x14(%ebp),%eax
  114f82:	83 c0 08             	add    $0x8,%eax
  114f85:	e9 a3 06 00 00       	jmp    11562d <kusmalloc+0x754>
  114f8a:	81 7d cc ff 00 00 00 	cmpl   $0xff,-0x34(%ebp)
  114f91:	77 7a                	ja     11500d <kusmalloc+0x134>
  114f93:	8b 45 cc             	mov    -0x34(%ebp),%eax
  114f96:	c1 e8 03             	shr    $0x3,%eax
  114f99:	89 45 f4             	mov    %eax,-0xc(%ebp)
  114f9c:	8b 45 f4             	mov    -0xc(%ebp),%eax
  114f9f:	01 c0                	add    %eax,%eax
  114fa1:	83 c0 0c             	add    $0xc,%eax
  114fa4:	8d 14 85 00 00 00 00 	lea    0x0(,%eax,4),%edx
  114fab:	8b 45 d0             	mov    -0x30(%ebp),%eax
  114fae:	01 d0                	add    %edx,%eax
  114fb0:	83 c0 04             	add    $0x4,%eax
  114fb3:	83 e8 08             	sub    $0x8,%eax
  114fb6:	89 45 f0             	mov    %eax,-0x10(%ebp)
  114fb9:	8b 45 f0             	mov    -0x10(%ebp),%eax
  114fbc:	8b 40 0c             	mov    0xc(%eax),%eax
  114fbf:	89 45 ec             	mov    %eax,-0x14(%ebp)
  114fc2:	8b 45 ec             	mov    -0x14(%ebp),%eax
  114fc5:	3b 45 f0             	cmp    -0x10(%ebp),%eax
  114fc8:	0f 84 bf 02 00 00    	je     11528d <kusmalloc+0x3b4>
  114fce:	8b 45 ec             	mov    -0x14(%ebp),%eax
  114fd1:	8b 40 0c             	mov    0xc(%eax),%eax
  114fd4:	89 45 d4             	mov    %eax,-0x2c(%ebp)
  114fd7:	8b 55 ec             	mov    -0x14(%ebp),%edx
  114fda:	8b 45 cc             	mov    -0x34(%ebp),%eax
  114fdd:	01 d0                	add    %edx,%eax
  114fdf:	8b 50 04             	mov    0x4(%eax),%edx
  114fe2:	8b 4d ec             	mov    -0x14(%ebp),%ecx
  114fe5:	8b 45 cc             	mov    -0x34(%ebp),%eax
  114fe8:	01 c8                	add    %ecx,%eax
  114fea:	83 ca 01             	or     $0x1,%edx
  114fed:	89 50 04             	mov    %edx,0x4(%eax)
  114ff0:	8b 45 f0             	mov    -0x10(%ebp),%eax
  114ff3:	8b 55 d4             	mov    -0x2c(%ebp),%edx
  114ff6:	89 50 0c             	mov    %edx,0xc(%eax)
  114ff9:	8b 45 d4             	mov    -0x2c(%ebp),%eax
  114ffc:	8b 55 f0             	mov    -0x10(%ebp),%edx
  114fff:	89 50 08             	mov    %edx,0x8(%eax)
  115002:	8b 45 ec             	mov    -0x14(%ebp),%eax
  115005:	83 c0 08             	add    $0x8,%eax
  115008:	e9 20 06 00 00       	jmp    11562d <kusmalloc+0x754>
  11500d:	83 ec 0c             	sub    $0xc,%esp
  115010:	ff 75 cc             	push   -0x34(%ebp)
  115013:	e8 df f8 ff ff       	call   1148f7 <largebin_index>
  115018:	83 c4 10             	add    $0x10,%esp
  11501b:	89 45 f4             	mov    %eax,-0xc(%ebp)
  11501e:	8b 45 d0             	mov    -0x30(%ebp),%eax
  115021:	8b 00                	mov    (%eax),%eax
  115023:	83 e0 02             	and    $0x2,%eax
  115026:	85 c0                	test   %eax,%eax
  115028:	0f 84 5f 02 00 00    	je     11528d <kusmalloc+0x3b4>
  11502e:	83 ec 0c             	sub    $0xc,%esp
  115031:	ff 75 d0             	push   -0x30(%ebp)
  115034:	e8 18 08 00 00       	call   115851 <malloc_consolidate>
  115039:	83 c4 10             	add    $0x10,%esp
  11503c:	e9 4c 02 00 00       	jmp    11528d <kusmalloc+0x3b4>
  115041:	8b 45 ec             	mov    -0x14(%ebp),%eax
  115044:	8b 40 0c             	mov    0xc(%eax),%eax
  115047:	89 45 d4             	mov    %eax,-0x2c(%ebp)
  11504a:	8b 45 ec             	mov    -0x14(%ebp),%eax
  11504d:	8b 40 04             	mov    0x4(%eax),%eax
  115050:	83 e0 fc             	and    $0xfffffffc,%eax
  115053:	89 45 c4             	mov    %eax,-0x3c(%ebp)
  115056:	81 7d cc ff 00 00 00 	cmpl   $0xff,-0x34(%ebp)
  11505d:	0f 87 ba 00 00 00    	ja     11511d <kusmalloc+0x244>
  115063:	8b 45 d0             	mov    -0x30(%ebp),%eax
  115066:	83 c0 3c             	add    $0x3c,%eax
  115069:	83 e8 08             	sub    $0x8,%eax
  11506c:	39 45 d4             	cmp    %eax,-0x2c(%ebp)
  11506f:	0f 85 a8 00 00 00    	jne    11511d <kusmalloc+0x244>
  115075:	8b 45 d0             	mov    -0x30(%ebp),%eax
  115078:	8b 40 30             	mov    0x30(%eax),%eax
  11507b:	39 45 ec             	cmp    %eax,-0x14(%ebp)
  11507e:	0f 85 99 00 00 00    	jne    11511d <kusmalloc+0x244>
  115084:	8b 45 cc             	mov    -0x34(%ebp),%eax
  115087:	83 c0 10             	add    $0x10,%eax
  11508a:	39 45 c4             	cmp    %eax,-0x3c(%ebp)
  11508d:	0f 86 8a 00 00 00    	jbe    11511d <kusmalloc+0x244>
  115093:	8b 45 c4             	mov    -0x3c(%ebp),%eax
  115096:	2b 45 cc             	sub    -0x34(%ebp),%eax
  115099:	89 45 c0             	mov    %eax,-0x40(%ebp)
  11509c:	8b 55 ec             	mov    -0x14(%ebp),%edx
  11509f:	8b 45 cc             	mov    -0x34(%ebp),%eax
  1150a2:	01 d0                	add    %edx,%eax
  1150a4:	89 45 bc             	mov    %eax,-0x44(%ebp)
  1150a7:	8b 45 d0             	mov    -0x30(%ebp),%eax
  1150aa:	83 c0 3c             	add    $0x3c,%eax
  1150ad:	83 e8 08             	sub    $0x8,%eax
  1150b0:	8b 55 bc             	mov    -0x44(%ebp),%edx
  1150b3:	89 50 08             	mov    %edx,0x8(%eax)
  1150b6:	8b 55 d0             	mov    -0x30(%ebp),%edx
  1150b9:	83 c2 3c             	add    $0x3c,%edx
  1150bc:	83 ea 08             	sub    $0x8,%edx
  1150bf:	8b 40 08             	mov    0x8(%eax),%eax
  1150c2:	89 42 0c             	mov    %eax,0xc(%edx)
  1150c5:	8b 45 d0             	mov    -0x30(%ebp),%eax
  1150c8:	8b 55 bc             	mov    -0x44(%ebp),%edx
  1150cb:	89 50 30             	mov    %edx,0x30(%eax)
  1150ce:	8b 45 d0             	mov    -0x30(%ebp),%eax
  1150d1:	83 c0 3c             	add    $0x3c,%eax
  1150d4:	8d 50 f8             	lea    -0x8(%eax),%edx
  1150d7:	8b 45 bc             	mov    -0x44(%ebp),%eax
  1150da:	89 50 08             	mov    %edx,0x8(%eax)
  1150dd:	8b 45 bc             	mov    -0x44(%ebp),%eax
  1150e0:	8b 50 08             	mov    0x8(%eax),%edx
  1150e3:	8b 45 bc             	mov    -0x44(%ebp),%eax
  1150e6:	89 50 0c             	mov    %edx,0xc(%eax)
  1150e9:	8b 45 cc             	mov    -0x34(%ebp),%eax
  1150ec:	83 c8 01             	or     $0x1,%eax
  1150ef:	89 c2                	mov    %eax,%edx
  1150f1:	8b 45 ec             	mov    -0x14(%ebp),%eax
  1150f4:	89 50 04             	mov    %edx,0x4(%eax)
  1150f7:	8b 45 c0             	mov    -0x40(%ebp),%eax
  1150fa:	83 c8 01             	or     $0x1,%eax
  1150fd:	89 c2                	mov    %eax,%edx
  1150ff:	8b 45 bc             	mov    -0x44(%ebp),%eax
  115102:	89 50 04             	mov    %edx,0x4(%eax)
  115105:	8b 55 bc             	mov    -0x44(%ebp),%edx
  115108:	8b 45 c0             	mov    -0x40(%ebp),%eax
  11510b:	01 c2                	add    %eax,%edx
  11510d:	8b 45 c0             	mov    -0x40(%ebp),%eax
  115110:	89 02                	mov    %eax,(%edx)
  115112:	8b 45 ec             	mov    -0x14(%ebp),%eax
  115115:	83 c0 08             	add    $0x8,%eax
  115118:	e9 10 05 00 00       	jmp    11562d <kusmalloc+0x754>
  11511d:	8b 45 d0             	mov    -0x30(%ebp),%eax
  115120:	83 c0 3c             	add    $0x3c,%eax
  115123:	8d 50 f8             	lea    -0x8(%eax),%edx
  115126:	8b 45 d4             	mov    -0x2c(%ebp),%eax
  115129:	89 42 0c             	mov    %eax,0xc(%edx)
  11512c:	8b 45 d0             	mov    -0x30(%ebp),%eax
  11512f:	83 c0 3c             	add    $0x3c,%eax
  115132:	8d 50 f8             	lea    -0x8(%eax),%edx
  115135:	8b 45 d4             	mov    -0x2c(%ebp),%eax
  115138:	89 50 08             	mov    %edx,0x8(%eax)
  11513b:	8b 45 c4             	mov    -0x3c(%ebp),%eax
  11513e:	3b 45 cc             	cmp    -0x34(%ebp),%eax
  115141:	75 24                	jne    115167 <kusmalloc+0x28e>
  115143:	8b 55 ec             	mov    -0x14(%ebp),%edx
  115146:	8b 45 c4             	mov    -0x3c(%ebp),%eax
  115149:	01 d0                	add    %edx,%eax
  11514b:	8b 50 04             	mov    0x4(%eax),%edx
  11514e:	8b 4d ec             	mov    -0x14(%ebp),%ecx
  115151:	8b 45 c4             	mov    -0x3c(%ebp),%eax
  115154:	01 c8                	add    %ecx,%eax
  115156:	83 ca 01             	or     $0x1,%edx
  115159:	89 50 04             	mov    %edx,0x4(%eax)
  11515c:	8b 45 ec             	mov    -0x14(%ebp),%eax
  11515f:	83 c0 08             	add    $0x8,%eax
  115162:	e9 c6 04 00 00       	jmp    11562d <kusmalloc+0x754>
  115167:	81 7d c4 ff 00 00 00 	cmpl   $0xff,-0x3c(%ebp)
  11516e:	77 34                	ja     1151a4 <kusmalloc+0x2cb>
  115170:	8b 45 c4             	mov    -0x3c(%ebp),%eax
  115173:	c1 e8 03             	shr    $0x3,%eax
  115176:	89 45 e8             	mov    %eax,-0x18(%ebp)
  115179:	8b 45 e8             	mov    -0x18(%ebp),%eax
  11517c:	01 c0                	add    %eax,%eax
  11517e:	83 c0 0c             	add    $0xc,%eax
  115181:	8d 14 85 00 00 00 00 	lea    0x0(,%eax,4),%edx
  115188:	8b 45 d0             	mov    -0x30(%ebp),%eax
  11518b:	01 d0                	add    %edx,%eax
  11518d:	83 c0 04             	add    $0x4,%eax
  115190:	83 e8 08             	sub    $0x8,%eax
  115193:	89 45 d4             	mov    %eax,-0x2c(%ebp)
  115196:	8b 45 d4             	mov    -0x2c(%ebp),%eax
  115199:	8b 40 08             	mov    0x8(%eax),%eax
  11519c:	89 45 d8             	mov    %eax,-0x28(%ebp)
  11519f:	e9 8a 00 00 00       	jmp    11522e <kusmalloc+0x355>
  1151a4:	83 ec 0c             	sub    $0xc,%esp
  1151a7:	ff 75 c4             	push   -0x3c(%ebp)
  1151aa:	e8 48 f7 ff ff       	call   1148f7 <largebin_index>
  1151af:	83 c4 10             	add    $0x10,%esp
  1151b2:	89 45 e8             	mov    %eax,-0x18(%ebp)
  1151b5:	8b 45 e8             	mov    -0x18(%ebp),%eax
  1151b8:	01 c0                	add    %eax,%eax
  1151ba:	83 c0 0c             	add    $0xc,%eax
  1151bd:	8d 14 85 00 00 00 00 	lea    0x0(,%eax,4),%edx
  1151c4:	8b 45 d0             	mov    -0x30(%ebp),%eax
  1151c7:	01 d0                	add    %edx,%eax
  1151c9:	83 c0 04             	add    $0x4,%eax
  1151cc:	83 e8 08             	sub    $0x8,%eax
  1151cf:	89 45 d4             	mov    %eax,-0x2c(%ebp)
  1151d2:	8b 45 d4             	mov    -0x2c(%ebp),%eax
  1151d5:	8b 40 08             	mov    0x8(%eax),%eax
  1151d8:	89 45 d8             	mov    %eax,-0x28(%ebp)
  1151db:	8b 45 d8             	mov    -0x28(%ebp),%eax
  1151de:	3b 45 d4             	cmp    -0x2c(%ebp),%eax
  1151e1:	74 4b                	je     11522e <kusmalloc+0x355>
  1151e3:	8b 45 d4             	mov    -0x2c(%ebp),%eax
  1151e6:	8b 40 0c             	mov    0xc(%eax),%eax
  1151e9:	8b 40 04             	mov    0x4(%eax),%eax
  1151ec:	39 45 c4             	cmp    %eax,-0x3c(%ebp)
  1151ef:	73 11                	jae    115202 <kusmalloc+0x329>
  1151f1:	8b 45 d4             	mov    -0x2c(%ebp),%eax
  1151f4:	89 45 d8             	mov    %eax,-0x28(%ebp)
  1151f7:	8b 45 d4             	mov    -0x2c(%ebp),%eax
  1151fa:	8b 40 0c             	mov    0xc(%eax),%eax
  1151fd:	89 45 d4             	mov    %eax,-0x2c(%ebp)
  115200:	eb 2c                	jmp    11522e <kusmalloc+0x355>
  115202:	81 7d c4 ff 00 00 00 	cmpl   $0xff,-0x3c(%ebp)
  115209:	76 23                	jbe    11522e <kusmalloc+0x355>
  11520b:	83 4d c4 01          	orl    $0x1,-0x3c(%ebp)
  11520f:	eb 09                	jmp    11521a <kusmalloc+0x341>
  115211:	8b 45 d8             	mov    -0x28(%ebp),%eax
  115214:	8b 40 08             	mov    0x8(%eax),%eax
  115217:	89 45 d8             	mov    %eax,-0x28(%ebp)
  11521a:	8b 45 d8             	mov    -0x28(%ebp),%eax
  11521d:	8b 40 04             	mov    0x4(%eax),%eax
  115220:	39 45 c4             	cmp    %eax,-0x3c(%ebp)
  115223:	72 ec                	jb     115211 <kusmalloc+0x338>
  115225:	8b 45 d8             	mov    -0x28(%ebp),%eax
  115228:	8b 40 0c             	mov    0xc(%eax),%eax
  11522b:	89 45 d4             	mov    %eax,-0x2c(%ebp)
  11522e:	8b 45 e8             	mov    -0x18(%ebp),%eax
  115231:	c1 f8 05             	sar    $0x5,%eax
  115234:	89 c2                	mov    %eax,%edx
  115236:	8b 45 d0             	mov    -0x30(%ebp),%eax
  115239:	81 c2 cc 00 00 00    	add    $0xcc,%edx
  11523f:	8b 44 90 04          	mov    0x4(%eax,%edx,4),%eax
  115243:	8b 55 e8             	mov    -0x18(%ebp),%edx
  115246:	83 e2 1f             	and    $0x1f,%edx
  115249:	bb 01 00 00 00       	mov    $0x1,%ebx
  11524e:	88 d1                	mov    %dl,%cl
  115250:	d3 e3                	shl    %cl,%ebx
  115252:	89 d9                	mov    %ebx,%ecx
  115254:	8b 55 e8             	mov    -0x18(%ebp),%edx
  115257:	c1 fa 05             	sar    $0x5,%edx
  11525a:	09 c1                	or     %eax,%ecx
  11525c:	8b 45 d0             	mov    -0x30(%ebp),%eax
  11525f:	81 c2 cc 00 00 00    	add    $0xcc,%edx
  115265:	89 4c 90 04          	mov    %ecx,0x4(%eax,%edx,4)
  115269:	8b 45 ec             	mov    -0x14(%ebp),%eax
  11526c:	8b 55 d4             	mov    -0x2c(%ebp),%edx
  11526f:	89 50 0c             	mov    %edx,0xc(%eax)
  115272:	8b 45 ec             	mov    -0x14(%ebp),%eax
  115275:	8b 55 d8             	mov    -0x28(%ebp),%edx
  115278:	89 50 08             	mov    %edx,0x8(%eax)
  11527b:	8b 45 d8             	mov    -0x28(%ebp),%eax
  11527e:	8b 55 ec             	mov    -0x14(%ebp),%edx
  115281:	89 50 0c             	mov    %edx,0xc(%eax)
  115284:	8b 45 d4             	mov    -0x2c(%ebp),%eax
  115287:	8b 55 ec             	mov    -0x14(%ebp),%edx
  11528a:	89 50 08             	mov    %edx,0x8(%eax)
  11528d:	8b 45 d0             	mov    -0x30(%ebp),%eax
  115290:	83 c0 3c             	add    $0x3c,%eax
  115293:	83 e8 08             	sub    $0x8,%eax
  115296:	8b 40 0c             	mov    0xc(%eax),%eax
  115299:	89 45 ec             	mov    %eax,-0x14(%ebp)
  11529c:	8b 45 d0             	mov    -0x30(%ebp),%eax
  11529f:	83 c0 3c             	add    $0x3c,%eax
  1152a2:	83 e8 08             	sub    $0x8,%eax
  1152a5:	39 45 ec             	cmp    %eax,-0x14(%ebp)
  1152a8:	0f 85 93 fd ff ff    	jne    115041 <kusmalloc+0x168>
  1152ae:	81 7d cc ff 00 00 00 	cmpl   $0xff,-0x34(%ebp)
  1152b5:	0f 86 27 01 00 00    	jbe    1153e2 <kusmalloc+0x509>
  1152bb:	8b 45 f4             	mov    -0xc(%ebp),%eax
  1152be:	01 c0                	add    %eax,%eax
  1152c0:	83 c0 0c             	add    $0xc,%eax
  1152c3:	8d 14 85 00 00 00 00 	lea    0x0(,%eax,4),%edx
  1152ca:	8b 45 d0             	mov    -0x30(%ebp),%eax
  1152cd:	01 d0                	add    %edx,%eax
  1152cf:	83 c0 04             	add    $0x4,%eax
  1152d2:	83 e8 08             	sub    $0x8,%eax
  1152d5:	89 45 f0             	mov    %eax,-0x10(%ebp)
  1152d8:	8b 45 f0             	mov    -0x10(%ebp),%eax
  1152db:	8b 40 0c             	mov    0xc(%eax),%eax
  1152de:	89 45 ec             	mov    %eax,-0x14(%ebp)
  1152e1:	e9 f0 00 00 00       	jmp    1153d6 <kusmalloc+0x4fd>
  1152e6:	8b 45 ec             	mov    -0x14(%ebp),%eax
  1152e9:	8b 40 04             	mov    0x4(%eax),%eax
  1152ec:	83 e0 fc             	and    $0xfffffffc,%eax
  1152ef:	89 45 c4             	mov    %eax,-0x3c(%ebp)
  1152f2:	8b 45 c4             	mov    -0x3c(%ebp),%eax
  1152f5:	3b 45 cc             	cmp    -0x34(%ebp),%eax
  1152f8:	0f 82 cf 00 00 00    	jb     1153cd <kusmalloc+0x4f4>
  1152fe:	8b 45 c4             	mov    -0x3c(%ebp),%eax
  115301:	2b 45 cc             	sub    -0x34(%ebp),%eax
  115304:	89 45 c0             	mov    %eax,-0x40(%ebp)
  115307:	8b 45 ec             	mov    -0x14(%ebp),%eax
  11530a:	8b 40 08             	mov    0x8(%eax),%eax
  11530d:	89 45 d8             	mov    %eax,-0x28(%ebp)
  115310:	8b 45 ec             	mov    -0x14(%ebp),%eax
  115313:	8b 40 0c             	mov    0xc(%eax),%eax
  115316:	89 45 d4             	mov    %eax,-0x2c(%ebp)
  115319:	8b 45 d8             	mov    -0x28(%ebp),%eax
  11531c:	8b 55 d4             	mov    -0x2c(%ebp),%edx
  11531f:	89 50 0c             	mov    %edx,0xc(%eax)
  115322:	8b 45 d4             	mov    -0x2c(%ebp),%eax
  115325:	8b 55 d8             	mov    -0x28(%ebp),%edx
  115328:	89 50 08             	mov    %edx,0x8(%eax)
  11532b:	83 7d c0 0f          	cmpl   $0xf,-0x40(%ebp)
  11532f:	77 24                	ja     115355 <kusmalloc+0x47c>
  115331:	8b 55 ec             	mov    -0x14(%ebp),%edx
  115334:	8b 45 c4             	mov    -0x3c(%ebp),%eax
  115337:	01 d0                	add    %edx,%eax
  115339:	8b 50 04             	mov    0x4(%eax),%edx
  11533c:	8b 4d ec             	mov    -0x14(%ebp),%ecx
  11533f:	8b 45 c4             	mov    -0x3c(%ebp),%eax
  115342:	01 c8                	add    %ecx,%eax
  115344:	83 ca 01             	or     $0x1,%edx
  115347:	89 50 04             	mov    %edx,0x4(%eax)
  11534a:	8b 45 ec             	mov    -0x14(%ebp),%eax
  11534d:	83 c0 08             	add    $0x8,%eax
  115350:	e9 d8 02 00 00       	jmp    11562d <kusmalloc+0x754>
  115355:	8b 55 ec             	mov    -0x14(%ebp),%edx
  115358:	8b 45 cc             	mov    -0x34(%ebp),%eax
  11535b:	01 d0                	add    %edx,%eax
  11535d:	89 45 bc             	mov    %eax,-0x44(%ebp)
  115360:	8b 45 d0             	mov    -0x30(%ebp),%eax
  115363:	83 c0 3c             	add    $0x3c,%eax
  115366:	83 e8 08             	sub    $0x8,%eax
  115369:	8b 55 bc             	mov    -0x44(%ebp),%edx
  11536c:	89 50 08             	mov    %edx,0x8(%eax)
  11536f:	8b 55 d0             	mov    -0x30(%ebp),%edx
  115372:	83 c2 3c             	add    $0x3c,%edx
  115375:	83 ea 08             	sub    $0x8,%edx
  115378:	8b 40 08             	mov    0x8(%eax),%eax
  11537b:	89 42 0c             	mov    %eax,0xc(%edx)
  11537e:	8b 45 d0             	mov    -0x30(%ebp),%eax
  115381:	83 c0 3c             	add    $0x3c,%eax
  115384:	8d 50 f8             	lea    -0x8(%eax),%edx
  115387:	8b 45 bc             	mov    -0x44(%ebp),%eax
  11538a:	89 50 08             	mov    %edx,0x8(%eax)
  11538d:	8b 45 bc             	mov    -0x44(%ebp),%eax
  115390:	8b 50 08             	mov    0x8(%eax),%edx
  115393:	8b 45 bc             	mov    -0x44(%ebp),%eax
  115396:	89 50 0c             	mov    %edx,0xc(%eax)
  115399:	8b 45 cc             	mov    -0x34(%ebp),%eax
  11539c:	83 c8 01             	or     $0x1,%eax
  11539f:	89 c2                	mov    %eax,%edx
  1153a1:	8b 45 ec             	mov    -0x14(%ebp),%eax
  1153a4:	89 50 04             	mov    %edx,0x4(%eax)
  1153a7:	8b 45 c0             	mov    -0x40(%ebp),%eax
  1153aa:	83 c8 01             	or     $0x1,%eax
  1153ad:	89 c2                	mov    %eax,%edx
  1153af:	8b 45 bc             	mov    -0x44(%ebp),%eax
  1153b2:	89 50 04             	mov    %edx,0x4(%eax)
  1153b5:	8b 55 bc             	mov    -0x44(%ebp),%edx
  1153b8:	8b 45 c0             	mov    -0x40(%ebp),%eax
  1153bb:	01 c2                	add    %eax,%edx
  1153bd:	8b 45 c0             	mov    -0x40(%ebp),%eax
  1153c0:	89 02                	mov    %eax,(%edx)
  1153c2:	8b 45 ec             	mov    -0x14(%ebp),%eax
  1153c5:	83 c0 08             	add    $0x8,%eax
  1153c8:	e9 60 02 00 00       	jmp    11562d <kusmalloc+0x754>
  1153cd:	8b 45 ec             	mov    -0x14(%ebp),%eax
  1153d0:	8b 40 0c             	mov    0xc(%eax),%eax
  1153d3:	89 45 ec             	mov    %eax,-0x14(%ebp)
  1153d6:	8b 45 ec             	mov    -0x14(%ebp),%eax
  1153d9:	3b 45 f0             	cmp    -0x10(%ebp),%eax
  1153dc:	0f 85 04 ff ff ff    	jne    1152e6 <kusmalloc+0x40d>
  1153e2:	ff 45 f4             	incl   -0xc(%ebp)
  1153e5:	8b 45 f4             	mov    -0xc(%ebp),%eax
  1153e8:	01 c0                	add    %eax,%eax
  1153ea:	83 c0 0c             	add    $0xc,%eax
  1153ed:	8d 14 85 00 00 00 00 	lea    0x0(,%eax,4),%edx
  1153f4:	8b 45 d0             	mov    -0x30(%ebp),%eax
  1153f7:	01 d0                	add    %edx,%eax
  1153f9:	83 c0 04             	add    $0x4,%eax
  1153fc:	83 e8 08             	sub    $0x8,%eax
  1153ff:	89 45 f0             	mov    %eax,-0x10(%ebp)
  115402:	8b 45 f4             	mov    -0xc(%ebp),%eax
  115405:	c1 e8 05             	shr    $0x5,%eax
  115408:	89 45 e4             	mov    %eax,-0x1c(%ebp)
  11540b:	8b 45 d0             	mov    -0x30(%ebp),%eax
  11540e:	8b 55 e4             	mov    -0x1c(%ebp),%edx
  115411:	81 c2 cc 00 00 00    	add    $0xcc,%edx
  115417:	8b 44 90 04          	mov    0x4(%eax,%edx,4),%eax
  11541b:	89 45 dc             	mov    %eax,-0x24(%ebp)
  11541e:	8b 45 f4             	mov    -0xc(%ebp),%eax
  115421:	83 e0 1f             	and    $0x1f,%eax
  115424:	ba 01 00 00 00       	mov    $0x1,%edx
  115429:	88 c1                	mov    %al,%cl
  11542b:	d3 e2                	shl    %cl,%edx
  11542d:	89 d0                	mov    %edx,%eax
  11542f:	89 45 e0             	mov    %eax,-0x20(%ebp)
  115432:	8b 45 e0             	mov    -0x20(%ebp),%eax
  115435:	3b 45 dc             	cmp    -0x24(%ebp),%eax
  115438:	77 06                	ja     115440 <kusmalloc+0x567>
  11543a:	83 7d e0 00          	cmpl   $0x0,-0x20(%ebp)
  11543e:	75 54                	jne    115494 <kusmalloc+0x5bb>
  115440:	ff 45 e4             	incl   -0x1c(%ebp)
  115443:	83 7d e4 02          	cmpl   $0x2,-0x1c(%ebp)
  115447:	0f 87 6d 01 00 00    	ja     1155ba <kusmalloc+0x6e1>
  11544d:	8b 45 d0             	mov    -0x30(%ebp),%eax
  115450:	8b 55 e4             	mov    -0x1c(%ebp),%edx
  115453:	81 c2 cc 00 00 00    	add    $0xcc,%edx
  115459:	8b 44 90 04          	mov    0x4(%eax,%edx,4),%eax
  11545d:	89 45 dc             	mov    %eax,-0x24(%ebp)
  115460:	83 7d dc 00          	cmpl   $0x0,-0x24(%ebp)
  115464:	74 da                	je     115440 <kusmalloc+0x567>
  115466:	8b 45 e4             	mov    -0x1c(%ebp),%eax
  115469:	c1 e0 06             	shl    $0x6,%eax
  11546c:	83 c0 0c             	add    $0xc,%eax
  11546f:	8d 14 85 00 00 00 00 	lea    0x0(,%eax,4),%edx
  115476:	8b 45 d0             	mov    -0x30(%ebp),%eax
  115479:	01 d0                	add    %edx,%eax
  11547b:	83 c0 04             	add    $0x4,%eax
  11547e:	83 e8 08             	sub    $0x8,%eax
  115481:	89 45 f0             	mov    %eax,-0x10(%ebp)
  115484:	c7 45 e0 01 00 00 00 	movl   $0x1,-0x20(%ebp)
  11548b:	eb 07                	jmp    115494 <kusmalloc+0x5bb>
  11548d:	83 45 f0 08          	addl   $0x8,-0x10(%ebp)
  115491:	d1 65 e0             	shll   -0x20(%ebp)
  115494:	8b 45 e0             	mov    -0x20(%ebp),%eax
  115497:	23 45 dc             	and    -0x24(%ebp),%eax
  11549a:	85 c0                	test   %eax,%eax
  11549c:	74 ef                	je     11548d <kusmalloc+0x5b4>
  11549e:	8b 45 f0             	mov    -0x10(%ebp),%eax
  1154a1:	8b 40 0c             	mov    0xc(%eax),%eax
  1154a4:	89 45 ec             	mov    %eax,-0x14(%ebp)
  1154a7:	8b 45 ec             	mov    -0x14(%ebp),%eax
  1154aa:	3b 45 f0             	cmp    -0x10(%ebp),%eax
  1154ad:	75 27                	jne    1154d6 <kusmalloc+0x5fd>
  1154af:	8b 45 e0             	mov    -0x20(%ebp),%eax
  1154b2:	f7 d0                	not    %eax
  1154b4:	21 45 dc             	and    %eax,-0x24(%ebp)
  1154b7:	8b 45 d0             	mov    -0x30(%ebp),%eax
  1154ba:	8b 55 e4             	mov    -0x1c(%ebp),%edx
  1154bd:	8d 8a cc 00 00 00    	lea    0xcc(%edx),%ecx
  1154c3:	8b 55 dc             	mov    -0x24(%ebp),%edx
  1154c6:	89 54 88 04          	mov    %edx,0x4(%eax,%ecx,4)
  1154ca:	83 45 f0 08          	addl   $0x8,-0x10(%ebp)
  1154ce:	d1 65 e0             	shll   -0x20(%ebp)
  1154d1:	e9 5c ff ff ff       	jmp    115432 <kusmalloc+0x559>
  1154d6:	8b 45 ec             	mov    -0x14(%ebp),%eax
  1154d9:	8b 40 04             	mov    0x4(%eax),%eax
  1154dc:	83 e0 fc             	and    $0xfffffffc,%eax
  1154df:	89 45 c4             	mov    %eax,-0x3c(%ebp)
  1154e2:	8b 45 c4             	mov    -0x3c(%ebp),%eax
  1154e5:	2b 45 cc             	sub    -0x34(%ebp),%eax
  1154e8:	89 45 c0             	mov    %eax,-0x40(%ebp)
  1154eb:	8b 45 ec             	mov    -0x14(%ebp),%eax
  1154ee:	8b 40 0c             	mov    0xc(%eax),%eax
  1154f1:	89 45 d4             	mov    %eax,-0x2c(%ebp)
  1154f4:	8b 45 f0             	mov    -0x10(%ebp),%eax
  1154f7:	8b 55 d4             	mov    -0x2c(%ebp),%edx
  1154fa:	89 50 0c             	mov    %edx,0xc(%eax)
  1154fd:	8b 45 d4             	mov    -0x2c(%ebp),%eax
  115500:	8b 55 f0             	mov    -0x10(%ebp),%edx
  115503:	89 50 08             	mov    %edx,0x8(%eax)
  115506:	83 7d c0 0f          	cmpl   $0xf,-0x40(%ebp)
  11550a:	77 24                	ja     115530 <kusmalloc+0x657>
  11550c:	8b 55 ec             	mov    -0x14(%ebp),%edx
  11550f:	8b 45 c4             	mov    -0x3c(%ebp),%eax
  115512:	01 d0                	add    %edx,%eax
  115514:	8b 50 04             	mov    0x4(%eax),%edx
  115517:	8b 4d ec             	mov    -0x14(%ebp),%ecx
  11551a:	8b 45 c4             	mov    -0x3c(%ebp),%eax
  11551d:	01 c8                	add    %ecx,%eax
  11551f:	83 ca 01             	or     $0x1,%edx
  115522:	89 50 04             	mov    %edx,0x4(%eax)
  115525:	8b 45 ec             	mov    -0x14(%ebp),%eax
  115528:	83 c0 08             	add    $0x8,%eax
  11552b:	e9 fd 00 00 00       	jmp    11562d <kusmalloc+0x754>
  115530:	8b 55 ec             	mov    -0x14(%ebp),%edx
  115533:	8b 45 cc             	mov    -0x34(%ebp),%eax
  115536:	01 d0                	add    %edx,%eax
  115538:	89 45 bc             	mov    %eax,-0x44(%ebp)
  11553b:	8b 45 d0             	mov    -0x30(%ebp),%eax
  11553e:	83 c0 3c             	add    $0x3c,%eax
  115541:	83 e8 08             	sub    $0x8,%eax
  115544:	8b 55 bc             	mov    -0x44(%ebp),%edx
  115547:	89 50 08             	mov    %edx,0x8(%eax)
  11554a:	8b 55 d0             	mov    -0x30(%ebp),%edx
  11554d:	83 c2 3c             	add    $0x3c,%edx
  115550:	83 ea 08             	sub    $0x8,%edx
  115553:	8b 40 08             	mov    0x8(%eax),%eax
  115556:	89 42 0c             	mov    %eax,0xc(%edx)
  115559:	8b 45 d0             	mov    -0x30(%ebp),%eax
  11555c:	83 c0 3c             	add    $0x3c,%eax
  11555f:	8d 50 f8             	lea    -0x8(%eax),%edx
  115562:	8b 45 bc             	mov    -0x44(%ebp),%eax
  115565:	89 50 08             	mov    %edx,0x8(%eax)
  115568:	8b 45 bc             	mov    -0x44(%ebp),%eax
  11556b:	8b 50 08             	mov    0x8(%eax),%edx
  11556e:	8b 45 bc             	mov    -0x44(%ebp),%eax
  115571:	89 50 0c             	mov    %edx,0xc(%eax)
  115574:	81 7d cc ff 00 00 00 	cmpl   $0xff,-0x34(%ebp)
  11557b:	77 09                	ja     115586 <kusmalloc+0x6ad>
  11557d:	8b 45 d0             	mov    -0x30(%ebp),%eax
  115580:	8b 55 bc             	mov    -0x44(%ebp),%edx
  115583:	89 50 30             	mov    %edx,0x30(%eax)
  115586:	8b 45 cc             	mov    -0x34(%ebp),%eax
  115589:	83 c8 01             	or     $0x1,%eax
  11558c:	89 c2                	mov    %eax,%edx
  11558e:	8b 45 ec             	mov    -0x14(%ebp),%eax
  115591:	89 50 04             	mov    %edx,0x4(%eax)
  115594:	8b 45 c0             	mov    -0x40(%ebp),%eax
  115597:	83 c8 01             	or     $0x1,%eax
  11559a:	89 c2                	mov    %eax,%edx
  11559c:	8b 45 bc             	mov    -0x44(%ebp),%eax
  11559f:	89 50 04             	mov    %edx,0x4(%eax)
  1155a2:	8b 55 bc             	mov    -0x44(%ebp),%edx
  1155a5:	8b 45 c0             	mov    -0x40(%ebp),%eax
  1155a8:	01 c2                	add    %eax,%edx
  1155aa:	8b 45 c0             	mov    -0x40(%ebp),%eax
  1155ad:	89 02                	mov    %eax,(%edx)
  1155af:	8b 45 ec             	mov    -0x14(%ebp),%eax
  1155b2:	83 c0 08             	add    $0x8,%eax
  1155b5:	eb 76                	jmp    11562d <kusmalloc+0x754>
  1155b7:	90                   	nop
  1155b8:	eb 01                	jmp    1155bb <kusmalloc+0x6e2>
  1155ba:	90                   	nop
  1155bb:	8b 45 d0             	mov    -0x30(%ebp),%eax
  1155be:	8b 40 2c             	mov    0x2c(%eax),%eax
  1155c1:	89 45 ec             	mov    %eax,-0x14(%ebp)
  1155c4:	8b 45 ec             	mov    -0x14(%ebp),%eax
  1155c7:	8b 40 04             	mov    0x4(%eax),%eax
  1155ca:	83 e0 fc             	and    $0xfffffffc,%eax
  1155cd:	89 45 c4             	mov    %eax,-0x3c(%ebp)
  1155d0:	8b 45 cc             	mov    -0x34(%ebp),%eax
  1155d3:	83 c0 10             	add    $0x10,%eax
  1155d6:	39 45 c4             	cmp    %eax,-0x3c(%ebp)
  1155d9:	72 41                	jb     11561c <kusmalloc+0x743>
  1155db:	8b 45 c4             	mov    -0x3c(%ebp),%eax
  1155de:	2b 45 cc             	sub    -0x34(%ebp),%eax
  1155e1:	89 45 c0             	mov    %eax,-0x40(%ebp)
  1155e4:	8b 55 ec             	mov    -0x14(%ebp),%edx
  1155e7:	8b 45 cc             	mov    -0x34(%ebp),%eax
  1155ea:	01 d0                	add    %edx,%eax
  1155ec:	89 45 bc             	mov    %eax,-0x44(%ebp)
  1155ef:	8b 45 d0             	mov    -0x30(%ebp),%eax
  1155f2:	8b 55 bc             	mov    -0x44(%ebp),%edx
  1155f5:	89 50 2c             	mov    %edx,0x2c(%eax)
  1155f8:	8b 45 cc             	mov    -0x34(%ebp),%eax
  1155fb:	83 c8 01             	or     $0x1,%eax
  1155fe:	89 c2                	mov    %eax,%edx
  115600:	8b 45 ec             	mov    -0x14(%ebp),%eax
  115603:	89 50 04             	mov    %edx,0x4(%eax)
  115606:	8b 45 c0             	mov    -0x40(%ebp),%eax
  115609:	83 c8 01             	or     $0x1,%eax
  11560c:	89 c2                	mov    %eax,%edx
  11560e:	8b 45 bc             	mov    -0x44(%ebp),%eax
  115611:	89 50 04             	mov    %edx,0x4(%eax)
  115614:	8b 45 ec             	mov    -0x14(%ebp),%eax
  115617:	83 c0 08             	add    $0x8,%eax
  11561a:	eb 11                	jmp    11562d <kusmalloc+0x754>
  11561c:	83 ec 08             	sub    $0x8,%esp
  11561f:	ff 75 d0             	push   -0x30(%ebp)
  115622:	ff 75 cc             	push   -0x34(%ebp)
  115625:	e8 e3 f3 ff ff       	call   114a0d <sYSMALLOc>
  11562a:	83 c4 10             	add    $0x10,%esp
  11562d:	8b 5d fc             	mov    -0x4(%ebp),%ebx
  115630:	89 ec                	mov    %ebp,%esp
  115632:	5d                   	pop    %ebp
  115633:	c3                   	ret    

00115634 <kusfree>:
  115634:	55                   	push   %ebp
  115635:	89 e5                	mov    %esp,%ebp
  115637:	83 ec 38             	sub    $0x38,%esp
  11563a:	c7 45 ec e0 12 13 00 	movl   $0x1312e0,-0x14(%ebp)
  115641:	83 7d 08 00          	cmpl   $0x0,0x8(%ebp)
  115645:	0f 84 01 02 00 00    	je     11584c <kusfree+0x218>
  11564b:	8b 45 08             	mov    0x8(%ebp),%eax
  11564e:	83 e8 08             	sub    $0x8,%eax
  115651:	89 45 f4             	mov    %eax,-0xc(%ebp)
  115654:	8b 45 f4             	mov    -0xc(%ebp),%eax
  115657:	8b 40 04             	mov    0x4(%eax),%eax
  11565a:	83 e0 fc             	and    $0xfffffffc,%eax
  11565d:	89 45 f0             	mov    %eax,-0x10(%ebp)
  115660:	8b 45 ec             	mov    -0x14(%ebp),%eax
  115663:	8b 00                	mov    (%eax),%eax
  115665:	39 45 f0             	cmp    %eax,-0x10(%ebp)
  115668:	77 42                	ja     1156ac <kusfree+0x78>
  11566a:	8b 45 ec             	mov    -0x14(%ebp),%eax
  11566d:	8b 00                	mov    (%eax),%eax
  11566f:	83 c8 03             	or     $0x3,%eax
  115672:	89 c2                	mov    %eax,%edx
  115674:	8b 45 ec             	mov    -0x14(%ebp),%eax
  115677:	89 10                	mov    %edx,(%eax)
  115679:	8b 45 f0             	mov    -0x10(%ebp),%eax
  11567c:	c1 e8 03             	shr    $0x3,%eax
  11567f:	83 e8 02             	sub    $0x2,%eax
  115682:	8d 14 85 00 00 00 00 	lea    0x0(,%eax,4),%edx
  115689:	8b 45 ec             	mov    -0x14(%ebp),%eax
  11568c:	01 d0                	add    %edx,%eax
  11568e:	83 c0 04             	add    $0x4,%eax
  115691:	89 45 d0             	mov    %eax,-0x30(%ebp)
  115694:	8b 45 d0             	mov    -0x30(%ebp),%eax
  115697:	8b 10                	mov    (%eax),%edx
  115699:	8b 45 f4             	mov    -0xc(%ebp),%eax
  11569c:	89 50 08             	mov    %edx,0x8(%eax)
  11569f:	8b 45 d0             	mov    -0x30(%ebp),%eax
  1156a2:	8b 55 f4             	mov    -0xc(%ebp),%edx
  1156a5:	89 10                	mov    %edx,(%eax)
  1156a7:	e9 a0 01 00 00       	jmp    11584c <kusfree+0x218>
  1156ac:	8b 45 f4             	mov    -0xc(%ebp),%eax
  1156af:	8b 40 04             	mov    0x4(%eax),%eax
  1156b2:	83 e0 02             	and    $0x2,%eax
  1156b5:	85 c0                	test   %eax,%eax
  1156b7:	0f 85 8f 01 00 00    	jne    11584c <kusfree+0x218>
  1156bd:	8b 45 ec             	mov    -0x14(%ebp),%eax
  1156c0:	8b 00                	mov    (%eax),%eax
  1156c2:	83 c8 01             	or     $0x1,%eax
  1156c5:	89 c2                	mov    %eax,%edx
  1156c7:	8b 45 ec             	mov    -0x14(%ebp),%eax
  1156ca:	89 10                	mov    %edx,(%eax)
  1156cc:	8b 55 f4             	mov    -0xc(%ebp),%edx
  1156cf:	8b 45 f0             	mov    -0x10(%ebp),%eax
  1156d2:	01 d0                	add    %edx,%eax
  1156d4:	89 45 e8             	mov    %eax,-0x18(%ebp)
  1156d7:	8b 45 e8             	mov    -0x18(%ebp),%eax
  1156da:	8b 40 04             	mov    0x4(%eax),%eax
  1156dd:	83 e0 fc             	and    $0xfffffffc,%eax
  1156e0:	89 45 e4             	mov    %eax,-0x1c(%ebp)
  1156e3:	8b 45 f4             	mov    -0xc(%ebp),%eax
  1156e6:	8b 40 04             	mov    0x4(%eax),%eax
  1156e9:	83 e0 01             	and    $0x1,%eax
  1156ec:	85 c0                	test   %eax,%eax
  1156ee:	75 3a                	jne    11572a <kusfree+0xf6>
  1156f0:	8b 45 f4             	mov    -0xc(%ebp),%eax
  1156f3:	8b 00                	mov    (%eax),%eax
  1156f5:	89 45 e0             	mov    %eax,-0x20(%ebp)
  1156f8:	8b 45 e0             	mov    -0x20(%ebp),%eax
  1156fb:	01 45 f0             	add    %eax,-0x10(%ebp)
  1156fe:	8b 45 e0             	mov    -0x20(%ebp),%eax
  115701:	f7 d8                	neg    %eax
  115703:	01 45 f4             	add    %eax,-0xc(%ebp)
  115706:	8b 45 f4             	mov    -0xc(%ebp),%eax
  115709:	8b 40 08             	mov    0x8(%eax),%eax
  11570c:	89 45 dc             	mov    %eax,-0x24(%ebp)
  11570f:	8b 45 f4             	mov    -0xc(%ebp),%eax
  115712:	8b 40 0c             	mov    0xc(%eax),%eax
  115715:	89 45 d8             	mov    %eax,-0x28(%ebp)
  115718:	8b 45 dc             	mov    -0x24(%ebp),%eax
  11571b:	8b 55 d8             	mov    -0x28(%ebp),%edx
  11571e:	89 50 0c             	mov    %edx,0xc(%eax)
  115721:	8b 45 d8             	mov    -0x28(%ebp),%eax
  115724:	8b 55 dc             	mov    -0x24(%ebp),%edx
  115727:	89 50 08             	mov    %edx,0x8(%eax)
  11572a:	8b 45 ec             	mov    -0x14(%ebp),%eax
  11572d:	8b 40 2c             	mov    0x2c(%eax),%eax
  115730:	39 45 e8             	cmp    %eax,-0x18(%ebp)
  115733:	0f 84 a0 00 00 00    	je     1157d9 <kusfree+0x1a5>
  115739:	8b 55 e8             	mov    -0x18(%ebp),%edx
  11573c:	8b 45 e4             	mov    -0x1c(%ebp),%eax
  11573f:	01 d0                	add    %edx,%eax
  115741:	8b 40 04             	mov    0x4(%eax),%eax
  115744:	83 e0 01             	and    $0x1,%eax
  115747:	89 45 d4             	mov    %eax,-0x2c(%ebp)
  11574a:	8b 45 e8             	mov    -0x18(%ebp),%eax
  11574d:	8b 55 e4             	mov    -0x1c(%ebp),%edx
  115750:	89 50 04             	mov    %edx,0x4(%eax)
  115753:	83 7d d4 00          	cmpl   $0x0,-0x2c(%ebp)
  115757:	75 2a                	jne    115783 <kusfree+0x14f>
  115759:	8b 45 e8             	mov    -0x18(%ebp),%eax
  11575c:	8b 40 08             	mov    0x8(%eax),%eax
  11575f:	89 45 dc             	mov    %eax,-0x24(%ebp)
  115762:	8b 45 e8             	mov    -0x18(%ebp),%eax
  115765:	8b 40 0c             	mov    0xc(%eax),%eax
  115768:	89 45 d8             	mov    %eax,-0x28(%ebp)
  11576b:	8b 45 dc             	mov    -0x24(%ebp),%eax
  11576e:	8b 55 d8             	mov    -0x28(%ebp),%edx
  115771:	89 50 0c             	mov    %edx,0xc(%eax)
  115774:	8b 45 d8             	mov    -0x28(%ebp),%eax
  115777:	8b 55 dc             	mov    -0x24(%ebp),%edx
  11577a:	89 50 08             	mov    %edx,0x8(%eax)
  11577d:	8b 45 e4             	mov    -0x1c(%ebp),%eax
  115780:	01 45 f0             	add    %eax,-0x10(%ebp)
  115783:	8b 45 ec             	mov    -0x14(%ebp),%eax
  115786:	83 c0 3c             	add    $0x3c,%eax
  115789:	83 e8 08             	sub    $0x8,%eax
  11578c:	89 45 d8             	mov    %eax,-0x28(%ebp)
  11578f:	8b 45 d8             	mov    -0x28(%ebp),%eax
  115792:	8b 40 08             	mov    0x8(%eax),%eax
  115795:	89 45 dc             	mov    %eax,-0x24(%ebp)
  115798:	8b 45 f4             	mov    -0xc(%ebp),%eax
  11579b:	8b 55 d8             	mov    -0x28(%ebp),%edx
  11579e:	89 50 0c             	mov    %edx,0xc(%eax)
  1157a1:	8b 45 f4             	mov    -0xc(%ebp),%eax
  1157a4:	8b 55 dc             	mov    -0x24(%ebp),%edx
  1157a7:	89 50 08             	mov    %edx,0x8(%eax)
  1157aa:	8b 45 d8             	mov    -0x28(%ebp),%eax
  1157ad:	8b 55 f4             	mov    -0xc(%ebp),%edx
  1157b0:	89 50 08             	mov    %edx,0x8(%eax)
  1157b3:	8b 45 dc             	mov    -0x24(%ebp),%eax
  1157b6:	8b 55 f4             	mov    -0xc(%ebp),%edx
  1157b9:	89 50 0c             	mov    %edx,0xc(%eax)
  1157bc:	8b 45 f0             	mov    -0x10(%ebp),%eax
  1157bf:	83 c8 01             	or     $0x1,%eax
  1157c2:	89 c2                	mov    %eax,%edx
  1157c4:	8b 45 f4             	mov    -0xc(%ebp),%eax
  1157c7:	89 50 04             	mov    %edx,0x4(%eax)
  1157ca:	8b 55 f4             	mov    -0xc(%ebp),%edx
  1157cd:	8b 45 f0             	mov    -0x10(%ebp),%eax
  1157d0:	01 c2                	add    %eax,%edx
  1157d2:	8b 45 f0             	mov    -0x10(%ebp),%eax
  1157d5:	89 02                	mov    %eax,(%edx)
  1157d7:	eb 1d                	jmp    1157f6 <kusfree+0x1c2>
  1157d9:	8b 45 e4             	mov    -0x1c(%ebp),%eax
  1157dc:	01 45 f0             	add    %eax,-0x10(%ebp)
  1157df:	8b 45 f0             	mov    -0x10(%ebp),%eax
  1157e2:	83 c8 01             	or     $0x1,%eax
  1157e5:	89 c2                	mov    %eax,%edx
  1157e7:	8b 45 f4             	mov    -0xc(%ebp),%eax
  1157ea:	89 50 04             	mov    %edx,0x4(%eax)
  1157ed:	8b 45 ec             	mov    -0x14(%ebp),%eax
  1157f0:	8b 55 f4             	mov    -0xc(%ebp),%edx
  1157f3:	89 50 2c             	mov    %edx,0x2c(%eax)
  1157f6:	81 7d f0 ff ff 01 00 	cmpl   $0x1ffff,-0x10(%ebp)
  1157fd:	76 4d                	jbe    11584c <kusfree+0x218>
  1157ff:	8b 45 ec             	mov    -0x14(%ebp),%eax
  115802:	8b 00                	mov    (%eax),%eax
  115804:	83 e0 02             	and    $0x2,%eax
  115807:	85 c0                	test   %eax,%eax
  115809:	74 0e                	je     115819 <kusfree+0x1e5>
  11580b:	83 ec 0c             	sub    $0xc,%esp
  11580e:	ff 75 ec             	push   -0x14(%ebp)
  115811:	e8 3b 00 00 00       	call   115851 <malloc_consolidate>
  115816:	83 c4 10             	add    $0x10,%esp
  115819:	8b 45 ec             	mov    -0x14(%ebp),%eax
  11581c:	8b 40 2c             	mov    0x2c(%eax),%eax
  11581f:	8b 40 04             	mov    0x4(%eax),%eax
  115822:	83 e0 fc             	and    $0xfffffffc,%eax
  115825:	89 c2                	mov    %eax,%edx
  115827:	8b 45 ec             	mov    -0x14(%ebp),%eax
  11582a:	8b 80 44 03 00 00    	mov    0x344(%eax),%eax
  115830:	39 c2                	cmp    %eax,%edx
  115832:	72 18                	jb     11584c <kusfree+0x218>
  115834:	8b 45 ec             	mov    -0x14(%ebp),%eax
  115837:	8b 80 48 03 00 00    	mov    0x348(%eax),%eax
  11583d:	83 ec 08             	sub    $0x8,%esp
  115840:	ff 75 ec             	push   -0x14(%ebp)
  115843:	50                   	push   %eax
  115844:	e8 c1 f5 ff ff       	call   114e0a <sYSTRIm>
  115849:	83 c4 10             	add    $0x10,%esp
  11584c:	90                   	nop
  11584d:	89 ec                	mov    %ebp,%esp
  11584f:	5d                   	pop    %ebp
  115850:	c3                   	ret    

00115851 <malloc_consolidate>:
  115851:	55                   	push   %ebp
  115852:	89 e5                	mov    %esp,%ebp
  115854:	83 ec 40             	sub    $0x40,%esp
  115857:	8b 45 08             	mov    0x8(%ebp),%eax
  11585a:	8b 00                	mov    (%eax),%eax
  11585c:	85 c0                	test   %eax,%eax
  11585e:	0f 84 b3 01 00 00    	je     115a17 <malloc_consolidate+0x1c6>
  115864:	8b 45 08             	mov    0x8(%ebp),%eax
  115867:	8b 00                	mov    (%eax),%eax
  115869:	83 e0 fd             	and    $0xfffffffd,%eax
  11586c:	89 c2                	mov    %eax,%edx
  11586e:	8b 45 08             	mov    0x8(%ebp),%eax
  115871:	89 10                	mov    %edx,(%eax)
  115873:	8b 45 08             	mov    0x8(%ebp),%eax
  115876:	83 c0 3c             	add    $0x3c,%eax
  115879:	83 e8 08             	sub    $0x8,%eax
  11587c:	89 45 f0             	mov    %eax,-0x10(%ebp)
  11587f:	8b 45 08             	mov    0x8(%ebp),%eax
  115882:	8b 00                	mov    (%eax),%eax
  115884:	c1 e8 03             	shr    $0x3,%eax
  115887:	83 e8 02             	sub    $0x2,%eax
  11588a:	8d 14 85 00 00 00 00 	lea    0x0(,%eax,4),%edx
  115891:	8b 45 08             	mov    0x8(%ebp),%eax
  115894:	01 d0                	add    %edx,%eax
  115896:	83 c0 04             	add    $0x4,%eax
  115899:	89 45 ec             	mov    %eax,-0x14(%ebp)
  11589c:	8b 45 08             	mov    0x8(%ebp),%eax
  11589f:	83 c0 04             	add    $0x4,%eax
  1158a2:	89 45 fc             	mov    %eax,-0x4(%ebp)
  1158a5:	8b 45 fc             	mov    -0x4(%ebp),%eax
  1158a8:	8b 00                	mov    (%eax),%eax
  1158aa:	89 45 f8             	mov    %eax,-0x8(%ebp)
  1158ad:	83 7d f8 00          	cmpl   $0x0,-0x8(%ebp)
  1158b1:	0f 84 4c 01 00 00    	je     115a03 <malloc_consolidate+0x1b2>
  1158b7:	8b 45 fc             	mov    -0x4(%ebp),%eax
  1158ba:	c7 00 00 00 00 00    	movl   $0x0,(%eax)
  1158c0:	8b 45 f8             	mov    -0x8(%ebp),%eax
  1158c3:	8b 40 08             	mov    0x8(%eax),%eax
  1158c6:	89 45 e8             	mov    %eax,-0x18(%ebp)
  1158c9:	8b 45 f8             	mov    -0x8(%ebp),%eax
  1158cc:	8b 40 04             	mov    0x4(%eax),%eax
  1158cf:	83 e0 fe             	and    $0xfffffffe,%eax
  1158d2:	89 45 f4             	mov    %eax,-0xc(%ebp)
  1158d5:	8b 55 f8             	mov    -0x8(%ebp),%edx
  1158d8:	8b 45 f4             	mov    -0xc(%ebp),%eax
  1158db:	01 d0                	add    %edx,%eax
  1158dd:	89 45 e4             	mov    %eax,-0x1c(%ebp)
  1158e0:	8b 45 e4             	mov    -0x1c(%ebp),%eax
  1158e3:	8b 40 04             	mov    0x4(%eax),%eax
  1158e6:	83 e0 fc             	and    $0xfffffffc,%eax
  1158e9:	89 45 e0             	mov    %eax,-0x20(%ebp)
  1158ec:	8b 45 f8             	mov    -0x8(%ebp),%eax
  1158ef:	8b 40 04             	mov    0x4(%eax),%eax
  1158f2:	83 e0 01             	and    $0x1,%eax
  1158f5:	85 c0                	test   %eax,%eax
  1158f7:	75 3a                	jne    115933 <malloc_consolidate+0xe2>
  1158f9:	8b 45 f8             	mov    -0x8(%ebp),%eax
  1158fc:	8b 00                	mov    (%eax),%eax
  1158fe:	89 45 dc             	mov    %eax,-0x24(%ebp)
  115901:	8b 45 dc             	mov    -0x24(%ebp),%eax
  115904:	01 45 f4             	add    %eax,-0xc(%ebp)
  115907:	8b 45 dc             	mov    -0x24(%ebp),%eax
  11590a:	f7 d8                	neg    %eax
  11590c:	01 45 f8             	add    %eax,-0x8(%ebp)
  11590f:	8b 45 f8             	mov    -0x8(%ebp),%eax
  115912:	8b 40 08             	mov    0x8(%eax),%eax
  115915:	89 45 d8             	mov    %eax,-0x28(%ebp)
  115918:	8b 45 f8             	mov    -0x8(%ebp),%eax
  11591b:	8b 40 0c             	mov    0xc(%eax),%eax
  11591e:	89 45 d4             	mov    %eax,-0x2c(%ebp)
  115921:	8b 45 d8             	mov    -0x28(%ebp),%eax
  115924:	8b 55 d4             	mov    -0x2c(%ebp),%edx
  115927:	89 50 0c             	mov    %edx,0xc(%eax)
  11592a:	8b 45 d4             	mov    -0x2c(%ebp),%eax
  11592d:	8b 55 d8             	mov    -0x28(%ebp),%edx
  115930:	89 50 08             	mov    %edx,0x8(%eax)
  115933:	8b 45 08             	mov    0x8(%ebp),%eax
  115936:	8b 40 2c             	mov    0x2c(%eax),%eax
  115939:	39 45 e4             	cmp    %eax,-0x1c(%ebp)
  11593c:	0f 84 94 00 00 00    	je     1159d6 <malloc_consolidate+0x185>
  115942:	8b 55 e4             	mov    -0x1c(%ebp),%edx
  115945:	8b 45 e0             	mov    -0x20(%ebp),%eax
  115948:	01 d0                	add    %edx,%eax
  11594a:	8b 40 04             	mov    0x4(%eax),%eax
  11594d:	83 e0 01             	and    $0x1,%eax
  115950:	89 45 d0             	mov    %eax,-0x30(%ebp)
  115953:	8b 45 e4             	mov    -0x1c(%ebp),%eax
  115956:	8b 55 e0             	mov    -0x20(%ebp),%edx
  115959:	89 50 04             	mov    %edx,0x4(%eax)
  11595c:	83 7d d0 00          	cmpl   $0x0,-0x30(%ebp)
  115960:	75 2a                	jne    11598c <malloc_consolidate+0x13b>
  115962:	8b 45 e0             	mov    -0x20(%ebp),%eax
  115965:	01 45 f4             	add    %eax,-0xc(%ebp)
  115968:	8b 45 e4             	mov    -0x1c(%ebp),%eax
  11596b:	8b 40 08             	mov    0x8(%eax),%eax
  11596e:	89 45 d8             	mov    %eax,-0x28(%ebp)
  115971:	8b 45 e4             	mov    -0x1c(%ebp),%eax
  115974:	8b 40 0c             	mov    0xc(%eax),%eax
  115977:	89 45 d4             	mov    %eax,-0x2c(%ebp)
  11597a:	8b 45 d8             	mov    -0x28(%ebp),%eax
  11597d:	8b 55 d4             	mov    -0x2c(%ebp),%edx
  115980:	89 50 0c             	mov    %edx,0xc(%eax)
  115983:	8b 45 d4             	mov    -0x2c(%ebp),%eax
  115986:	8b 55 d8             	mov    -0x28(%ebp),%edx
  115989:	89 50 08             	mov    %edx,0x8(%eax)
  11598c:	8b 45 f0             	mov    -0x10(%ebp),%eax
  11598f:	8b 40 08             	mov    0x8(%eax),%eax
  115992:	89 45 cc             	mov    %eax,-0x34(%ebp)
  115995:	8b 45 f0             	mov    -0x10(%ebp),%eax
  115998:	8b 55 f8             	mov    -0x8(%ebp),%edx
  11599b:	89 50 08             	mov    %edx,0x8(%eax)
  11599e:	8b 45 cc             	mov    -0x34(%ebp),%eax
  1159a1:	8b 55 f8             	mov    -0x8(%ebp),%edx
  1159a4:	89 50 0c             	mov    %edx,0xc(%eax)
  1159a7:	8b 45 f4             	mov    -0xc(%ebp),%eax
  1159aa:	83 c8 01             	or     $0x1,%eax
  1159ad:	89 c2                	mov    %eax,%edx
  1159af:	8b 45 f8             	mov    -0x8(%ebp),%eax
  1159b2:	89 50 04             	mov    %edx,0x4(%eax)
  1159b5:	8b 45 f8             	mov    -0x8(%ebp),%eax
  1159b8:	8b 55 f0             	mov    -0x10(%ebp),%edx
  1159bb:	89 50 0c             	mov    %edx,0xc(%eax)
  1159be:	8b 45 f8             	mov    -0x8(%ebp),%eax
  1159c1:	8b 55 cc             	mov    -0x34(%ebp),%edx
  1159c4:	89 50 08             	mov    %edx,0x8(%eax)
  1159c7:	8b 55 f8             	mov    -0x8(%ebp),%edx
  1159ca:	8b 45 f4             	mov    -0xc(%ebp),%eax
  1159cd:	01 c2                	add    %eax,%edx
  1159cf:	8b 45 f4             	mov    -0xc(%ebp),%eax
  1159d2:	89 02                	mov    %eax,(%edx)
  1159d4:	eb 1d                	jmp    1159f3 <malloc_consolidate+0x1a2>
  1159d6:	8b 45 e0             	mov    -0x20(%ebp),%eax
  1159d9:	01 45 f4             	add    %eax,-0xc(%ebp)
  1159dc:	8b 45 f4             	mov    -0xc(%ebp),%eax
  1159df:	83 c8 01             	or     $0x1,%eax
  1159e2:	89 c2                	mov    %eax,%edx
  1159e4:	8b 45 f8             	mov    -0x8(%ebp),%eax
  1159e7:	89 50 04             	mov    %edx,0x4(%eax)
  1159ea:	8b 45 08             	mov    0x8(%ebp),%eax
  1159ed:	8b 55 f8             	mov    -0x8(%ebp),%edx
  1159f0:	89 50 2c             	mov    %edx,0x2c(%eax)
  1159f3:	8b 45 e8             	mov    -0x18(%ebp),%eax
  1159f6:	89 45 f8             	mov    %eax,-0x8(%ebp)
  1159f9:	83 7d f8 00          	cmpl   $0x0,-0x8(%ebp)
  1159fd:	0f 85 bd fe ff ff    	jne    1158c0 <malloc_consolidate+0x6f>
  115a03:	8b 45 fc             	mov    -0x4(%ebp),%eax
  115a06:	8d 50 04             	lea    0x4(%eax),%edx
  115a09:	89 55 fc             	mov    %edx,-0x4(%ebp)
  115a0c:	39 45 ec             	cmp    %eax,-0x14(%ebp)
  115a0f:	0f 85 90 fe ff ff    	jne    1158a5 <malloc_consolidate+0x54>
  115a15:	eb 0b                	jmp    115a22 <malloc_consolidate+0x1d1>
  115a17:	ff 75 08             	push   0x8(%ebp)
  115a1a:	e8 26 ef ff ff       	call   114945 <malloc_init_state>
  115a1f:	83 c4 04             	add    $0x4,%esp
  115a22:	90                   	nop
  115a23:	89 ec                	mov    %ebp,%esp
  115a25:	5d                   	pop    %ebp
  115a26:	c3                   	ret    

00115a27 <kusrealloc>:
  115a27:	55                   	push   %ebp
  115a28:	89 e5                	mov    %esp,%ebp
  115a2a:	83 ec 48             	sub    $0x48,%esp
  115a2d:	c7 45 ec e0 12 13 00 	movl   $0x1312e0,-0x14(%ebp)
  115a34:	83 7d 08 00          	cmpl   $0x0,0x8(%ebp)
  115a38:	75 13                	jne    115a4d <kusrealloc+0x26>
  115a3a:	83 ec 0c             	sub    $0xc,%esp
  115a3d:	ff 75 0c             	push   0xc(%ebp)
  115a40:	e8 94 f4 ff ff       	call   114ed9 <kusmalloc>
  115a45:	83 c4 10             	add    $0x10,%esp
  115a48:	e9 40 03 00 00       	jmp    115d8d <kusrealloc+0x366>
  115a4d:	83 7d 0c df          	cmpl   $0xffffffdf,0xc(%ebp)
  115a51:	76 0a                	jbe    115a5d <kusrealloc+0x36>
  115a53:	b8 00 00 00 00       	mov    $0x0,%eax
  115a58:	e9 30 03 00 00       	jmp    115d8d <kusrealloc+0x366>
  115a5d:	8b 45 0c             	mov    0xc(%ebp),%eax
  115a60:	83 c0 0b             	add    $0xb,%eax
  115a63:	83 f8 0f             	cmp    $0xf,%eax
  115a66:	76 0b                	jbe    115a73 <kusrealloc+0x4c>
  115a68:	8b 45 0c             	mov    0xc(%ebp),%eax
  115a6b:	83 c0 0b             	add    $0xb,%eax
  115a6e:	83 e0 f8             	and    $0xfffffff8,%eax
  115a71:	eb 05                	jmp    115a78 <kusrealloc+0x51>
  115a73:	b8 10 00 00 00       	mov    $0x10,%eax
  115a78:	89 45 e8             	mov    %eax,-0x18(%ebp)
  115a7b:	8b 45 08             	mov    0x8(%ebp),%eax
  115a7e:	83 e8 08             	sub    $0x8,%eax
  115a81:	89 45 e4             	mov    %eax,-0x1c(%ebp)
  115a84:	8b 45 e4             	mov    -0x1c(%ebp),%eax
  115a87:	8b 40 04             	mov    0x4(%eax),%eax
  115a8a:	83 e0 fc             	and    $0xfffffffc,%eax
  115a8d:	89 45 e0             	mov    %eax,-0x20(%ebp)
  115a90:	8b 45 e4             	mov    -0x1c(%ebp),%eax
  115a93:	8b 40 04             	mov    0x4(%eax),%eax
  115a96:	83 e0 02             	and    $0x2,%eax
  115a99:	85 c0                	test   %eax,%eax
  115a9b:	0f 85 e7 02 00 00    	jne    115d88 <kusrealloc+0x361>
  115aa1:	8b 45 e0             	mov    -0x20(%ebp),%eax
  115aa4:	3b 45 e8             	cmp    -0x18(%ebp),%eax
  115aa7:	72 11                	jb     115aba <kusrealloc+0x93>
  115aa9:	8b 45 e4             	mov    -0x1c(%ebp),%eax
  115aac:	89 45 f4             	mov    %eax,-0xc(%ebp)
  115aaf:	8b 45 e0             	mov    -0x20(%ebp),%eax
  115ab2:	89 45 f0             	mov    %eax,-0x10(%ebp)
  115ab5:	e9 30 02 00 00       	jmp    115cea <kusrealloc+0x2c3>
  115aba:	8b 55 e4             	mov    -0x1c(%ebp),%edx
  115abd:	8b 45 e0             	mov    -0x20(%ebp),%eax
  115ac0:	01 d0                	add    %edx,%eax
  115ac2:	89 45 dc             	mov    %eax,-0x24(%ebp)
  115ac5:	8b 45 ec             	mov    -0x14(%ebp),%eax
  115ac8:	8b 40 2c             	mov    0x2c(%eax),%eax
  115acb:	39 45 dc             	cmp    %eax,-0x24(%ebp)
  115ace:	75 5f                	jne    115b2f <kusrealloc+0x108>
  115ad0:	8b 45 dc             	mov    -0x24(%ebp),%eax
  115ad3:	8b 40 04             	mov    0x4(%eax),%eax
  115ad6:	83 e0 fc             	and    $0xfffffffc,%eax
  115ad9:	89 c2                	mov    %eax,%edx
  115adb:	8b 45 e0             	mov    -0x20(%ebp),%eax
  115ade:	01 d0                	add    %edx,%eax
  115ae0:	89 45 f0             	mov    %eax,-0x10(%ebp)
  115ae3:	8b 45 e8             	mov    -0x18(%ebp),%eax
  115ae6:	83 c0 10             	add    $0x10,%eax
  115ae9:	39 45 f0             	cmp    %eax,-0x10(%ebp)
  115aec:	72 41                	jb     115b2f <kusrealloc+0x108>
  115aee:	8b 45 e4             	mov    -0x1c(%ebp),%eax
  115af1:	8b 40 04             	mov    0x4(%eax),%eax
  115af4:	83 e0 01             	and    $0x1,%eax
  115af7:	0b 45 e8             	or     -0x18(%ebp),%eax
  115afa:	89 c2                	mov    %eax,%edx
  115afc:	8b 45 e4             	mov    -0x1c(%ebp),%eax
  115aff:	89 50 04             	mov    %edx,0x4(%eax)
  115b02:	8b 55 e4             	mov    -0x1c(%ebp),%edx
  115b05:	8b 45 e8             	mov    -0x18(%ebp),%eax
  115b08:	01 c2                	add    %eax,%edx
  115b0a:	8b 45 ec             	mov    -0x14(%ebp),%eax
  115b0d:	89 50 2c             	mov    %edx,0x2c(%eax)
  115b10:	8b 45 f0             	mov    -0x10(%ebp),%eax
  115b13:	2b 45 e8             	sub    -0x18(%ebp),%eax
  115b16:	89 c2                	mov    %eax,%edx
  115b18:	8b 45 ec             	mov    -0x14(%ebp),%eax
  115b1b:	8b 40 2c             	mov    0x2c(%eax),%eax
  115b1e:	83 ca 01             	or     $0x1,%edx
  115b21:	89 50 04             	mov    %edx,0x4(%eax)
  115b24:	8b 45 e4             	mov    -0x1c(%ebp),%eax
  115b27:	83 c0 08             	add    $0x8,%eax
  115b2a:	e9 5e 02 00 00       	jmp    115d8d <kusrealloc+0x366>
  115b2f:	8b 45 ec             	mov    -0x14(%ebp),%eax
  115b32:	8b 40 2c             	mov    0x2c(%eax),%eax
  115b35:	39 45 dc             	cmp    %eax,-0x24(%ebp)
  115b38:	74 64                	je     115b9e <kusrealloc+0x177>
  115b3a:	8b 45 dc             	mov    -0x24(%ebp),%eax
  115b3d:	8b 40 04             	mov    0x4(%eax),%eax
  115b40:	83 e0 fe             	and    $0xfffffffe,%eax
  115b43:	89 c2                	mov    %eax,%edx
  115b45:	8b 45 dc             	mov    -0x24(%ebp),%eax
  115b48:	01 d0                	add    %edx,%eax
  115b4a:	8b 40 04             	mov    0x4(%eax),%eax
  115b4d:	83 e0 01             	and    $0x1,%eax
  115b50:	85 c0                	test   %eax,%eax
  115b52:	75 4a                	jne    115b9e <kusrealloc+0x177>
  115b54:	8b 45 dc             	mov    -0x24(%ebp),%eax
  115b57:	8b 40 04             	mov    0x4(%eax),%eax
  115b5a:	83 e0 fc             	and    $0xfffffffc,%eax
  115b5d:	89 c2                	mov    %eax,%edx
  115b5f:	8b 45 e0             	mov    -0x20(%ebp),%eax
  115b62:	01 d0                	add    %edx,%eax
  115b64:	89 45 f0             	mov    %eax,-0x10(%ebp)
  115b67:	8b 45 f0             	mov    -0x10(%ebp),%eax
  115b6a:	3b 45 e8             	cmp    -0x18(%ebp),%eax
  115b6d:	72 2f                	jb     115b9e <kusrealloc+0x177>
  115b6f:	8b 45 e4             	mov    -0x1c(%ebp),%eax
  115b72:	89 45 f4             	mov    %eax,-0xc(%ebp)
  115b75:	8b 45 dc             	mov    -0x24(%ebp),%eax
  115b78:	8b 40 08             	mov    0x8(%eax),%eax
  115b7b:	89 45 d8             	mov    %eax,-0x28(%ebp)
  115b7e:	8b 45 dc             	mov    -0x24(%ebp),%eax
  115b81:	8b 40 0c             	mov    0xc(%eax),%eax
  115b84:	89 45 d4             	mov    %eax,-0x2c(%ebp)
  115b87:	8b 45 d8             	mov    -0x28(%ebp),%eax
  115b8a:	8b 55 d4             	mov    -0x2c(%ebp),%edx
  115b8d:	89 50 0c             	mov    %edx,0xc(%eax)
  115b90:	8b 45 d4             	mov    -0x2c(%ebp),%eax
  115b93:	8b 55 d8             	mov    -0x28(%ebp),%edx
  115b96:	89 50 08             	mov    %edx,0x8(%eax)
  115b99:	e9 4c 01 00 00       	jmp    115cea <kusrealloc+0x2c3>
  115b9e:	8b 45 e8             	mov    -0x18(%ebp),%eax
  115ba1:	83 e8 07             	sub    $0x7,%eax
  115ba4:	83 ec 0c             	sub    $0xc,%esp
  115ba7:	50                   	push   %eax
  115ba8:	e8 2c f3 ff ff       	call   114ed9 <kusmalloc>
  115bad:	83 c4 10             	add    $0x10,%esp
  115bb0:	89 45 d0             	mov    %eax,-0x30(%ebp)
  115bb3:	83 7d d0 00          	cmpl   $0x0,-0x30(%ebp)
  115bb7:	75 0a                	jne    115bc3 <kusrealloc+0x19c>
  115bb9:	b8 00 00 00 00       	mov    $0x0,%eax
  115bbe:	e9 ca 01 00 00       	jmp    115d8d <kusrealloc+0x366>
  115bc3:	8b 45 e8             	mov    -0x18(%ebp),%eax
  115bc6:	83 e8 07             	sub    $0x7,%eax
  115bc9:	83 ec 04             	sub    $0x4,%esp
  115bcc:	50                   	push   %eax
  115bcd:	6a 00                	push   $0x0
  115bcf:	ff 75 d0             	push   -0x30(%ebp)
  115bd2:	e8 55 9a ff ff       	call   10f62c <memset>
  115bd7:	83 c4 10             	add    $0x10,%esp
  115bda:	8b 45 d0             	mov    -0x30(%ebp),%eax
  115bdd:	83 e8 08             	sub    $0x8,%eax
  115be0:	89 45 f4             	mov    %eax,-0xc(%ebp)
  115be3:	8b 45 f4             	mov    -0xc(%ebp),%eax
  115be6:	8b 40 04             	mov    0x4(%eax),%eax
  115be9:	83 e0 fc             	and    $0xfffffffc,%eax
  115bec:	89 45 f0             	mov    %eax,-0x10(%ebp)
  115bef:	8b 45 f4             	mov    -0xc(%ebp),%eax
  115bf2:	3b 45 dc             	cmp    -0x24(%ebp),%eax
  115bf5:	75 11                	jne    115c08 <kusrealloc+0x1e1>
  115bf7:	8b 45 e0             	mov    -0x20(%ebp),%eax
  115bfa:	01 45 f0             	add    %eax,-0x10(%ebp)
  115bfd:	8b 45 e4             	mov    -0x1c(%ebp),%eax
  115c00:	89 45 f4             	mov    %eax,-0xc(%ebp)
  115c03:	e9 e2 00 00 00       	jmp    115cea <kusrealloc+0x2c3>
  115c08:	8b 45 e0             	mov    -0x20(%ebp),%eax
  115c0b:	83 e8 04             	sub    $0x4,%eax
  115c0e:	89 45 cc             	mov    %eax,-0x34(%ebp)
  115c11:	8b 45 08             	mov    0x8(%ebp),%eax
  115c14:	89 45 c8             	mov    %eax,-0x38(%ebp)
  115c17:	8b 45 d0             	mov    -0x30(%ebp),%eax
  115c1a:	89 45 c4             	mov    %eax,-0x3c(%ebp)
  115c1d:	8b 45 cc             	mov    -0x34(%ebp),%eax
  115c20:	c1 e8 02             	shr    $0x2,%eax
  115c23:	89 45 c0             	mov    %eax,-0x40(%ebp)
  115c26:	83 7d c0 09          	cmpl   $0x9,-0x40(%ebp)
  115c2a:	76 19                	jbe    115c45 <kusrealloc+0x21e>
  115c2c:	83 ec 04             	sub    $0x4,%esp
  115c2f:	ff 75 cc             	push   -0x34(%ebp)
  115c32:	ff 75 c8             	push   -0x38(%ebp)
  115c35:	ff 75 c4             	push   -0x3c(%ebp)
  115c38:	e8 2d 99 ff ff       	call   10f56a <memcpy>
  115c3d:	83 c4 10             	add    $0x10,%esp
  115c40:	e9 8c 00 00 00       	jmp    115cd1 <kusrealloc+0x2aa>
  115c45:	8b 45 c8             	mov    -0x38(%ebp),%eax
  115c48:	8b 10                	mov    (%eax),%edx
  115c4a:	8b 45 c4             	mov    -0x3c(%ebp),%eax
  115c4d:	89 10                	mov    %edx,(%eax)
  115c4f:	8b 45 c4             	mov    -0x3c(%ebp),%eax
  115c52:	8d 50 04             	lea    0x4(%eax),%edx
  115c55:	8b 45 c8             	mov    -0x38(%ebp),%eax
  115c58:	8b 40 04             	mov    0x4(%eax),%eax
  115c5b:	89 02                	mov    %eax,(%edx)
  115c5d:	8b 45 c4             	mov    -0x3c(%ebp),%eax
  115c60:	8d 50 08             	lea    0x8(%eax),%edx
  115c63:	8b 45 c8             	mov    -0x38(%ebp),%eax
  115c66:	8b 40 08             	mov    0x8(%eax),%eax
  115c69:	89 02                	mov    %eax,(%edx)
  115c6b:	83 7d c0 04          	cmpl   $0x4,-0x40(%ebp)
  115c6f:	76 60                	jbe    115cd1 <kusrealloc+0x2aa>
  115c71:	8b 45 c4             	mov    -0x3c(%ebp),%eax
  115c74:	8d 50 0c             	lea    0xc(%eax),%edx
  115c77:	8b 45 c8             	mov    -0x38(%ebp),%eax
  115c7a:	8b 40 0c             	mov    0xc(%eax),%eax
  115c7d:	89 02                	mov    %eax,(%edx)
  115c7f:	8b 45 c4             	mov    -0x3c(%ebp),%eax
  115c82:	8d 50 10             	lea    0x10(%eax),%edx
  115c85:	8b 45 c8             	mov    -0x38(%ebp),%eax
  115c88:	8b 40 10             	mov    0x10(%eax),%eax
  115c8b:	89 02                	mov    %eax,(%edx)
  115c8d:	83 7d c0 06          	cmpl   $0x6,-0x40(%ebp)
  115c91:	76 3e                	jbe    115cd1 <kusrealloc+0x2aa>
  115c93:	8b 45 c4             	mov    -0x3c(%ebp),%eax
  115c96:	8d 50 14             	lea    0x14(%eax),%edx
  115c99:	8b 45 c8             	mov    -0x38(%ebp),%eax
  115c9c:	8b 40 14             	mov    0x14(%eax),%eax
  115c9f:	89 02                	mov    %eax,(%edx)
  115ca1:	8b 45 c4             	mov    -0x3c(%ebp),%eax
  115ca4:	8d 50 18             	lea    0x18(%eax),%edx
  115ca7:	8b 45 c8             	mov    -0x38(%ebp),%eax
  115caa:	8b 40 18             	mov    0x18(%eax),%eax
  115cad:	89 02                	mov    %eax,(%edx)
  115caf:	83 7d c0 08          	cmpl   $0x8,-0x40(%ebp)
  115cb3:	76 1c                	jbe    115cd1 <kusrealloc+0x2aa>
  115cb5:	8b 45 c4             	mov    -0x3c(%ebp),%eax
  115cb8:	8d 50 1c             	lea    0x1c(%eax),%edx
  115cbb:	8b 45 c8             	mov    -0x38(%ebp),%eax
  115cbe:	8b 40 1c             	mov    0x1c(%eax),%eax
  115cc1:	89 02                	mov    %eax,(%edx)
  115cc3:	8b 45 c4             	mov    -0x3c(%ebp),%eax
  115cc6:	8d 50 20             	lea    0x20(%eax),%edx
  115cc9:	8b 45 c8             	mov    -0x38(%ebp),%eax
  115ccc:	8b 40 20             	mov    0x20(%eax),%eax
  115ccf:	89 02                	mov    %eax,(%edx)
  115cd1:	83 ec 0c             	sub    $0xc,%esp
  115cd4:	ff 75 08             	push   0x8(%ebp)
  115cd7:	e8 58 f9 ff ff       	call   115634 <kusfree>
  115cdc:	83 c4 10             	add    $0x10,%esp
  115cdf:	8b 45 f4             	mov    -0xc(%ebp),%eax
  115ce2:	83 c0 08             	add    $0x8,%eax
  115ce5:	e9 a3 00 00 00       	jmp    115d8d <kusrealloc+0x366>
  115cea:	8b 45 f0             	mov    -0x10(%ebp),%eax
  115ced:	2b 45 e8             	sub    -0x18(%ebp),%eax
  115cf0:	89 45 bc             	mov    %eax,-0x44(%ebp)
  115cf3:	83 7d bc 0f          	cmpl   $0xf,-0x44(%ebp)
  115cf7:	77 2f                	ja     115d28 <kusrealloc+0x301>
  115cf9:	8b 45 f4             	mov    -0xc(%ebp),%eax
  115cfc:	8b 40 04             	mov    0x4(%eax),%eax
  115cff:	83 e0 01             	and    $0x1,%eax
  115d02:	0b 45 f0             	or     -0x10(%ebp),%eax
  115d05:	89 c2                	mov    %eax,%edx
  115d07:	8b 45 f4             	mov    -0xc(%ebp),%eax
  115d0a:	89 50 04             	mov    %edx,0x4(%eax)
  115d0d:	8b 55 f4             	mov    -0xc(%ebp),%edx
  115d10:	8b 45 f0             	mov    -0x10(%ebp),%eax
  115d13:	01 d0                	add    %edx,%eax
  115d15:	8b 50 04             	mov    0x4(%eax),%edx
  115d18:	8b 4d f4             	mov    -0xc(%ebp),%ecx
  115d1b:	8b 45 f0             	mov    -0x10(%ebp),%eax
  115d1e:	01 c8                	add    %ecx,%eax
  115d20:	83 ca 01             	or     $0x1,%edx
  115d23:	89 50 04             	mov    %edx,0x4(%eax)
  115d26:	eb 58                	jmp    115d80 <kusrealloc+0x359>
  115d28:	8b 55 f4             	mov    -0xc(%ebp),%edx
  115d2b:	8b 45 e8             	mov    -0x18(%ebp),%eax
  115d2e:	01 d0                	add    %edx,%eax
  115d30:	89 45 b8             	mov    %eax,-0x48(%ebp)
  115d33:	8b 45 f4             	mov    -0xc(%ebp),%eax
  115d36:	8b 40 04             	mov    0x4(%eax),%eax
  115d39:	83 e0 01             	and    $0x1,%eax
  115d3c:	0b 45 e8             	or     -0x18(%ebp),%eax
  115d3f:	89 c2                	mov    %eax,%edx
  115d41:	8b 45 f4             	mov    -0xc(%ebp),%eax
  115d44:	89 50 04             	mov    %edx,0x4(%eax)
  115d47:	8b 45 bc             	mov    -0x44(%ebp),%eax
  115d4a:	83 c8 01             	or     $0x1,%eax
  115d4d:	89 c2                	mov    %eax,%edx
  115d4f:	8b 45 b8             	mov    -0x48(%ebp),%eax
  115d52:	89 50 04             	mov    %edx,0x4(%eax)
  115d55:	8b 55 b8             	mov    -0x48(%ebp),%edx
  115d58:	8b 45 bc             	mov    -0x44(%ebp),%eax
  115d5b:	01 d0                	add    %edx,%eax
  115d5d:	8b 50 04             	mov    0x4(%eax),%edx
  115d60:	8b 4d b8             	mov    -0x48(%ebp),%ecx
  115d63:	8b 45 bc             	mov    -0x44(%ebp),%eax
  115d66:	01 c8                	add    %ecx,%eax
  115d68:	83 ca 01             	or     $0x1,%edx
  115d6b:	89 50 04             	mov    %edx,0x4(%eax)
  115d6e:	8b 45 b8             	mov    -0x48(%ebp),%eax
  115d71:	83 c0 08             	add    $0x8,%eax
  115d74:	83 ec 0c             	sub    $0xc,%esp
  115d77:	50                   	push   %eax
  115d78:	e8 b7 f8 ff ff       	call   115634 <kusfree>
  115d7d:	83 c4 10             	add    $0x10,%esp
  115d80:	8b 45 f4             	mov    -0xc(%ebp),%eax
  115d83:	83 c0 08             	add    $0x8,%eax
  115d86:	eb 05                	jmp    115d8d <kusrealloc+0x366>
  115d88:	b8 00 00 00 00       	mov    $0x0,%eax
  115d8d:	89 ec                	mov    %ebp,%esp
  115d8f:	5d                   	pop    %ebp
  115d90:	c3                   	ret    

00115d91 <kusmemalign>:
  115d91:	55                   	push   %ebp
  115d92:	89 e5                	mov    %esp,%ebp
  115d94:	83 ec 38             	sub    $0x38,%esp
  115d97:	83 7d 08 08          	cmpl   $0x8,0x8(%ebp)
  115d9b:	77 13                	ja     115db0 <kusmemalign+0x1f>
  115d9d:	83 ec 0c             	sub    $0xc,%esp
  115da0:	ff 75 0c             	push   0xc(%ebp)
  115da3:	e8 31 f1 ff ff       	call   114ed9 <kusmalloc>
  115da8:	83 c4 10             	add    $0x10,%esp
  115dab:	e9 07 02 00 00       	jmp    115fb7 <kusmemalign+0x226>
  115db0:	83 7d 08 0f          	cmpl   $0xf,0x8(%ebp)
  115db4:	77 07                	ja     115dbd <kusmemalign+0x2c>
  115db6:	c7 45 08 10 00 00 00 	movl   $0x10,0x8(%ebp)
  115dbd:	8b 45 08             	mov    0x8(%ebp),%eax
  115dc0:	48                   	dec    %eax
  115dc1:	23 45 08             	and    0x8(%ebp),%eax
  115dc4:	85 c0                	test   %eax,%eax
  115dc6:	74 1a                	je     115de2 <kusmemalign+0x51>
  115dc8:	c7 45 ec 10 00 00 00 	movl   $0x10,-0x14(%ebp)
  115dcf:	eb 03                	jmp    115dd4 <kusmemalign+0x43>
  115dd1:	d1 65 ec             	shll   -0x14(%ebp)
  115dd4:	8b 45 ec             	mov    -0x14(%ebp),%eax
  115dd7:	3b 45 08             	cmp    0x8(%ebp),%eax
  115dda:	72 f5                	jb     115dd1 <kusmemalign+0x40>
  115ddc:	8b 45 ec             	mov    -0x14(%ebp),%eax
  115ddf:	89 45 08             	mov    %eax,0x8(%ebp)
  115de2:	83 7d 0c df          	cmpl   $0xffffffdf,0xc(%ebp)
  115de6:	76 0a                	jbe    115df2 <kusmemalign+0x61>
  115de8:	b8 00 00 00 00       	mov    $0x0,%eax
  115ded:	e9 c5 01 00 00       	jmp    115fb7 <kusmemalign+0x226>
  115df2:	8b 45 0c             	mov    0xc(%ebp),%eax
  115df5:	83 c0 0b             	add    $0xb,%eax
  115df8:	83 f8 0f             	cmp    $0xf,%eax
  115dfb:	76 0b                	jbe    115e08 <kusmemalign+0x77>
  115dfd:	8b 45 0c             	mov    0xc(%ebp),%eax
  115e00:	83 c0 0b             	add    $0xb,%eax
  115e03:	83 e0 f8             	and    $0xfffffff8,%eax
  115e06:	eb 05                	jmp    115e0d <kusmemalign+0x7c>
  115e08:	b8 10 00 00 00       	mov    $0x10,%eax
  115e0d:	89 45 e8             	mov    %eax,-0x18(%ebp)
  115e10:	8b 55 e8             	mov    -0x18(%ebp),%edx
  115e13:	8b 45 08             	mov    0x8(%ebp),%eax
  115e16:	01 d0                	add    %edx,%eax
  115e18:	83 c0 10             	add    $0x10,%eax
  115e1b:	83 ec 0c             	sub    $0xc,%esp
  115e1e:	50                   	push   %eax
  115e1f:	e8 b5 f0 ff ff       	call   114ed9 <kusmalloc>
  115e24:	83 c4 10             	add    $0x10,%esp
  115e27:	89 45 e4             	mov    %eax,-0x1c(%ebp)
  115e2a:	83 7d e4 00          	cmpl   $0x0,-0x1c(%ebp)
  115e2e:	75 0a                	jne    115e3a <kusmemalign+0xa9>
  115e30:	b8 00 00 00 00       	mov    $0x0,%eax
  115e35:	e9 7d 01 00 00       	jmp    115fb7 <kusmemalign+0x226>
  115e3a:	8b 55 e8             	mov    -0x18(%ebp),%edx
  115e3d:	8b 45 08             	mov    0x8(%ebp),%eax
  115e40:	01 d0                	add    %edx,%eax
  115e42:	83 c0 10             	add    $0x10,%eax
  115e45:	83 ec 04             	sub    $0x4,%esp
  115e48:	50                   	push   %eax
  115e49:	6a 00                	push   $0x0
  115e4b:	ff 75 e4             	push   -0x1c(%ebp)
  115e4e:	e8 d9 97 ff ff       	call   10f62c <memset>
  115e53:	83 c4 10             	add    $0x10,%esp
  115e56:	8b 45 e4             	mov    -0x1c(%ebp),%eax
  115e59:	83 e8 08             	sub    $0x8,%eax
  115e5c:	89 45 f4             	mov    %eax,-0xc(%ebp)
  115e5f:	8b 45 e4             	mov    -0x1c(%ebp),%eax
  115e62:	ba 00 00 00 00       	mov    $0x0,%edx
  115e67:	f7 75 08             	divl   0x8(%ebp)
  115e6a:	89 d0                	mov    %edx,%eax
  115e6c:	85 c0                	test   %eax,%eax
  115e6e:	0f 84 d1 00 00 00    	je     115f45 <kusmemalign+0x1b4>
  115e74:	8b 45 08             	mov    0x8(%ebp),%eax
  115e77:	8d 50 ff             	lea    -0x1(%eax),%edx
  115e7a:	8b 45 e4             	mov    -0x1c(%ebp),%eax
  115e7d:	01 d0                	add    %edx,%eax
  115e7f:	89 c2                	mov    %eax,%edx
  115e81:	8b 45 08             	mov    0x8(%ebp),%eax
  115e84:	f7 d8                	neg    %eax
  115e86:	21 d0                	and    %edx,%eax
  115e88:	83 e8 08             	sub    $0x8,%eax
  115e8b:	89 45 f0             	mov    %eax,-0x10(%ebp)
  115e8e:	8b 45 f0             	mov    -0x10(%ebp),%eax
  115e91:	2b 45 f4             	sub    -0xc(%ebp),%eax
  115e94:	83 f8 0f             	cmp    $0xf,%eax
  115e97:	77 06                	ja     115e9f <kusmemalign+0x10e>
  115e99:	8b 45 08             	mov    0x8(%ebp),%eax
  115e9c:	01 45 f0             	add    %eax,-0x10(%ebp)
  115e9f:	8b 45 f0             	mov    -0x10(%ebp),%eax
  115ea2:	89 45 e0             	mov    %eax,-0x20(%ebp)
  115ea5:	8b 45 f0             	mov    -0x10(%ebp),%eax
  115ea8:	2b 45 f4             	sub    -0xc(%ebp),%eax
  115eab:	89 45 dc             	mov    %eax,-0x24(%ebp)
  115eae:	8b 45 f4             	mov    -0xc(%ebp),%eax
  115eb1:	8b 40 04             	mov    0x4(%eax),%eax
  115eb4:	83 e0 fc             	and    $0xfffffffc,%eax
  115eb7:	2b 45 dc             	sub    -0x24(%ebp),%eax
  115eba:	89 45 d8             	mov    %eax,-0x28(%ebp)
  115ebd:	8b 45 f4             	mov    -0xc(%ebp),%eax
  115ec0:	8b 40 04             	mov    0x4(%eax),%eax
  115ec3:	83 e0 02             	and    $0x2,%eax
  115ec6:	85 c0                	test   %eax,%eax
  115ec8:	74 28                	je     115ef2 <kusmemalign+0x161>
  115eca:	8b 45 f4             	mov    -0xc(%ebp),%eax
  115ecd:	8b 10                	mov    (%eax),%edx
  115ecf:	8b 45 dc             	mov    -0x24(%ebp),%eax
  115ed2:	01 c2                	add    %eax,%edx
  115ed4:	8b 45 e0             	mov    -0x20(%ebp),%eax
  115ed7:	89 10                	mov    %edx,(%eax)
  115ed9:	8b 45 d8             	mov    -0x28(%ebp),%eax
  115edc:	83 c8 02             	or     $0x2,%eax
  115edf:	89 c2                	mov    %eax,%edx
  115ee1:	8b 45 e0             	mov    -0x20(%ebp),%eax
  115ee4:	89 50 04             	mov    %edx,0x4(%eax)
  115ee7:	8b 45 e0             	mov    -0x20(%ebp),%eax
  115eea:	83 c0 08             	add    $0x8,%eax
  115eed:	e9 c5 00 00 00       	jmp    115fb7 <kusmemalign+0x226>
  115ef2:	8b 45 d8             	mov    -0x28(%ebp),%eax
  115ef5:	83 c8 01             	or     $0x1,%eax
  115ef8:	89 c2                	mov    %eax,%edx
  115efa:	8b 45 e0             	mov    -0x20(%ebp),%eax
  115efd:	89 50 04             	mov    %edx,0x4(%eax)
  115f00:	8b 55 e0             	mov    -0x20(%ebp),%edx
  115f03:	8b 45 d8             	mov    -0x28(%ebp),%eax
  115f06:	01 d0                	add    %edx,%eax
  115f08:	8b 50 04             	mov    0x4(%eax),%edx
  115f0b:	8b 4d e0             	mov    -0x20(%ebp),%ecx
  115f0e:	8b 45 d8             	mov    -0x28(%ebp),%eax
  115f11:	01 c8                	add    %ecx,%eax
  115f13:	83 ca 01             	or     $0x1,%edx
  115f16:	89 50 04             	mov    %edx,0x4(%eax)
  115f19:	8b 45 f4             	mov    -0xc(%ebp),%eax
  115f1c:	8b 40 04             	mov    0x4(%eax),%eax
  115f1f:	83 e0 01             	and    $0x1,%eax
  115f22:	0b 45 dc             	or     -0x24(%ebp),%eax
  115f25:	89 c2                	mov    %eax,%edx
  115f27:	8b 45 f4             	mov    -0xc(%ebp),%eax
  115f2a:	89 50 04             	mov    %edx,0x4(%eax)
  115f2d:	8b 45 f4             	mov    -0xc(%ebp),%eax
  115f30:	83 c0 08             	add    $0x8,%eax
  115f33:	83 ec 0c             	sub    $0xc,%esp
  115f36:	50                   	push   %eax
  115f37:	e8 f8 f6 ff ff       	call   115634 <kusfree>
  115f3c:	83 c4 10             	add    $0x10,%esp
  115f3f:	8b 45 e0             	mov    -0x20(%ebp),%eax
  115f42:	89 45 f4             	mov    %eax,-0xc(%ebp)
  115f45:	8b 45 f4             	mov    -0xc(%ebp),%eax
  115f48:	8b 40 04             	mov    0x4(%eax),%eax
  115f4b:	83 e0 02             	and    $0x2,%eax
  115f4e:	85 c0                	test   %eax,%eax
  115f50:	75 5f                	jne    115fb1 <kusmemalign+0x220>
  115f52:	8b 45 f4             	mov    -0xc(%ebp),%eax
  115f55:	8b 40 04             	mov    0x4(%eax),%eax
  115f58:	83 e0 fc             	and    $0xfffffffc,%eax
  115f5b:	89 45 d4             	mov    %eax,-0x2c(%ebp)
  115f5e:	8b 45 e8             	mov    -0x18(%ebp),%eax
  115f61:	83 c0 10             	add    $0x10,%eax
  115f64:	39 45 d4             	cmp    %eax,-0x2c(%ebp)
  115f67:	76 48                	jbe    115fb1 <kusmemalign+0x220>
  115f69:	8b 45 d4             	mov    -0x2c(%ebp),%eax
  115f6c:	2b 45 e8             	sub    -0x18(%ebp),%eax
  115f6f:	89 45 d0             	mov    %eax,-0x30(%ebp)
  115f72:	8b 55 f4             	mov    -0xc(%ebp),%edx
  115f75:	8b 45 e8             	mov    -0x18(%ebp),%eax
  115f78:	01 d0                	add    %edx,%eax
  115f7a:	89 45 cc             	mov    %eax,-0x34(%ebp)
  115f7d:	8b 45 d0             	mov    -0x30(%ebp),%eax
  115f80:	83 c8 01             	or     $0x1,%eax
  115f83:	89 c2                	mov    %eax,%edx
  115f85:	8b 45 cc             	mov    -0x34(%ebp),%eax
  115f88:	89 50 04             	mov    %edx,0x4(%eax)
  115f8b:	8b 45 f4             	mov    -0xc(%ebp),%eax
  115f8e:	8b 40 04             	mov    0x4(%eax),%eax
  115f91:	83 e0 01             	and    $0x1,%eax
  115f94:	0b 45 e8             	or     -0x18(%ebp),%eax
  115f97:	89 c2                	mov    %eax,%edx
  115f99:	8b 45 f4             	mov    -0xc(%ebp),%eax
  115f9c:	89 50 04             	mov    %edx,0x4(%eax)
  115f9f:	8b 45 cc             	mov    -0x34(%ebp),%eax
  115fa2:	83 c0 08             	add    $0x8,%eax
  115fa5:	83 ec 0c             	sub    $0xc,%esp
  115fa8:	50                   	push   %eax
  115fa9:	e8 86 f6 ff ff       	call   115634 <kusfree>
  115fae:	83 c4 10             	add    $0x10,%esp
  115fb1:	8b 45 f4             	mov    -0xc(%ebp),%eax
  115fb4:	83 c0 08             	add    $0x8,%eax
  115fb7:	89 ec                	mov    %ebp,%esp
  115fb9:	5d                   	pop    %ebp
  115fba:	c3                   	ret    

00115fbb <kuscalloc>:
  115fbb:	55                   	push   %ebp
  115fbc:	89 e5                	mov    %esp,%ebp
  115fbe:	83 ec 28             	sub    $0x28,%esp
  115fc1:	8b 45 08             	mov    0x8(%ebp),%eax
  115fc4:	0f af 45 0c          	imul   0xc(%ebp),%eax
  115fc8:	83 ec 0c             	sub    $0xc,%esp
  115fcb:	50                   	push   %eax
  115fcc:	e8 08 ef ff ff       	call   114ed9 <kusmalloc>
  115fd1:	83 c4 10             	add    $0x10,%esp
  115fd4:	89 45 f4             	mov    %eax,-0xc(%ebp)
  115fd7:	83 7d f4 00          	cmpl   $0x0,-0xc(%ebp)
  115fdb:	0f 84 13 01 00 00    	je     1160f4 <kuscalloc+0x139>
  115fe1:	8b 45 08             	mov    0x8(%ebp),%eax
  115fe4:	0f af 45 0c          	imul   0xc(%ebp),%eax
  115fe8:	83 ec 04             	sub    $0x4,%esp
  115feb:	50                   	push   %eax
  115fec:	6a 00                	push   $0x0
  115fee:	ff 75 f4             	push   -0xc(%ebp)
  115ff1:	e8 36 96 ff ff       	call   10f62c <memset>
  115ff6:	83 c4 10             	add    $0x10,%esp
  115ff9:	8b 45 f4             	mov    -0xc(%ebp),%eax
  115ffc:	83 e8 08             	sub    $0x8,%eax
  115fff:	89 45 f0             	mov    %eax,-0x10(%ebp)
  116002:	8b 45 f0             	mov    -0x10(%ebp),%eax
  116005:	8b 40 04             	mov    0x4(%eax),%eax
  116008:	83 e0 02             	and    $0x2,%eax
  11600b:	85 c0                	test   %eax,%eax
  11600d:	0f 85 b9 00 00 00    	jne    1160cc <kuscalloc+0x111>
  116013:	8b 45 f4             	mov    -0xc(%ebp),%eax
  116016:	89 45 ec             	mov    %eax,-0x14(%ebp)
  116019:	8b 45 f0             	mov    -0x10(%ebp),%eax
  11601c:	8b 40 04             	mov    0x4(%eax),%eax
  11601f:	83 e0 fc             	and    $0xfffffffc,%eax
  116022:	83 e8 04             	sub    $0x4,%eax
  116025:	89 45 e8             	mov    %eax,-0x18(%ebp)
  116028:	8b 45 e8             	mov    -0x18(%ebp),%eax
  11602b:	c1 e8 02             	shr    $0x2,%eax
  11602e:	89 45 e4             	mov    %eax,-0x1c(%ebp)
  116031:	83 7d e4 09          	cmpl   $0x9,-0x1c(%ebp)
  116035:	76 18                	jbe    11604f <kuscalloc+0x94>
  116037:	83 ec 04             	sub    $0x4,%esp
  11603a:	ff 75 e8             	push   -0x18(%ebp)
  11603d:	6a 00                	push   $0x0
  11603f:	ff 75 ec             	push   -0x14(%ebp)
  116042:	e8 e5 95 ff ff       	call   10f62c <memset>
  116047:	83 c4 10             	add    $0x10,%esp
  11604a:	e9 a5 00 00 00       	jmp    1160f4 <kuscalloc+0x139>
  11604f:	8b 45 ec             	mov    -0x14(%ebp),%eax
  116052:	c7 00 00 00 00 00    	movl   $0x0,(%eax)
  116058:	8b 45 ec             	mov    -0x14(%ebp),%eax
  11605b:	83 c0 04             	add    $0x4,%eax
  11605e:	c7 00 00 00 00 00    	movl   $0x0,(%eax)
  116064:	8b 45 ec             	mov    -0x14(%ebp),%eax
  116067:	83 c0 08             	add    $0x8,%eax
  11606a:	c7 00 00 00 00 00    	movl   $0x0,(%eax)
  116070:	83 7d e4 04          	cmpl   $0x4,-0x1c(%ebp)
  116074:	76 7e                	jbe    1160f4 <kuscalloc+0x139>
  116076:	8b 45 ec             	mov    -0x14(%ebp),%eax
  116079:	83 c0 0c             	add    $0xc,%eax
  11607c:	c7 00 00 00 00 00    	movl   $0x0,(%eax)
  116082:	8b 45 ec             	mov    -0x14(%ebp),%eax
  116085:	83 c0 10             	add    $0x10,%eax
  116088:	c7 00 00 00 00 00    	movl   $0x0,(%eax)
  11608e:	83 7d e4 06          	cmpl   $0x6,-0x1c(%ebp)
  116092:	76 60                	jbe    1160f4 <kuscalloc+0x139>
  116094:	8b 45 ec             	mov    -0x14(%ebp),%eax
  116097:	83 c0 14             	add    $0x14,%eax
  11609a:	c7 00 00 00 00 00    	movl   $0x0,(%eax)
  1160a0:	8b 45 ec             	mov    -0x14(%ebp),%eax
  1160a3:	83 c0 18             	add    $0x18,%eax
  1160a6:	c7 00 00 00 00 00    	movl   $0x0,(%eax)
  1160ac:	83 7d e4 08          	cmpl   $0x8,-0x1c(%ebp)
  1160b0:	76 42                	jbe    1160f4 <kuscalloc+0x139>
  1160b2:	8b 45 ec             	mov    -0x14(%ebp),%eax
  1160b5:	83 c0 1c             	add    $0x1c,%eax
  1160b8:	c7 00 00 00 00 00    	movl   $0x0,(%eax)
  1160be:	8b 45 ec             	mov    -0x14(%ebp),%eax
  1160c1:	83 c0 20             	add    $0x20,%eax
  1160c4:	c7 00 00 00 00 00    	movl   $0x0,(%eax)
  1160ca:	eb 28                	jmp    1160f4 <kuscalloc+0x139>
  1160cc:	8b 45 f4             	mov    -0xc(%ebp),%eax
  1160cf:	89 45 ec             	mov    %eax,-0x14(%ebp)
  1160d2:	8b 45 f0             	mov    -0x10(%ebp),%eax
  1160d5:	8b 40 04             	mov    0x4(%eax),%eax
  1160d8:	83 e0 fc             	and    $0xfffffffc,%eax
  1160db:	83 e8 08             	sub    $0x8,%eax
  1160de:	89 45 e8             	mov    %eax,-0x18(%ebp)
  1160e1:	83 ec 04             	sub    $0x4,%esp
  1160e4:	ff 75 e8             	push   -0x18(%ebp)
  1160e7:	6a 00                	push   $0x0
  1160e9:	ff 75 ec             	push   -0x14(%ebp)
  1160ec:	e8 3b 95 ff ff       	call   10f62c <memset>
  1160f1:	83 c4 10             	add    $0x10,%esp
  1160f4:	8b 45 f4             	mov    -0xc(%ebp),%eax
  1160f7:	89 ec                	mov    %ebp,%esp
  1160f9:	5d                   	pop    %ebp
  1160fa:	c3                   	ret    

001160fb <kuscfree>:
  1160fb:	55                   	push   %ebp
  1160fc:	89 e5                	mov    %esp,%ebp
  1160fe:	83 ec 08             	sub    $0x8,%esp
  116101:	83 ec 0c             	sub    $0xc,%esp
  116104:	ff 75 08             	push   0x8(%ebp)
  116107:	e8 28 f5 ff ff       	call   115634 <kusfree>
  11610c:	83 c4 10             	add    $0x10,%esp
  11610f:	90                   	nop
  116110:	89 ec                	mov    %ebp,%esp
  116112:	5d                   	pop    %ebp
  116113:	c3                   	ret    

00116114 <kusindependent_calloc>:
  116114:	55                   	push   %ebp
  116115:	89 e5                	mov    %esp,%ebp
  116117:	83 ec 18             	sub    $0x18,%esp
  11611a:	8b 45 0c             	mov    0xc(%ebp),%eax
  11611d:	89 45 f4             	mov    %eax,-0xc(%ebp)
  116120:	ff 75 10             	push   0x10(%ebp)
  116123:	6a 03                	push   $0x3
  116125:	8d 45 f4             	lea    -0xc(%ebp),%eax
  116128:	50                   	push   %eax
  116129:	ff 75 08             	push   0x8(%ebp)
  11612c:	e8 24 00 00 00       	call   116155 <iALLOc>
  116131:	83 c4 10             	add    $0x10,%esp
  116134:	89 ec                	mov    %ebp,%esp
  116136:	5d                   	pop    %ebp
  116137:	c3                   	ret    

00116138 <kusindependent_comalloc>:
  116138:	55                   	push   %ebp
  116139:	89 e5                	mov    %esp,%ebp
  11613b:	83 ec 08             	sub    $0x8,%esp
  11613e:	ff 75 10             	push   0x10(%ebp)
  116141:	6a 00                	push   $0x0
  116143:	ff 75 0c             	push   0xc(%ebp)
  116146:	ff 75 08             	push   0x8(%ebp)
  116149:	e8 07 00 00 00       	call   116155 <iALLOc>
  11614e:	83 c4 10             	add    $0x10,%esp
  116151:	89 ec                	mov    %ebp,%esp
  116153:	5d                   	pop    %ebp
  116154:	c3                   	ret    

00116155 <iALLOc>:
  116155:	55                   	push   %ebp
  116156:	89 e5                	mov    %esp,%ebp
  116158:	83 ec 38             	sub    $0x38,%esp
  11615b:	c7 45 d4 e0 12 13 00 	movl   $0x1312e0,-0x2c(%ebp)
  116162:	8b 45 d4             	mov    -0x2c(%ebp),%eax
  116165:	8b 00                	mov    (%eax),%eax
  116167:	85 c0                	test   %eax,%eax
  116169:	75 0b                	jne    116176 <iALLOc+0x21>
  11616b:	ff 75 d4             	push   -0x2c(%ebp)
  11616e:	e8 de f6 ff ff       	call   115851 <malloc_consolidate>
  116173:	83 c4 04             	add    $0x4,%esp
  116176:	83 7d 14 00          	cmpl   $0x0,0x14(%ebp)
  11617a:	74 1d                	je     116199 <iALLOc+0x44>
  11617c:	83 7d 08 00          	cmpl   $0x0,0x8(%ebp)
  116180:	75 08                	jne    11618a <iALLOc+0x35>
  116182:	8b 45 14             	mov    0x14(%ebp),%eax
  116185:	e9 4d 02 00 00       	jmp    1163d7 <iALLOc+0x282>
  11618a:	8b 45 14             	mov    0x14(%ebp),%eax
  11618d:	89 45 e0             	mov    %eax,-0x20(%ebp)
  116190:	c7 45 ec 00 00 00 00 	movl   $0x0,-0x14(%ebp)
  116197:	eb 45                	jmp    1161de <iALLOc+0x89>
  116199:	83 7d 08 00          	cmpl   $0x0,0x8(%ebp)
  11619d:	75 12                	jne    1161b1 <iALLOc+0x5c>
  11619f:	83 ec 0c             	sub    $0xc,%esp
  1161a2:	6a 00                	push   $0x0
  1161a4:	e8 30 ed ff ff       	call   114ed9 <kusmalloc>
  1161a9:	83 c4 10             	add    $0x10,%esp
  1161ac:	e9 26 02 00 00       	jmp    1163d7 <iALLOc+0x282>
  1161b1:	c7 45 e0 00 00 00 00 	movl   $0x0,-0x20(%ebp)
  1161b8:	8b 45 08             	mov    0x8(%ebp),%eax
  1161bb:	40                   	inc    %eax
  1161bc:	c1 e0 02             	shl    $0x2,%eax
  1161bf:	83 c0 07             	add    $0x7,%eax
  1161c2:	83 f8 0f             	cmp    $0xf,%eax
  1161c5:	76 0f                	jbe    1161d6 <iALLOc+0x81>
  1161c7:	8b 45 08             	mov    0x8(%ebp),%eax
  1161ca:	40                   	inc    %eax
  1161cb:	c1 e0 02             	shl    $0x2,%eax
  1161ce:	83 c0 07             	add    $0x7,%eax
  1161d1:	83 e0 f8             	and    $0xfffffff8,%eax
  1161d4:	eb 05                	jmp    1161db <iALLOc+0x86>
  1161d6:	b8 10 00 00 00       	mov    $0x10,%eax
  1161db:	89 45 ec             	mov    %eax,-0x14(%ebp)
  1161de:	8b 45 10             	mov    0x10(%ebp),%eax
  1161e1:	83 e0 01             	and    $0x1,%eax
  1161e4:	85 c0                	test   %eax,%eax
  1161e6:	74 2e                	je     116216 <iALLOc+0xc1>
  1161e8:	8b 45 0c             	mov    0xc(%ebp),%eax
  1161eb:	8b 00                	mov    (%eax),%eax
  1161ed:	83 c0 0b             	add    $0xb,%eax
  1161f0:	83 f8 0f             	cmp    $0xf,%eax
  1161f3:	76 0d                	jbe    116202 <iALLOc+0xad>
  1161f5:	8b 45 0c             	mov    0xc(%ebp),%eax
  1161f8:	8b 00                	mov    (%eax),%eax
  1161fa:	83 c0 0b             	add    $0xb,%eax
  1161fd:	83 e0 f8             	and    $0xfffffff8,%eax
  116200:	eb 05                	jmp    116207 <iALLOc+0xb2>
  116202:	b8 10 00 00 00       	mov    $0x10,%eax
  116207:	89 45 f4             	mov    %eax,-0xc(%ebp)
  11620a:	8b 45 08             	mov    0x8(%ebp),%eax
  11620d:	0f af 45 f4          	imul   -0xc(%ebp),%eax
  116211:	89 45 f0             	mov    %eax,-0x10(%ebp)
  116214:	eb 5c                	jmp    116272 <iALLOc+0x11d>
  116216:	c7 45 f4 00 00 00 00 	movl   $0x0,-0xc(%ebp)
  11621d:	c7 45 f0 00 00 00 00 	movl   $0x0,-0x10(%ebp)
  116224:	c7 45 d8 00 00 00 00 	movl   $0x0,-0x28(%ebp)
  11622b:	eb 3d                	jmp    11626a <iALLOc+0x115>
  11622d:	8b 45 d8             	mov    -0x28(%ebp),%eax
  116230:	8d 14 85 00 00 00 00 	lea    0x0(,%eax,4),%edx
  116237:	8b 45 0c             	mov    0xc(%ebp),%eax
  11623a:	01 d0                	add    %edx,%eax
  11623c:	8b 00                	mov    (%eax),%eax
  11623e:	83 c0 0b             	add    $0xb,%eax
  116241:	83 f8 0f             	cmp    $0xf,%eax
  116244:	76 19                	jbe    11625f <iALLOc+0x10a>
  116246:	8b 45 d8             	mov    -0x28(%ebp),%eax
  116249:	8d 14 85 00 00 00 00 	lea    0x0(,%eax,4),%edx
  116250:	8b 45 0c             	mov    0xc(%ebp),%eax
  116253:	01 d0                	add    %edx,%eax
  116255:	8b 00                	mov    (%eax),%eax
  116257:	83 c0 0b             	add    $0xb,%eax
  11625a:	83 e0 f8             	and    $0xfffffff8,%eax
  11625d:	eb 05                	jmp    116264 <iALLOc+0x10f>
  11625f:	b8 10 00 00 00       	mov    $0x10,%eax
  116264:	01 45 f0             	add    %eax,-0x10(%ebp)
  116267:	ff 45 d8             	incl   -0x28(%ebp)
  11626a:	8b 45 d8             	mov    -0x28(%ebp),%eax
  11626d:	3b 45 08             	cmp    0x8(%ebp),%eax
  116270:	75 bb                	jne    11622d <iALLOc+0xd8>
  116272:	8b 55 f0             	mov    -0x10(%ebp),%edx
  116275:	8b 45 ec             	mov    -0x14(%ebp),%eax
  116278:	01 d0                	add    %edx,%eax
  11627a:	83 e8 07             	sub    $0x7,%eax
  11627d:	89 45 dc             	mov    %eax,-0x24(%ebp)
  116280:	8b 45 d4             	mov    -0x2c(%ebp),%eax
  116283:	8b 80 54 03 00 00    	mov    0x354(%eax),%eax
  116289:	89 45 d0             	mov    %eax,-0x30(%ebp)
  11628c:	8b 45 d4             	mov    -0x2c(%ebp),%eax
  11628f:	c7 80 54 03 00 00 00 	movl   $0x0,0x354(%eax)
  116296:	00 00 00 
  116299:	83 ec 0c             	sub    $0xc,%esp
  11629c:	ff 75 dc             	push   -0x24(%ebp)
  11629f:	e8 35 ec ff ff       	call   114ed9 <kusmalloc>
  1162a4:	83 c4 10             	add    $0x10,%esp
  1162a7:	89 45 cc             	mov    %eax,-0x34(%ebp)
  1162aa:	8b 45 d4             	mov    -0x2c(%ebp),%eax
  1162ad:	8b 55 d0             	mov    -0x30(%ebp),%edx
  1162b0:	89 90 54 03 00 00    	mov    %edx,0x354(%eax)
  1162b6:	83 7d cc 00          	cmpl   $0x0,-0x34(%ebp)
  1162ba:	75 0a                	jne    1162c6 <iALLOc+0x171>
  1162bc:	b8 00 00 00 00       	mov    $0x0,%eax
  1162c1:	e9 11 01 00 00       	jmp    1163d7 <iALLOc+0x282>
  1162c6:	8b 45 cc             	mov    -0x34(%ebp),%eax
  1162c9:	83 e8 08             	sub    $0x8,%eax
  1162cc:	89 45 e8             	mov    %eax,-0x18(%ebp)
  1162cf:	8b 45 e8             	mov    -0x18(%ebp),%eax
  1162d2:	8b 40 04             	mov    0x4(%eax),%eax
  1162d5:	83 e0 fc             	and    $0xfffffffc,%eax
  1162d8:	89 45 e4             	mov    %eax,-0x1c(%ebp)
  1162db:	8b 45 10             	mov    0x10(%ebp),%eax
  1162de:	83 e0 02             	and    $0x2,%eax
  1162e1:	85 c0                	test   %eax,%eax
  1162e3:	74 1a                	je     1162ff <iALLOc+0x1aa>
  1162e5:	8b 45 e4             	mov    -0x1c(%ebp),%eax
  1162e8:	2b 45 ec             	sub    -0x14(%ebp),%eax
  1162eb:	83 e8 04             	sub    $0x4,%eax
  1162ee:	83 ec 04             	sub    $0x4,%esp
  1162f1:	50                   	push   %eax
  1162f2:	6a 00                	push   $0x0
  1162f4:	ff 75 cc             	push   -0x34(%ebp)
  1162f7:	e8 30 93 ff ff       	call   10f62c <memset>
  1162fc:	83 c4 10             	add    $0x10,%esp
  1162ff:	83 7d e0 00          	cmpl   $0x0,-0x20(%ebp)
  116303:	75 2b                	jne    116330 <iALLOc+0x1db>
  116305:	8b 55 e8             	mov    -0x18(%ebp),%edx
  116308:	8b 45 f0             	mov    -0x10(%ebp),%eax
  11630b:	01 d0                	add    %edx,%eax
  11630d:	89 45 c8             	mov    %eax,-0x38(%ebp)
  116310:	8b 45 c8             	mov    -0x38(%ebp),%eax
  116313:	83 c0 08             	add    $0x8,%eax
  116316:	89 45 e0             	mov    %eax,-0x20(%ebp)
  116319:	8b 45 e4             	mov    -0x1c(%ebp),%eax
  11631c:	2b 45 f0             	sub    -0x10(%ebp),%eax
  11631f:	83 c8 01             	or     $0x1,%eax
  116322:	89 c2                	mov    %eax,%edx
  116324:	8b 45 c8             	mov    -0x38(%ebp),%eax
  116327:	89 50 04             	mov    %edx,0x4(%eax)
  11632a:	8b 45 f0             	mov    -0x10(%ebp),%eax
  11632d:	89 45 e4             	mov    %eax,-0x1c(%ebp)
  116330:	c7 45 d8 00 00 00 00 	movl   $0x0,-0x28(%ebp)
  116337:	8b 45 d8             	mov    -0x28(%ebp),%eax
  11633a:	8d 14 85 00 00 00 00 	lea    0x0(,%eax,4),%edx
  116341:	8b 45 e0             	mov    -0x20(%ebp),%eax
  116344:	01 d0                	add    %edx,%eax
  116346:	8b 55 e8             	mov    -0x18(%ebp),%edx
  116349:	83 c2 08             	add    $0x8,%edx
  11634c:	89 10                	mov    %edx,(%eax)
  11634e:	8b 45 08             	mov    0x8(%ebp),%eax
  116351:	48                   	dec    %eax
  116352:	39 45 d8             	cmp    %eax,-0x28(%ebp)
  116355:	74 64                	je     1163bb <iALLOc+0x266>
  116357:	83 7d f4 00          	cmpl   $0x0,-0xc(%ebp)
  11635b:	74 08                	je     116365 <iALLOc+0x210>
  11635d:	8b 45 f4             	mov    -0xc(%ebp),%eax
  116360:	89 45 dc             	mov    %eax,-0x24(%ebp)
  116363:	eb 3a                	jmp    11639f <iALLOc+0x24a>
  116365:	8b 45 d8             	mov    -0x28(%ebp),%eax
  116368:	8d 14 85 00 00 00 00 	lea    0x0(,%eax,4),%edx
  11636f:	8b 45 0c             	mov    0xc(%ebp),%eax
  116372:	01 d0                	add    %edx,%eax
  116374:	8b 00                	mov    (%eax),%eax
  116376:	83 c0 0b             	add    $0xb,%eax
  116379:	83 f8 0f             	cmp    $0xf,%eax
  11637c:	76 19                	jbe    116397 <iALLOc+0x242>
  11637e:	8b 45 d8             	mov    -0x28(%ebp),%eax
  116381:	8d 14 85 00 00 00 00 	lea    0x0(,%eax,4),%edx
  116388:	8b 45 0c             	mov    0xc(%ebp),%eax
  11638b:	01 d0                	add    %edx,%eax
  11638d:	8b 00                	mov    (%eax),%eax
  11638f:	83 c0 0b             	add    $0xb,%eax
  116392:	83 e0 f8             	and    $0xfffffff8,%eax
  116395:	eb 05                	jmp    11639c <iALLOc+0x247>
  116397:	b8 10 00 00 00       	mov    $0x10,%eax
  11639c:	89 45 dc             	mov    %eax,-0x24(%ebp)
  11639f:	8b 45 dc             	mov    -0x24(%ebp),%eax
  1163a2:	29 45 e4             	sub    %eax,-0x1c(%ebp)
  1163a5:	8b 45 dc             	mov    -0x24(%ebp),%eax
  1163a8:	83 c8 01             	or     $0x1,%eax
  1163ab:	89 c2                	mov    %eax,%edx
  1163ad:	8b 45 e8             	mov    -0x18(%ebp),%eax
  1163b0:	89 50 04             	mov    %edx,0x4(%eax)
  1163b3:	8b 45 dc             	mov    -0x24(%ebp),%eax
  1163b6:	01 45 e8             	add    %eax,-0x18(%ebp)
  1163b9:	eb 14                	jmp    1163cf <iALLOc+0x27a>
  1163bb:	8b 45 e4             	mov    -0x1c(%ebp),%eax
  1163be:	83 c8 01             	or     $0x1,%eax
  1163c1:	89 c2                	mov    %eax,%edx
  1163c3:	8b 45 e8             	mov    -0x18(%ebp),%eax
  1163c6:	89 50 04             	mov    %edx,0x4(%eax)
  1163c9:	90                   	nop
  1163ca:	8b 45 e0             	mov    -0x20(%ebp),%eax
  1163cd:	eb 08                	jmp    1163d7 <iALLOc+0x282>
  1163cf:	ff 45 d8             	incl   -0x28(%ebp)
  1163d2:	e9 60 ff ff ff       	jmp    116337 <iALLOc+0x1e2>
  1163d7:	89 ec                	mov    %ebp,%esp
  1163d9:	5d                   	pop    %ebp
  1163da:	c3                   	ret    

001163db <kusvalloc>:
  1163db:	55                   	push   %ebp
  1163dc:	89 e5                	mov    %esp,%ebp
  1163de:	83 ec 18             	sub    $0x18,%esp
  1163e1:	c7 45 f4 e0 12 13 00 	movl   $0x1312e0,-0xc(%ebp)
  1163e8:	8b 45 f4             	mov    -0xc(%ebp),%eax
  1163eb:	8b 00                	mov    (%eax),%eax
  1163ed:	85 c0                	test   %eax,%eax
  1163ef:	75 0b                	jne    1163fc <kusvalloc+0x21>
  1163f1:	ff 75 f4             	push   -0xc(%ebp)
  1163f4:	e8 58 f4 ff ff       	call   115851 <malloc_consolidate>
  1163f9:	83 c4 04             	add    $0x4,%esp
  1163fc:	8b 45 f4             	mov    -0xc(%ebp),%eax
  1163ff:	8b 80 5c 03 00 00    	mov    0x35c(%eax),%eax
  116405:	83 ec 08             	sub    $0x8,%esp
  116408:	ff 75 08             	push   0x8(%ebp)
  11640b:	50                   	push   %eax
  11640c:	e8 80 f9 ff ff       	call   115d91 <kusmemalign>
  116411:	83 c4 10             	add    $0x10,%esp
  116414:	89 ec                	mov    %ebp,%esp
  116416:	5d                   	pop    %ebp
  116417:	c3                   	ret    

00116418 <kuspvalloc>:
  116418:	55                   	push   %ebp
  116419:	89 e5                	mov    %esp,%ebp
  11641b:	83 ec 18             	sub    $0x18,%esp
  11641e:	c7 45 f4 e0 12 13 00 	movl   $0x1312e0,-0xc(%ebp)
  116425:	8b 45 f4             	mov    -0xc(%ebp),%eax
  116428:	8b 00                	mov    (%eax),%eax
  11642a:	85 c0                	test   %eax,%eax
  11642c:	75 0b                	jne    116439 <kuspvalloc+0x21>
  11642e:	ff 75 f4             	push   -0xc(%ebp)
  116431:	e8 1b f4 ff ff       	call   115851 <malloc_consolidate>
  116436:	83 c4 04             	add    $0x4,%esp
  116439:	8b 45 f4             	mov    -0xc(%ebp),%eax
  11643c:	8b 80 5c 03 00 00    	mov    0x35c(%eax),%eax
  116442:	89 45 f0             	mov    %eax,-0x10(%ebp)
  116445:	8b 55 08             	mov    0x8(%ebp),%edx
  116448:	8b 45 f0             	mov    -0x10(%ebp),%eax
  11644b:	01 d0                	add    %edx,%eax
  11644d:	8d 50 ff             	lea    -0x1(%eax),%edx
  116450:	8b 45 f0             	mov    -0x10(%ebp),%eax
  116453:	f7 d8                	neg    %eax
  116455:	21 d0                	and    %edx,%eax
  116457:	83 ec 08             	sub    $0x8,%esp
  11645a:	50                   	push   %eax
  11645b:	ff 75 f0             	push   -0x10(%ebp)
  11645e:	e8 2e f9 ff ff       	call   115d91 <kusmemalign>
  116463:	83 c4 10             	add    $0x10,%esp
  116466:	89 ec                	mov    %ebp,%esp
  116468:	5d                   	pop    %ebp
  116469:	c3                   	ret    

0011646a <kusmalloc_trim>:
  11646a:	55                   	push   %ebp
  11646b:	89 e5                	mov    %esp,%ebp
  11646d:	83 ec 10             	sub    $0x10,%esp
  116470:	c7 45 fc e0 12 13 00 	movl   $0x1312e0,-0x4(%ebp)
  116477:	ff 75 fc             	push   -0x4(%ebp)
  11647a:	e8 d2 f3 ff ff       	call   115851 <malloc_consolidate>
  11647f:	83 c4 04             	add    $0x4,%esp
  116482:	ff 75 fc             	push   -0x4(%ebp)
  116485:	ff 75 08             	push   0x8(%ebp)
  116488:	e8 7d e9 ff ff       	call   114e0a <sYSTRIm>
  11648d:	83 c4 08             	add    $0x8,%esp
  116490:	89 ec                	mov    %ebp,%esp
  116492:	5d                   	pop    %ebp
  116493:	c3                   	ret    

00116494 <kusmalloc_usable_size>:
  116494:	55                   	push   %ebp
  116495:	89 e5                	mov    %esp,%ebp
  116497:	83 ec 10             	sub    $0x10,%esp
  11649a:	83 7d 08 00          	cmpl   $0x0,0x8(%ebp)
  11649e:	74 4c                	je     1164ec <kusmalloc_usable_size+0x58>
  1164a0:	8b 45 08             	mov    0x8(%ebp),%eax
  1164a3:	83 e8 08             	sub    $0x8,%eax
  1164a6:	89 45 fc             	mov    %eax,-0x4(%ebp)
  1164a9:	8b 45 fc             	mov    -0x4(%ebp),%eax
  1164ac:	8b 40 04             	mov    0x4(%eax),%eax
  1164af:	83 e0 02             	and    $0x2,%eax
  1164b2:	85 c0                	test   %eax,%eax
  1164b4:	74 0e                	je     1164c4 <kusmalloc_usable_size+0x30>
  1164b6:	8b 45 fc             	mov    -0x4(%ebp),%eax
  1164b9:	8b 40 04             	mov    0x4(%eax),%eax
  1164bc:	83 e0 fc             	and    $0xfffffffc,%eax
  1164bf:	83 e8 08             	sub    $0x8,%eax
  1164c2:	eb 2d                	jmp    1164f1 <kusmalloc_usable_size+0x5d>
  1164c4:	8b 45 fc             	mov    -0x4(%ebp),%eax
  1164c7:	8b 40 04             	mov    0x4(%eax),%eax
  1164ca:	83 e0 fe             	and    $0xfffffffe,%eax
  1164cd:	89 c2                	mov    %eax,%edx
  1164cf:	8b 45 fc             	mov    -0x4(%ebp),%eax
  1164d2:	01 d0                	add    %edx,%eax
  1164d4:	8b 40 04             	mov    0x4(%eax),%eax
  1164d7:	83 e0 01             	and    $0x1,%eax
  1164da:	85 c0                	test   %eax,%eax
  1164dc:	74 0e                	je     1164ec <kusmalloc_usable_size+0x58>
  1164de:	8b 45 fc             	mov    -0x4(%ebp),%eax
  1164e1:	8b 40 04             	mov    0x4(%eax),%eax
  1164e4:	83 e0 fc             	and    $0xfffffffc,%eax
  1164e7:	83 e8 04             	sub    $0x4,%eax
  1164ea:	eb 05                	jmp    1164f1 <kusmalloc_usable_size+0x5d>
  1164ec:	b8 00 00 00 00       	mov    $0x0,%eax
  1164f1:	89 ec                	mov    %ebp,%esp
  1164f3:	5d                   	pop    %ebp
  1164f4:	c3                   	ret    

001164f5 <kusmallinfo>:
  1164f5:	55                   	push   %ebp
  1164f6:	89 e5                	mov    %esp,%ebp
  1164f8:	57                   	push   %edi
  1164f9:	56                   	push   %esi
  1164fa:	53                   	push   %ebx
  1164fb:	83 ec 50             	sub    $0x50,%esp
  1164fe:	c7 45 d8 e0 12 13 00 	movl   $0x1312e0,-0x28(%ebp)
  116505:	8b 45 d8             	mov    -0x28(%ebp),%eax
  116508:	8b 40 2c             	mov    0x2c(%eax),%eax
  11650b:	85 c0                	test   %eax,%eax
  11650d:	75 0b                	jne    11651a <kusmallinfo+0x25>
  11650f:	ff 75 d8             	push   -0x28(%ebp)
  116512:	e8 3a f3 ff ff       	call   115851 <malloc_consolidate>
  116517:	83 c4 04             	add    $0x4,%esp
  11651a:	8b 45 d8             	mov    -0x28(%ebp),%eax
  11651d:	8b 40 2c             	mov    0x2c(%eax),%eax
  116520:	8b 40 04             	mov    0x4(%eax),%eax
  116523:	83 e0 fc             	and    $0xfffffffc,%eax
  116526:	89 45 e8             	mov    %eax,-0x18(%ebp)
  116529:	c7 45 e0 01 00 00 00 	movl   $0x1,-0x20(%ebp)
  116530:	c7 45 dc 00 00 00 00 	movl   $0x0,-0x24(%ebp)
  116537:	c7 45 e4 00 00 00 00 	movl   $0x0,-0x1c(%ebp)
  11653e:	c7 45 f0 00 00 00 00 	movl   $0x0,-0x10(%ebp)
  116545:	eb 30                	jmp    116577 <kusmallinfo+0x82>
  116547:	8b 45 d8             	mov    -0x28(%ebp),%eax
  11654a:	8b 55 f0             	mov    -0x10(%ebp),%edx
  11654d:	8b 44 90 04          	mov    0x4(%eax,%edx,4),%eax
  116551:	89 45 ec             	mov    %eax,-0x14(%ebp)
  116554:	eb 18                	jmp    11656e <kusmallinfo+0x79>
  116556:	ff 45 dc             	incl   -0x24(%ebp)
  116559:	8b 45 ec             	mov    -0x14(%ebp),%eax
  11655c:	8b 40 04             	mov    0x4(%eax),%eax
  11655f:	83 e0 fc             	and    $0xfffffffc,%eax
  116562:	01 45 e4             	add    %eax,-0x1c(%ebp)
  116565:	8b 45 ec             	mov    -0x14(%ebp),%eax
  116568:	8b 40 08             	mov    0x8(%eax),%eax
  11656b:	89 45 ec             	mov    %eax,-0x14(%ebp)
  11656e:	83 7d ec 00          	cmpl   $0x0,-0x14(%ebp)
  116572:	75 e2                	jne    116556 <kusmallinfo+0x61>
  116574:	ff 45 f0             	incl   -0x10(%ebp)
  116577:	83 7d f0 09          	cmpl   $0x9,-0x10(%ebp)
  11657b:	76 ca                	jbe    116547 <kusmallinfo+0x52>
  11657d:	8b 45 e4             	mov    -0x1c(%ebp),%eax
  116580:	01 45 e8             	add    %eax,-0x18(%ebp)
  116583:	c7 45 f0 01 00 00 00 	movl   $0x1,-0x10(%ebp)
  11658a:	eb 4b                	jmp    1165d7 <kusmallinfo+0xe2>
  11658c:	8b 45 f0             	mov    -0x10(%ebp),%eax
  11658f:	01 c0                	add    %eax,%eax
  116591:	83 c0 0c             	add    $0xc,%eax
  116594:	8d 14 85 00 00 00 00 	lea    0x0(,%eax,4),%edx
  11659b:	8b 45 d8             	mov    -0x28(%ebp),%eax
  11659e:	01 d0                	add    %edx,%eax
  1165a0:	83 c0 04             	add    $0x4,%eax
  1165a3:	83 e8 08             	sub    $0x8,%eax
  1165a6:	89 45 d4             	mov    %eax,-0x2c(%ebp)
  1165a9:	8b 45 d4             	mov    -0x2c(%ebp),%eax
  1165ac:	8b 40 0c             	mov    0xc(%eax),%eax
  1165af:	89 45 ec             	mov    %eax,-0x14(%ebp)
  1165b2:	eb 18                	jmp    1165cc <kusmallinfo+0xd7>
  1165b4:	ff 45 e0             	incl   -0x20(%ebp)
  1165b7:	8b 45 ec             	mov    -0x14(%ebp),%eax
  1165ba:	8b 40 04             	mov    0x4(%eax),%eax
  1165bd:	83 e0 fc             	and    $0xfffffffc,%eax
  1165c0:	01 45 e8             	add    %eax,-0x18(%ebp)
  1165c3:	8b 45 ec             	mov    -0x14(%ebp),%eax
  1165c6:	8b 40 0c             	mov    0xc(%eax),%eax
  1165c9:	89 45 ec             	mov    %eax,-0x14(%ebp)
  1165cc:	8b 45 ec             	mov    -0x14(%ebp),%eax
  1165cf:	3b 45 d4             	cmp    -0x2c(%ebp),%eax
  1165d2:	75 e0                	jne    1165b4 <kusmallinfo+0xbf>
  1165d4:	ff 45 f0             	incl   -0x10(%ebp)
  1165d7:	83 7d f0 5f          	cmpl   $0x5f,-0x10(%ebp)
  1165db:	76 af                	jbe    11658c <kusmallinfo+0x97>
  1165dd:	8b 45 dc             	mov    -0x24(%ebp),%eax
  1165e0:	89 45 b4             	mov    %eax,-0x4c(%ebp)
  1165e3:	8b 45 e0             	mov    -0x20(%ebp),%eax
  1165e6:	89 45 b0             	mov    %eax,-0x50(%ebp)
  1165e9:	8b 45 e8             	mov    -0x18(%ebp),%eax
  1165ec:	89 45 cc             	mov    %eax,-0x34(%ebp)
  1165ef:	8b 45 d8             	mov    -0x28(%ebp),%eax
  1165f2:	8b 80 68 03 00 00    	mov    0x368(%eax),%eax
  1165f8:	2b 45 e8             	sub    -0x18(%ebp),%eax
  1165fb:	89 45 c8             	mov    %eax,-0x38(%ebp)
  1165fe:	8b 45 d8             	mov    -0x28(%ebp),%eax
  116601:	8b 80 68 03 00 00    	mov    0x368(%eax),%eax
  116607:	89 45 ac             	mov    %eax,-0x54(%ebp)
  11660a:	8b 45 d8             	mov    -0x28(%ebp),%eax
  11660d:	8b 80 50 03 00 00    	mov    0x350(%eax),%eax
  116613:	89 45 b8             	mov    %eax,-0x48(%ebp)
  116616:	8b 45 d8             	mov    -0x28(%ebp),%eax
  116619:	8b 80 64 03 00 00    	mov    0x364(%eax),%eax
  11661f:	89 45 bc             	mov    %eax,-0x44(%ebp)
  116622:	8b 45 e4             	mov    -0x1c(%ebp),%eax
  116625:	89 45 c4             	mov    %eax,-0x3c(%ebp)
  116628:	8b 45 d8             	mov    -0x28(%ebp),%eax
  11662b:	8b 40 2c             	mov    0x2c(%eax),%eax
  11662e:	8b 40 04             	mov    0x4(%eax),%eax
  116631:	83 e0 fc             	and    $0xfffffffc,%eax
  116634:	89 45 d0             	mov    %eax,-0x30(%ebp)
  116637:	8b 45 d8             	mov    -0x28(%ebp),%eax
  11663a:	8b 80 74 03 00 00    	mov    0x374(%eax),%eax
  116640:	89 45 c0             	mov    %eax,-0x40(%ebp)
  116643:	8b 45 08             	mov    0x8(%ebp),%eax
  116646:	89 c3                	mov    %eax,%ebx
  116648:	8d 45 ac             	lea    -0x54(%ebp),%eax
  11664b:	ba 0a 00 00 00       	mov    $0xa,%edx
  116650:	89 df                	mov    %ebx,%edi
  116652:	89 c6                	mov    %eax,%esi
  116654:	89 d1                	mov    %edx,%ecx
  116656:	f3 a5                	rep movsl %ds:(%esi),%es:(%edi)
  116658:	8b 45 08             	mov    0x8(%ebp),%eax
  11665b:	8d 65 f4             	lea    -0xc(%ebp),%esp
  11665e:	5b                   	pop    %ebx
  11665f:	5e                   	pop    %esi
  116660:	5f                   	pop    %edi
  116661:	5d                   	pop    %ebp
  116662:	c2 04 00             	ret    $0x4

00116665 <kusmalloc_stats>:
  116665:	55                   	push   %ebp
  116666:	89 e5                	mov    %esp,%ebp
  116668:	83 ec 38             	sub    $0x38,%esp
  11666b:	8d 45 d0             	lea    -0x30(%ebp),%eax
  11666e:	50                   	push   %eax
  11666f:	e8 81 fe ff ff       	call   1164f5 <kusmallinfo>
  116674:	8b 45 e4             	mov    -0x1c(%ebp),%eax
  116677:	83 ec 08             	sub    $0x8,%esp
  11667a:	50                   	push   %eax
  11667b:	68 7c 77 11 00       	push   $0x11777c
  116680:	e8 fa 8b ff ff       	call   10f27f <printf>
  116685:	83 c4 10             	add    $0x10,%esp
  116688:	8b 55 d0             	mov    -0x30(%ebp),%edx
  11668b:	8b 45 e0             	mov    -0x20(%ebp),%eax
  11668e:	01 d0                	add    %edx,%eax
  116690:	83 ec 08             	sub    $0x8,%esp
  116693:	50                   	push   %eax
  116694:	68 96 77 11 00       	push   $0x117796
  116699:	e8 e1 8b ff ff       	call   10f27f <printf>
  11669e:	83 c4 10             	add    $0x10,%esp
  1166a1:	8b 55 ec             	mov    -0x14(%ebp),%edx
  1166a4:	8b 45 e0             	mov    -0x20(%ebp),%eax
  1166a7:	01 d0                	add    %edx,%eax
  1166a9:	83 ec 08             	sub    $0x8,%esp
  1166ac:	50                   	push   %eax
  1166ad:	68 b0 77 11 00       	push   $0x1177b0
  1166b2:	e8 c8 8b ff ff       	call   10f27f <printf>
  1166b7:	83 c4 10             	add    $0x10,%esp
  1166ba:	90                   	nop
  1166bb:	89 ec                	mov    %ebp,%esp
  1166bd:	5d                   	pop    %ebp
  1166be:	c3                   	ret    

001166bf <kusmallopt>:
  1166bf:	55                   	push   %ebp
  1166c0:	89 e5                	mov    %esp,%ebp
  1166c2:	83 ec 10             	sub    $0x10,%esp
  1166c5:	c7 45 fc e0 12 13 00 	movl   $0x1312e0,-0x4(%ebp)
  1166cc:	ff 75 fc             	push   -0x4(%ebp)
  1166cf:	e8 7d f1 ff ff       	call   115851 <malloc_consolidate>
  1166d4:	83 c4 04             	add    $0x4,%esp
  1166d7:	8b 45 08             	mov    0x8(%ebp),%eax
  1166da:	83 c0 04             	add    $0x4,%eax
  1166dd:	83 f8 05             	cmp    $0x5,%eax
  1166e0:	0f 87 b3 00 00 00    	ja     116799 <kusmallopt+0xda>
  1166e6:	8b 04 85 cc 77 11 00 	mov    0x1177cc(,%eax,4),%eax
  1166ed:	ff e0                	jmp    *%eax
  1166ef:	83 7d 0c 00          	cmpl   $0x0,0xc(%ebp)
  1166f3:	78 44                	js     116739 <kusmallopt+0x7a>
  1166f5:	83 7d 0c 50          	cmpl   $0x50,0xc(%ebp)
  1166f9:	7f 3e                	jg     116739 <kusmallopt+0x7a>
  1166fb:	83 7d 0c 00          	cmpl   $0x0,0xc(%ebp)
  1166ff:	74 1d                	je     11671e <kusmallopt+0x5f>
  116701:	8b 45 0c             	mov    0xc(%ebp),%eax
  116704:	83 c0 0b             	add    $0xb,%eax
  116707:	83 f8 0f             	cmp    $0xf,%eax
  11670a:	76 0b                	jbe    116717 <kusmallopt+0x58>
  11670c:	8b 45 0c             	mov    0xc(%ebp),%eax
  11670f:	83 c0 0b             	add    $0xb,%eax
  116712:	83 e0 f8             	and    $0xfffffff8,%eax
  116715:	eb 0c                	jmp    116723 <kusmallopt+0x64>
  116717:	b8 10 00 00 00       	mov    $0x10,%eax
  11671c:	eb 05                	jmp    116723 <kusmallopt+0x64>
  11671e:	b8 08 00 00 00       	mov    $0x8,%eax
  116723:	8b 55 fc             	mov    -0x4(%ebp),%edx
  116726:	8b 12                	mov    (%edx),%edx
  116728:	83 e2 03             	and    $0x3,%edx
  11672b:	09 c2                	or     %eax,%edx
  11672d:	8b 45 fc             	mov    -0x4(%ebp),%eax
  116730:	89 10                	mov    %edx,(%eax)
  116732:	b8 01 00 00 00       	mov    $0x1,%eax
  116737:	eb 65                	jmp    11679e <kusmallopt+0xdf>
  116739:	b8 00 00 00 00       	mov    $0x0,%eax
  11673e:	eb 5e                	jmp    11679e <kusmallopt+0xdf>
  116740:	8b 55 0c             	mov    0xc(%ebp),%edx
  116743:	8b 45 fc             	mov    -0x4(%ebp),%eax
  116746:	89 90 44 03 00 00    	mov    %edx,0x344(%eax)
  11674c:	b8 01 00 00 00       	mov    $0x1,%eax
  116751:	eb 4b                	jmp    11679e <kusmallopt+0xdf>
  116753:	8b 55 0c             	mov    0xc(%ebp),%edx
  116756:	8b 45 fc             	mov    -0x4(%ebp),%eax
  116759:	89 90 48 03 00 00    	mov    %edx,0x348(%eax)
  11675f:	b8 01 00 00 00       	mov    $0x1,%eax
  116764:	eb 38                	jmp    11679e <kusmallopt+0xdf>
  116766:	8b 55 0c             	mov    0xc(%ebp),%edx
  116769:	8b 45 fc             	mov    -0x4(%ebp),%eax
  11676c:	89 90 4c 03 00 00    	mov    %edx,0x34c(%eax)
  116772:	b8 01 00 00 00       	mov    $0x1,%eax
  116777:	eb 25                	jmp    11679e <kusmallopt+0xdf>
  116779:	83 7d 0c 00          	cmpl   $0x0,0xc(%ebp)
  11677d:	74 07                	je     116786 <kusmallopt+0xc7>
  11677f:	b8 00 00 00 00       	mov    $0x0,%eax
  116784:	eb 18                	jmp    11679e <kusmallopt+0xdf>
  116786:	8b 45 fc             	mov    -0x4(%ebp),%eax
  116789:	8b 55 0c             	mov    0xc(%ebp),%edx
  11678c:	89 90 54 03 00 00    	mov    %edx,0x354(%eax)
  116792:	b8 01 00 00 00       	mov    $0x1,%eax
  116797:	eb 05                	jmp    11679e <kusmallopt+0xdf>
  116799:	b8 00 00 00 00       	mov    $0x0,%eax
  11679e:	89 ec                	mov    %ebp,%esp
  1167a0:	5d                   	pop    %ebp
  1167a1:	c3                   	ret    

001167a2 <user_stack_bug>:
  1167a2:	55                   	push   %ebp
  1167a3:	89 e5                	mov    %esp,%ebp
  1167a5:	83 ec 08             	sub    $0x8,%esp
  1167a8:	83 ec 0c             	sub    $0xc,%esp
  1167ab:	ff 75 08             	push   0x8(%ebp)
  1167ae:	e8 1d 8b ff ff       	call   10f2d0 <puts>
  1167b3:	83 c4 10             	add    $0x10,%esp
  1167b6:	b8 00 00 00 00       	mov    $0x0,%eax
  1167bb:	c6 00 01             	movb   $0x1,(%eax)
  1167be:	90                   	nop
  1167bf:	89 ec                	mov    %ebp,%esp
  1167c1:	5d                   	pop    %ebp
  1167c2:	c3                   	ret    

001167c3 <user_stack_alloc>:
  1167c3:	55                   	push   %ebp
  1167c4:	89 e5                	mov    %esp,%ebp
  1167c6:	83 ec 18             	sub    $0x18,%esp
  1167c9:	8b 45 08             	mov    0x8(%ebp),%eax
  1167cc:	83 c0 03             	add    $0x3,%eax
  1167cf:	c1 e8 02             	shr    $0x2,%eax
  1167d2:	83 c0 04             	add    $0x4,%eax
  1167d5:	89 45 f4             	mov    %eax,-0xc(%ebp)
  1167d8:	8b 45 f4             	mov    -0xc(%ebp),%eax
  1167db:	c1 e0 02             	shl    $0x2,%eax
  1167de:	89 45 f0             	mov    %eax,-0x10(%ebp)
  1167e1:	83 7d 08 00          	cmpl   $0x0,0x8(%ebp)
  1167e5:	75 0a                	jne    1167f1 <user_stack_alloc+0x2e>
  1167e7:	b8 00 00 00 00       	mov    $0x0,%eax
  1167ec:	e9 95 00 00 00       	jmp    116886 <user_stack_alloc+0xc3>
  1167f1:	8b 45 f0             	mov    -0x10(%ebp),%eax
  1167f4:	3b 45 08             	cmp    0x8(%ebp),%eax
  1167f7:	77 0a                	ja     116803 <user_stack_alloc+0x40>
  1167f9:	b8 00 00 00 00       	mov    $0x0,%eax
  1167fe:	e9 83 00 00 00       	jmp    116886 <user_stack_alloc+0xc3>
  116803:	83 ec 0c             	sub    $0xc,%esp
  116806:	ff 75 f0             	push   -0x10(%ebp)
  116809:	e8 cb e6 ff ff       	call   114ed9 <kusmalloc>
  11680e:	83 c4 10             	add    $0x10,%esp
  116811:	89 45 ec             	mov    %eax,-0x14(%ebp)
  116814:	83 7d ec 00          	cmpl   $0x0,-0x14(%ebp)
  116818:	75 07                	jne    116821 <user_stack_alloc+0x5e>
  11681a:	b8 00 00 00 00       	mov    $0x0,%eax
  11681f:	eb 65                	jmp    116886 <user_stack_alloc+0xc3>
  116821:	8b 45 ec             	mov    -0x14(%ebp),%eax
  116824:	8b 55 08             	mov    0x8(%ebp),%edx
  116827:	89 10                	mov    %edx,(%eax)
  116829:	8b 45 ec             	mov    -0x14(%ebp),%eax
  11682c:	83 c0 04             	add    $0x4,%eax
  11682f:	c7 00 ab 34 12 a5    	movl   $0xa51234ab,(%eax)
  116835:	8b 45 f4             	mov    -0xc(%ebp),%eax
  116838:	05 fe ff ff 3f       	add    $0x3ffffffe,%eax
  11683d:	8d 14 85 00 00 00 00 	lea    0x0(,%eax,4),%edx
  116844:	8b 45 ec             	mov    -0x14(%ebp),%eax
  116847:	01 d0                	add    %edx,%eax
  116849:	c7 00 dc fe ad de    	movl   $0xdeadfedc,(%eax)
  11684f:	8b 45 f4             	mov    -0xc(%ebp),%eax
  116852:	05 ff ff ff 3f       	add    $0x3fffffff,%eax
  116857:	8d 14 85 00 00 00 00 	lea    0x0(,%eax,4),%edx
  11685e:	8b 45 ec             	mov    -0x14(%ebp),%eax
  116861:	01 c2                	add    %eax,%edx
  116863:	8b 45 ec             	mov    -0x14(%ebp),%eax
  116866:	89 02                	mov    %eax,(%edx)
  116868:	83 45 ec 08          	addl   $0x8,-0x14(%ebp)
  11686c:	8b 45 f0             	mov    -0x10(%ebp),%eax
  11686f:	83 e8 10             	sub    $0x10,%eax
  116872:	83 ec 04             	sub    $0x4,%esp
  116875:	50                   	push   %eax
  116876:	6a 00                	push   $0x0
  116878:	ff 75 ec             	push   -0x14(%ebp)
  11687b:	e8 ac 8d ff ff       	call   10f62c <memset>
  116880:	83 c4 10             	add    $0x10,%esp
  116883:	8b 45 ec             	mov    -0x14(%ebp),%eax
  116886:	89 ec                	mov    %ebp,%esp
  116888:	5d                   	pop    %ebp
  116889:	c3                   	ret    

0011688a <user_stack_free>:
  11688a:	55                   	push   %ebp
  11688b:	89 e5                	mov    %esp,%ebp
  11688d:	83 ec 18             	sub    $0x18,%esp
  116890:	8b 45 08             	mov    0x8(%ebp),%eax
  116893:	89 45 f4             	mov    %eax,-0xc(%ebp)
  116896:	8b 45 0c             	mov    0xc(%ebp),%eax
  116899:	83 c0 03             	add    $0x3,%eax
  11689c:	c1 e8 02             	shr    $0x2,%eax
  11689f:	83 c0 04             	add    $0x4,%eax
  1168a2:	89 45 f0             	mov    %eax,-0x10(%ebp)
  1168a5:	83 7d 0c 00          	cmpl   $0x0,0xc(%ebp)
  1168a9:	0f 84 be 00 00 00    	je     11696d <user_stack_free+0xe3>
  1168af:	83 6d f4 08          	subl   $0x8,-0xc(%ebp)
  1168b3:	8b 45 f4             	mov    -0xc(%ebp),%eax
  1168b6:	83 c0 04             	add    $0x4,%eax
  1168b9:	8b 00                	mov    (%eax),%eax
  1168bb:	3d ab 34 12 a5       	cmp    $0xa51234ab,%eax
  1168c0:	74 10                	je     1168d2 <user_stack_free+0x48>
  1168c2:	83 ec 0c             	sub    $0xc,%esp
  1168c5:	68 e4 77 11 00       	push   $0x1177e4
  1168ca:	e8 d3 fe ff ff       	call   1167a2 <user_stack_bug>
  1168cf:	83 c4 10             	add    $0x10,%esp
  1168d2:	8b 45 f4             	mov    -0xc(%ebp),%eax
  1168d5:	8b 00                	mov    (%eax),%eax
  1168d7:	39 45 0c             	cmp    %eax,0xc(%ebp)
  1168da:	74 10                	je     1168ec <user_stack_free+0x62>
  1168dc:	83 ec 0c             	sub    $0xc,%esp
  1168df:	68 34 78 11 00       	push   $0x117834
  1168e4:	e8 b9 fe ff ff       	call   1167a2 <user_stack_bug>
  1168e9:	83 c4 10             	add    $0x10,%esp
  1168ec:	8b 45 f0             	mov    -0x10(%ebp),%eax
  1168ef:	05 fe ff ff 3f       	add    $0x3ffffffe,%eax
  1168f4:	8d 14 85 00 00 00 00 	lea    0x0(,%eax,4),%edx
  1168fb:	8b 45 f4             	mov    -0xc(%ebp),%eax
  1168fe:	01 d0                	add    %edx,%eax
  116900:	8b 00                	mov    (%eax),%eax
  116902:	3d dc fe ad de       	cmp    $0xdeadfedc,%eax
  116907:	74 10                	je     116919 <user_stack_free+0x8f>
  116909:	83 ec 0c             	sub    $0xc,%esp
  11690c:	68 6c 78 11 00       	push   $0x11786c
  116911:	e8 8c fe ff ff       	call   1167a2 <user_stack_bug>
  116916:	83 c4 10             	add    $0x10,%esp
  116919:	8b 45 f0             	mov    -0x10(%ebp),%eax
  11691c:	05 ff ff ff 3f       	add    $0x3fffffff,%eax
  116921:	8d 14 85 00 00 00 00 	lea    0x0(,%eax,4),%edx
  116928:	8b 45 f4             	mov    -0xc(%ebp),%eax
  11692b:	01 d0                	add    %edx,%eax
  11692d:	8b 10                	mov    (%eax),%edx
  11692f:	8b 45 f4             	mov    -0xc(%ebp),%eax
  116932:	39 c2                	cmp    %eax,%edx
  116934:	74 10                	je     116946 <user_stack_free+0xbc>
  116936:	83 ec 0c             	sub    $0xc,%esp
  116939:	68 a4 78 11 00       	push   $0x1178a4
  11693e:	e8 5f fe ff ff       	call   1167a2 <user_stack_bug>
  116943:	83 c4 10             	add    $0x10,%esp
  116946:	8b 45 f0             	mov    -0x10(%ebp),%eax
  116949:	c1 e0 02             	shl    $0x2,%eax
  11694c:	83 ec 04             	sub    $0x4,%esp
  11694f:	50                   	push   %eax
  116950:	6a 00                	push   $0x0
  116952:	ff 75 f4             	push   -0xc(%ebp)
  116955:	e8 d2 8c ff ff       	call   10f62c <memset>
  11695a:	83 c4 10             	add    $0x10,%esp
  11695d:	83 ec 0c             	sub    $0xc,%esp
  116960:	ff 75 f4             	push   -0xc(%ebp)
  116963:	e8 cc ec ff ff       	call   115634 <kusfree>
  116968:	83 c4 10             	add    $0x10,%esp
  11696b:	eb 01                	jmp    11696e <user_stack_free+0xe4>
  11696d:	90                   	nop
  11696e:	89 ec                	mov    %ebp,%esp
  116970:	5d                   	pop    %ebp
  116971:	c3                   	ret    

00116972 <user_stack_free_nolength>:
  116972:	55                   	push   %ebp
  116973:	89 e5                	mov    %esp,%ebp
  116975:	83 ec 08             	sub    $0x8,%esp
  116978:	8b 45 08             	mov    0x8(%ebp),%eax
  11697b:	83 e8 08             	sub    $0x8,%eax
  11697e:	8b 00                	mov    (%eax),%eax
  116980:	83 ec 08             	sub    $0x8,%esp
  116983:	50                   	push   %eax
  116984:	ff 75 08             	push   0x8(%ebp)
  116987:	e8 fe fe ff ff       	call   11688a <user_stack_free>
  11698c:	83 c4 10             	add    $0x10,%esp
  11698f:	90                   	nop
  116990:	89 ec                	mov    %ebp,%esp
  116992:	5d                   	pop    %ebp
  116993:	c3                   	ret    
